	.file	"ivdep.c"
	.intel_syntax noprefix
	.text
	.section	.text$_ZNSt6vectorIhSaIhEE7reserveEj,"x"
	.linkonce discard
	.align 2
	.p2align 4,,15
	.globl	__ZNSt6vectorIhSaIhEE7reserveEj
	.def	__ZNSt6vectorIhSaIhEE7reserveEj;	.scl	2;	.type	32;	.endef
__ZNSt6vectorIhSaIhEE7reserveEj:
LFB855:
	.cfi_startproc
	push	ebp
	.cfi_def_cfa_offset 8
	.cfi_offset 5, -8
	push	edi
	.cfi_def_cfa_offset 12
	.cfi_offset 7, -12
	push	esi
	.cfi_def_cfa_offset 16
	.cfi_offset 6, -16
	push	ebx
	.cfi_def_cfa_offset 20
	.cfi_offset 3, -20
	sub	esp, 28
	.cfi_def_cfa_offset 48
	mov	edi, DWORD PTR [ecx]
	mov	edx, DWORD PTR [ecx+8]
	sub	edx, edi
	cmp	DWORD PTR [esp+48], edx
	ja	L13
	add	esp, 28
	.cfi_remember_state
	.cfi_def_cfa_offset 20
	pop	ebx
	.cfi_restore 3
	.cfi_def_cfa_offset 16
	pop	esi
	.cfi_restore 6
	.cfi_def_cfa_offset 12
	pop	edi
	.cfi_restore 7
	.cfi_def_cfa_offset 8
	pop	ebp
	.cfi_restore 5
	.cfi_def_cfa_offset 4
	ret	4
	.p2align 4,,10
L13:
	.cfi_restore_state
	mov	eax, DWORD PTR [esp+48]
	mov	ebp, DWORD PTR [ecx+4]
	mov	ebx, ecx
	mov	DWORD PTR [esp], eax
	sub	ebp, edi
	call	__Znwj
	mov	esi, eax
	test	ebp, ebp
	jne	L14
L3:
	mov	eax, DWORD PTR [ebx]
	test	eax, eax
	je	L4
	mov	DWORD PTR [esp], eax
	call	__ZdlPv
L4:
	mov	DWORD PTR [ebx], esi
	add	ebp, esi
	add	esi, DWORD PTR [esp+48]
	mov	DWORD PTR [ebx+4], ebp
	mov	DWORD PTR [ebx+8], esi
	add	esp, 28
	.cfi_remember_state
	.cfi_def_cfa_offset 20
	pop	ebx
	.cfi_restore 3
	.cfi_def_cfa_offset 16
	pop	esi
	.cfi_restore 6
	.cfi_def_cfa_offset 12
	pop	edi
	.cfi_restore 7
	.cfi_def_cfa_offset 8
	pop	ebp
	.cfi_restore 5
	.cfi_def_cfa_offset 4
	ret	4
	.p2align 4,,10
L14:
	.cfi_restore_state
	mov	DWORD PTR [esp+8], ebp
	mov	DWORD PTR [esp+4], edi
	mov	DWORD PTR [esp], eax
	call	_memcpy
	jmp	L3
	.cfi_endproc
LFE855:
	.def	___main;	.scl	2;	.type	32;	.endef
	.section .rdata,"dr"
LC2:
	.ascii ".\0"
LC3:
	.ascii "%u\0"
	.section	.text.unlikely,"x"
LCOLDB4:
	.section	.text.startup,"x"
LHOTB4:
	.p2align 4,,15
	.globl	_main
	.def	_main;	.scl	2;	.type	32;	.endef
_main:
LFB846:
	.cfi_startproc
	.cfi_personality 0,___gxx_personality_v0
	.cfi_lsda 0,LLSDA846
	lea	ecx, [esp+4]
	.cfi_def_cfa 1, 0
	and	esp, -16
	push	DWORD PTR [ecx-4]
	push	ebp
	.cfi_escape 0x10,0x5,0x2,0x75,0
	mov	ebp, esp
	push	edi
	push	esi
	push	ebx
	push	ecx
	.cfi_escape 0xf,0x3,0x75,0x70,0x6
	.cfi_escape 0x10,0x7,0x2,0x75,0x7c
	.cfi_escape 0x10,0x6,0x2,0x75,0x78
	.cfi_escape 0x10,0x3,0x2,0x75,0x74
	sub	esp, 72
	call	___main
	mov	DWORD PTR [esp], 134217728
	lea	ecx, [ebp-60]
	mov	DWORD PTR [ebp-60], 0
	mov	DWORD PTR [ebp-56], 0
	mov	DWORD PTR [ebp-52], 0
	mov	DWORD PTR [ebp-48], 0
	mov	DWORD PTR [ebp-44], 0
	mov	DWORD PTR [ebp-40], 0
	mov	DWORD PTR [ebp-36], 0
	mov	DWORD PTR [ebp-32], 0
	mov	DWORD PTR [ebp-28], 0
LEHB0:
	call	__ZNSt6vectorIhSaIhEE7reserveEj
	sub	esp, 4
	lea	ecx, [ebp-48]
	mov	DWORD PTR [esp], 134217728
	call	__ZNSt6vectorIhSaIhEE7reserveEj
	sub	esp, 4
	lea	ecx, [ebp-36]
	mov	DWORD PTR [esp], 134217728
	call	__ZNSt6vectorIhSaIhEE7reserveEj
LEHE0:
	mov	ebx, DWORD PTR [ebp-60]
	mov	esi, DWORD PTR [ebp-48]
	sub	esp, 4
	xor	eax, eax
	movdqa	xmm1, XMMWORD PTR LC0
	mov	edi, DWORD PTR [ebp-36]
	movdqa	xmm0, XMMWORD PTR LC1
	.p2align 4,,10
L16:
	movups	XMMWORD PTR [ebx+eax], xmm1
	movups	XMMWORD PTR [esi+eax], xmm0
	add	eax, 16
	cmp	eax, 134217728
	jne	L16
	mov	DWORD PTR [esp], OFFSET FLAT:LC2
	call	_puts
	xor	edx, edx
L17:
	movdqu	xmm1, XMMWORD PTR [esi+edx]
	movdqu	xmm0, XMMWORD PTR [ebx+edx]
	lea	eax, [edx+16]
	cmp	eax, 134217728
	paddb	xmm0, xmm1
	movups	XMMWORD PTR [edi+edx], xmm0
	movdqu	xmm1, XMMWORD PTR [esi+eax]
	movdqu	xmm0, XMMWORD PTR [ebx+eax]
	mov	edx, eax
	add	edx, 16
	paddb	xmm0, xmm1
	cmp	edx, 134217728
	movups	XMMWORD PTR [edi+eax], xmm0
	movdqu	xmm1, XMMWORD PTR [esi+edx]
	movdqu	xmm0, XMMWORD PTR [ebx+edx]
	paddb	xmm0, xmm1
	movups	XMMWORD PTR [edi+edx], xmm0
	movdqu	xmm1, XMMWORD PTR [esi+32+eax]
	movdqu	xmm0, XMMWORD PTR [ebx+32+eax]
	lea	edx, [eax+32]
	cmp	edx, 134217728
	lea	edx, [eax+48]
	paddb	xmm0, xmm1
	cmp	edx, 134217728
	lea	edx, [eax+64]
	movups	XMMWORD PTR [edi+32+eax], xmm0
	movdqu	xmm1, XMMWORD PTR [esi+48+eax]
	movdqu	xmm0, XMMWORD PTR [ebx+48+eax]
	cmp	edx, 134217728
	lea	edx, [eax+80]
	paddb	xmm0, xmm1
	cmp	edx, 134217728
	lea	edx, [eax+96]
	movups	XMMWORD PTR [edi+48+eax], xmm0
	movdqu	xmm1, XMMWORD PTR [esi+64+eax]
	movdqu	xmm0, XMMWORD PTR [ebx+64+eax]
	cmp	edx, 134217728
	lea	edx, [eax+112]
	paddb	xmm0, xmm1
	cmp	edx, 134217728
	lea	edx, [eax+128]
	movups	XMMWORD PTR [edi+64+eax], xmm0
	movdqu	xmm1, XMMWORD PTR [esi+80+eax]
	movdqu	xmm0, XMMWORD PTR [ebx+80+eax]
	cmp	edx, 134217728
	lea	edx, [eax+144]
	paddb	xmm0, xmm1
	cmp	edx, 134217728
	lea	edx, [eax+160]
	movups	XMMWORD PTR [edi+80+eax], xmm0
	movdqu	xmm1, XMMWORD PTR [esi+96+eax]
	movdqu	xmm0, XMMWORD PTR [ebx+96+eax]
	cmp	edx, 134217728
	lea	edx, [eax+176]
	paddb	xmm0, xmm1
	cmp	edx, 134217728
	lea	edx, [eax+192]
	movups	XMMWORD PTR [edi+96+eax], xmm0
	movdqu	xmm1, XMMWORD PTR [esi+112+eax]
	movdqu	xmm0, XMMWORD PTR [ebx+112+eax]
	cmp	edx, 134217728
	lea	edx, [eax+208]
	paddb	xmm0, xmm1
	cmp	edx, 134217728
	lea	edx, [eax+224]
	movups	XMMWORD PTR [edi+112+eax], xmm0
	cmp	edx, 134217728
	movdqu	xmm1, XMMWORD PTR [esi+128+eax]
	movdqu	xmm0, XMMWORD PTR [ebx+128+eax]
	lea	edx, [eax+240]
	paddb	xmm0, xmm1
	cmp	edx, 134217728
	lea	edx, [eax+256]
	movups	XMMWORD PTR [edi+128+eax], xmm0
	cmp	edx, 134217728
	movdqu	xmm1, XMMWORD PTR [esi+144+eax]
	movdqu	xmm0, XMMWORD PTR [ebx+144+eax]
	lea	edx, [eax+272]
	paddb	xmm0, xmm1
	cmp	edx, 134217728
	lea	edx, [eax+288]
	movups	XMMWORD PTR [edi+144+eax], xmm0
	cmp	edx, 134217728
	movdqu	xmm1, XMMWORD PTR [esi+160+eax]
	movdqu	xmm0, XMMWORD PTR [ebx+160+eax]
	lea	edx, [eax+304]
	paddb	xmm0, xmm1
	cmp	edx, 134217728
	lea	edx, [eax+320]
	movups	XMMWORD PTR [edi+160+eax], xmm0
	cmp	edx, 134217728
	movdqu	xmm1, XMMWORD PTR [esi+176+eax]
	movdqu	xmm0, XMMWORD PTR [ebx+176+eax]
	lea	edx, [eax+336]
	paddb	xmm0, xmm1
	cmp	edx, 134217728
	lea	edx, [eax+352]
	movups	XMMWORD PTR [edi+176+eax], xmm0
	cmp	edx, 134217728
	movdqu	xmm1, XMMWORD PTR [esi+192+eax]
	movdqu	xmm0, XMMWORD PTR [ebx+192+eax]
	lea	edx, [eax+368]
	paddb	xmm0, xmm1
	cmp	edx, 134217728
	lea	edx, [eax+384]
	movups	XMMWORD PTR [edi+192+eax], xmm0
	cmp	edx, 134217728
	movdqu	xmm1, XMMWORD PTR [esi+208+eax]
	movdqu	xmm0, XMMWORD PTR [ebx+208+eax]
	lea	edx, [eax+400]
	paddb	xmm0, xmm1
	cmp	edx, 134217728
	lea	edx, [eax+416]
	movups	XMMWORD PTR [edi+208+eax], xmm0
	cmp	edx, 134217728
	movdqu	xmm1, XMMWORD PTR [esi+224+eax]
	movdqu	xmm0, XMMWORD PTR [ebx+224+eax]
	lea	edx, [eax+432]
	paddb	xmm0, xmm1
	cmp	edx, 134217728
	lea	edx, [eax+448]
	movups	XMMWORD PTR [edi+224+eax], xmm0
	cmp	edx, 134217728
	movdqu	xmm1, XMMWORD PTR [esi+240+eax]
	movdqu	xmm0, XMMWORD PTR [ebx+240+eax]
	lea	edx, [eax+464]
	paddb	xmm0, xmm1
	cmp	edx, 134217728
	lea	edx, [eax+480]
	movups	XMMWORD PTR [edi+240+eax], xmm0
	cmp	edx, 134217728
	movdqu	xmm1, XMMWORD PTR [esi+256+eax]
	movdqu	xmm0, XMMWORD PTR [ebx+256+eax]
	lea	edx, [eax+496]
	paddb	xmm0, xmm1
	cmp	edx, 134217728
	lea	edx, [eax+512]
	movups	XMMWORD PTR [edi+256+eax], xmm0
	cmp	edx, 134217728
	movdqu	xmm1, XMMWORD PTR [esi+272+eax]
	movdqu	xmm0, XMMWORD PTR [ebx+272+eax]
	lea	edx, [eax+528]
	paddb	xmm0, xmm1
	cmp	edx, 134217728
	lea	edx, [eax+544]
	movups	XMMWORD PTR [edi+272+eax], xmm0
	cmp	edx, 134217728
	movdqu	xmm1, XMMWORD PTR [esi+288+eax]
	movdqu	xmm0, XMMWORD PTR [ebx+288+eax]
	lea	edx, [eax+560]
	paddb	xmm0, xmm1
	cmp	edx, 134217728
	lea	edx, [eax+576]
	movups	XMMWORD PTR [edi+288+eax], xmm0
	cmp	edx, 134217728
	movdqu	xmm1, XMMWORD PTR [esi+304+eax]
	movdqu	xmm0, XMMWORD PTR [ebx+304+eax]
	lea	edx, [eax+592]
	paddb	xmm0, xmm1
	cmp	edx, 134217728
	lea	edx, [eax+608]
	movups	XMMWORD PTR [edi+304+eax], xmm0
	cmp	edx, 134217728
	movdqu	xmm1, XMMWORD PTR [esi+320+eax]
	movdqu	xmm0, XMMWORD PTR [ebx+320+eax]
	lea	edx, [eax+624]
	paddb	xmm0, xmm1
	cmp	edx, 134217728
	lea	edx, [eax+640]
	movups	XMMWORD PTR [edi+320+eax], xmm0
	cmp	edx, 134217728
	movdqu	xmm1, XMMWORD PTR [esi+336+eax]
	movdqu	xmm0, XMMWORD PTR [ebx+336+eax]
	lea	edx, [eax+656]
	paddb	xmm0, xmm1
	cmp	edx, 134217728
	lea	edx, [eax+672]
	movups	XMMWORD PTR [edi+336+eax], xmm0
	cmp	edx, 134217728
	movdqu	xmm1, XMMWORD PTR [esi+352+eax]
	movdqu	xmm0, XMMWORD PTR [ebx+352+eax]
	lea	edx, [eax+688]
	paddb	xmm0, xmm1
	cmp	edx, 134217728
	lea	edx, [eax+704]
	movups	XMMWORD PTR [edi+352+eax], xmm0
	cmp	edx, 134217728
	movdqu	xmm1, XMMWORD PTR [esi+368+eax]
	movdqu	xmm0, XMMWORD PTR [ebx+368+eax]
	lea	edx, [eax+720]
	paddb	xmm0, xmm1
	cmp	edx, 134217728
	lea	edx, [eax+736]
	movups	XMMWORD PTR [edi+368+eax], xmm0
	cmp	edx, 134217728
	movdqu	xmm1, XMMWORD PTR [esi+384+eax]
	movdqu	xmm0, XMMWORD PTR [ebx+384+eax]
	lea	edx, [eax+752]
	paddb	xmm0, xmm1
	cmp	edx, 134217728
	lea	edx, [eax+768]
	movups	XMMWORD PTR [edi+384+eax], xmm0
	cmp	edx, 134217728
	movdqu	xmm1, XMMWORD PTR [esi+400+eax]
	movdqu	xmm0, XMMWORD PTR [ebx+400+eax]
	lea	edx, [eax+784]
	paddb	xmm0, xmm1
	cmp	edx, 134217728
	lea	edx, [eax+800]
	movups	XMMWORD PTR [edi+400+eax], xmm0
	cmp	edx, 134217728
	movdqu	xmm1, XMMWORD PTR [esi+416+eax]
	movdqu	xmm0, XMMWORD PTR [ebx+416+eax]
	lea	edx, [eax+816]
	paddb	xmm0, xmm1
	cmp	edx, 134217728
	lea	edx, [eax+832]
	movups	XMMWORD PTR [edi+416+eax], xmm0
	cmp	edx, 134217728
	movdqu	xmm1, XMMWORD PTR [esi+432+eax]
	movdqu	xmm0, XMMWORD PTR [ebx+432+eax]
	lea	edx, [eax+848]
	paddb	xmm0, xmm1
	cmp	edx, 134217728
	lea	edx, [eax+864]
	movups	XMMWORD PTR [edi+432+eax], xmm0
	cmp	edx, 134217728
	movdqu	xmm1, XMMWORD PTR [esi+448+eax]
	movdqu	xmm0, XMMWORD PTR [ebx+448+eax]
	lea	edx, [eax+880]
	paddb	xmm0, xmm1
	cmp	edx, 134217728
	lea	edx, [eax+896]
	movups	XMMWORD PTR [edi+448+eax], xmm0
	cmp	edx, 134217728
	movdqu	xmm1, XMMWORD PTR [esi+464+eax]
	movdqu	xmm0, XMMWORD PTR [ebx+464+eax]
	lea	edx, [eax+912]
	paddb	xmm0, xmm1
	cmp	edx, 134217728
	lea	edx, [eax+928]
	movups	XMMWORD PTR [edi+464+eax], xmm0
	cmp	edx, 134217728
	movdqu	xmm1, XMMWORD PTR [esi+480+eax]
	movdqu	xmm0, XMMWORD PTR [ebx+480+eax]
	lea	edx, [eax+944]
	paddb	xmm0, xmm1
	cmp	edx, 134217728
	lea	edx, [eax+960]
	movups	XMMWORD PTR [edi+480+eax], xmm0
	cmp	edx, 134217728
	movdqu	xmm1, XMMWORD PTR [esi+496+eax]
	movdqu	xmm0, XMMWORD PTR [ebx+496+eax]
	lea	edx, [eax+976]
	paddb	xmm0, xmm1
	cmp	edx, 134217728
	lea	edx, [eax+992]
	movups	XMMWORD PTR [edi+496+eax], xmm0
	cmp	edx, 134217728
	movdqu	xmm1, XMMWORD PTR [esi+512+eax]
	movdqu	xmm0, XMMWORD PTR [ebx+512+eax]
	lea	edx, [eax+1008]
	paddb	xmm0, xmm1
	cmp	edx, 134217728
	lea	edx, [eax+1024]
	movups	XMMWORD PTR [edi+512+eax], xmm0
	cmp	edx, 134217728
	movdqu	xmm1, XMMWORD PTR [esi+528+eax]
	movdqu	xmm0, XMMWORD PTR [ebx+528+eax]
	lea	edx, [eax+1040]
	paddb	xmm0, xmm1
	cmp	edx, 134217728
	lea	edx, [eax+1056]
	movups	XMMWORD PTR [edi+528+eax], xmm0
	cmp	edx, 134217728
	movdqu	xmm1, XMMWORD PTR [esi+544+eax]
	movdqu	xmm0, XMMWORD PTR [ebx+544+eax]
	lea	edx, [eax+1072]
	paddb	xmm0, xmm1
	cmp	edx, 134217728
	lea	edx, [eax+1088]
	movups	XMMWORD PTR [edi+544+eax], xmm0
	cmp	edx, 134217728
	movdqu	xmm1, XMMWORD PTR [esi+560+eax]
	movdqu	xmm0, XMMWORD PTR [ebx+560+eax]
	lea	edx, [eax+1104]
	paddb	xmm0, xmm1
	cmp	edx, 134217728
	lea	edx, [eax+1120]
	movups	XMMWORD PTR [edi+560+eax], xmm0
	cmp	edx, 134217728
	movdqu	xmm1, XMMWORD PTR [esi+576+eax]
	movdqu	xmm0, XMMWORD PTR [ebx+576+eax]
	lea	edx, [eax+1136]
	paddb	xmm0, xmm1
	cmp	edx, 134217728
	lea	edx, [eax+1152]
	movups	XMMWORD PTR [edi+576+eax], xmm0
	cmp	edx, 134217728
	movdqu	xmm1, XMMWORD PTR [esi+592+eax]
	movdqu	xmm0, XMMWORD PTR [ebx+592+eax]
	lea	edx, [eax+1168]
	paddb	xmm0, xmm1
	cmp	edx, 134217728
	lea	edx, [eax+1184]
	movups	XMMWORD PTR [edi+592+eax], xmm0
	cmp	edx, 134217728
	movdqu	xmm1, XMMWORD PTR [esi+608+eax]
	movdqu	xmm0, XMMWORD PTR [ebx+608+eax]
	lea	edx, [eax+1200]
	paddb	xmm0, xmm1
	cmp	edx, 134217728
	lea	edx, [eax+1216]
	movups	XMMWORD PTR [edi+608+eax], xmm0
	cmp	edx, 134217728
	movdqu	xmm1, XMMWORD PTR [esi+624+eax]
	movdqu	xmm0, XMMWORD PTR [ebx+624+eax]
	lea	edx, [eax+1232]
	paddb	xmm0, xmm1
	cmp	edx, 134217728
	lea	edx, [eax+1248]
	movups	XMMWORD PTR [edi+624+eax], xmm0
	cmp	edx, 134217728
	movdqu	xmm1, XMMWORD PTR [esi+640+eax]
	movdqu	xmm0, XMMWORD PTR [ebx+640+eax]
	lea	edx, [eax+1264]
	paddb	xmm0, xmm1
	cmp	edx, 134217728
	lea	edx, [eax+1280]
	movups	XMMWORD PTR [edi+640+eax], xmm0
	cmp	edx, 134217728
	movdqu	xmm1, XMMWORD PTR [esi+656+eax]
	movdqu	xmm0, XMMWORD PTR [ebx+656+eax]
	lea	edx, [eax+1296]
	paddb	xmm0, xmm1
	cmp	edx, 134217728
	lea	edx, [eax+1312]
	movups	XMMWORD PTR [edi+656+eax], xmm0
	cmp	edx, 134217728
	movdqu	xmm1, XMMWORD PTR [esi+672+eax]
	movdqu	xmm0, XMMWORD PTR [ebx+672+eax]
	lea	edx, [eax+1328]
	paddb	xmm0, xmm1
	cmp	edx, 134217728
	lea	edx, [eax+1344]
	movups	XMMWORD PTR [edi+672+eax], xmm0
	cmp	edx, 134217728
	movdqu	xmm1, XMMWORD PTR [esi+688+eax]
	movdqu	xmm0, XMMWORD PTR [ebx+688+eax]
	lea	edx, [eax+1360]
	paddb	xmm0, xmm1
	cmp	edx, 134217728
	lea	edx, [eax+1376]
	movups	XMMWORD PTR [edi+688+eax], xmm0
	cmp	edx, 134217728
	movdqu	xmm1, XMMWORD PTR [esi+704+eax]
	movdqu	xmm0, XMMWORD PTR [ebx+704+eax]
	lea	edx, [eax+1392]
	paddb	xmm0, xmm1
	cmp	edx, 134217728
	lea	edx, [eax+1408]
	movups	XMMWORD PTR [edi+704+eax], xmm0
	cmp	edx, 134217728
	movdqu	xmm1, XMMWORD PTR [esi+720+eax]
	movdqu	xmm0, XMMWORD PTR [ebx+720+eax]
	lea	edx, [eax+1424]
	paddb	xmm0, xmm1
	cmp	edx, 134217728
	lea	edx, [eax+1440]
	movups	XMMWORD PTR [edi+720+eax], xmm0
	cmp	edx, 134217728
	movdqu	xmm1, XMMWORD PTR [esi+736+eax]
	movdqu	xmm0, XMMWORD PTR [ebx+736+eax]
	lea	edx, [eax+1456]
	paddb	xmm0, xmm1
	cmp	edx, 134217728
	lea	edx, [eax+1472]
	movups	XMMWORD PTR [edi+736+eax], xmm0
	cmp	edx, 134217728
	movdqu	xmm1, XMMWORD PTR [esi+752+eax]
	movdqu	xmm0, XMMWORD PTR [ebx+752+eax]
	lea	edx, [eax+1488]
	paddb	xmm0, xmm1
	cmp	edx, 134217728
	lea	edx, [eax+1504]
	movups	XMMWORD PTR [edi+752+eax], xmm0
	cmp	edx, 134217728
	movdqu	xmm1, XMMWORD PTR [esi+768+eax]
	movdqu	xmm0, XMMWORD PTR [ebx+768+eax]
	lea	edx, [eax+1520]
	paddb	xmm0, xmm1
	cmp	edx, 134217728
	lea	edx, [eax+1536]
	movups	XMMWORD PTR [edi+768+eax], xmm0
	cmp	edx, 134217728
	movdqu	xmm1, XMMWORD PTR [esi+784+eax]
	movdqu	xmm0, XMMWORD PTR [ebx+784+eax]
	lea	edx, [eax+1552]
	paddb	xmm0, xmm1
	cmp	edx, 134217728
	lea	edx, [eax+1568]
	movups	XMMWORD PTR [edi+784+eax], xmm0
	cmp	edx, 134217728
	movdqu	xmm1, XMMWORD PTR [esi+800+eax]
	movdqu	xmm0, XMMWORD PTR [ebx+800+eax]
	lea	edx, [eax+1584]
	paddb	xmm0, xmm1
	cmp	edx, 134217728
	lea	edx, [eax+1600]
	movups	XMMWORD PTR [edi+800+eax], xmm0
	cmp	edx, 134217728
	movdqu	xmm1, XMMWORD PTR [esi+816+eax]
	movdqu	xmm0, XMMWORD PTR [ebx+816+eax]
	lea	edx, [eax+1616]
	paddb	xmm0, xmm1
	cmp	edx, 134217728
	lea	edx, [eax+1632]
	movups	XMMWORD PTR [edi+816+eax], xmm0
	cmp	edx, 134217728
	movdqu	xmm1, XMMWORD PTR [esi+832+eax]
	movdqu	xmm0, XMMWORD PTR [ebx+832+eax]
	lea	edx, [eax+1648]
	paddb	xmm0, xmm1
	cmp	edx, 134217728
	lea	edx, [eax+1664]
	movups	XMMWORD PTR [edi+832+eax], xmm0
	cmp	edx, 134217728
	movdqu	xmm1, XMMWORD PTR [esi+848+eax]
	movdqu	xmm0, XMMWORD PTR [ebx+848+eax]
	lea	edx, [eax+1680]
	paddb	xmm0, xmm1
	cmp	edx, 134217728
	lea	edx, [eax+1696]
	movups	XMMWORD PTR [edi+848+eax], xmm0
	cmp	edx, 134217728
	movdqu	xmm1, XMMWORD PTR [esi+864+eax]
	movdqu	xmm0, XMMWORD PTR [ebx+864+eax]
	lea	edx, [eax+1712]
	paddb	xmm0, xmm1
	cmp	edx, 134217728
	lea	edx, [eax+1728]
	movups	XMMWORD PTR [edi+864+eax], xmm0
	cmp	edx, 134217728
	movdqu	xmm1, XMMWORD PTR [esi+880+eax]
	movdqu	xmm0, XMMWORD PTR [ebx+880+eax]
	lea	edx, [eax+1744]
	paddb	xmm0, xmm1
	cmp	edx, 134217728
	lea	edx, [eax+1760]
	movups	XMMWORD PTR [edi+880+eax], xmm0
	cmp	edx, 134217728
	movdqu	xmm1, XMMWORD PTR [esi+896+eax]
	movdqu	xmm0, XMMWORD PTR [ebx+896+eax]
	lea	edx, [eax+1776]
	paddb	xmm0, xmm1
	cmp	edx, 134217728
	lea	edx, [eax+1792]
	movups	XMMWORD PTR [edi+896+eax], xmm0
	cmp	edx, 134217728
	movdqu	xmm1, XMMWORD PTR [esi+912+eax]
	movdqu	xmm0, XMMWORD PTR [ebx+912+eax]
	lea	edx, [eax+1808]
	paddb	xmm0, xmm1
	cmp	edx, 134217728
	lea	edx, [eax+1824]
	movups	XMMWORD PTR [edi+912+eax], xmm0
	cmp	edx, 134217728
	movdqu	xmm1, XMMWORD PTR [esi+928+eax]
	movdqu	xmm0, XMMWORD PTR [ebx+928+eax]
	lea	edx, [eax+1840]
	paddb	xmm0, xmm1
	cmp	edx, 134217728
	lea	edx, [eax+1856]
	movups	XMMWORD PTR [edi+928+eax], xmm0
	cmp	edx, 134217728
	movdqu	xmm1, XMMWORD PTR [esi+944+eax]
	movdqu	xmm0, XMMWORD PTR [ebx+944+eax]
	lea	edx, [eax+1872]
	paddb	xmm0, xmm1
	cmp	edx, 134217728
	lea	edx, [eax+1888]
	movups	XMMWORD PTR [edi+944+eax], xmm0
	cmp	edx, 134217728
	movdqu	xmm1, XMMWORD PTR [esi+960+eax]
	movdqu	xmm0, XMMWORD PTR [ebx+960+eax]
	lea	edx, [eax+1904]
	paddb	xmm0, xmm1
	cmp	edx, 134217728
	lea	edx, [eax+1920]
	movups	XMMWORD PTR [edi+960+eax], xmm0
	cmp	edx, 134217728
	movdqu	xmm1, XMMWORD PTR [esi+976+eax]
	movdqu	xmm0, XMMWORD PTR [ebx+976+eax]
	lea	edx, [eax+1936]
	paddb	xmm0, xmm1
	cmp	edx, 134217728
	lea	edx, [eax+1952]
	movups	XMMWORD PTR [edi+976+eax], xmm0
	cmp	edx, 134217728
	movdqu	xmm1, XMMWORD PTR [esi+992+eax]
	movdqu	xmm0, XMMWORD PTR [ebx+992+eax]
	lea	edx, [eax+1968]
	paddb	xmm0, xmm1
	cmp	edx, 134217728
	lea	edx, [eax+1984]
	movups	XMMWORD PTR [edi+992+eax], xmm0
	cmp	edx, 134217728
	movdqu	xmm1, XMMWORD PTR [esi+1008+eax]
	movdqu	xmm0, XMMWORD PTR [ebx+1008+eax]
	lea	edx, [eax+2000]
	paddb	xmm0, xmm1
	cmp	edx, 134217728
	lea	edx, [eax+2016]
	movups	XMMWORD PTR [edi+1008+eax], xmm0
	cmp	edx, 134217728
	movdqu	xmm1, XMMWORD PTR [esi+1024+eax]
	movdqu	xmm0, XMMWORD PTR [ebx+1024+eax]
	lea	edx, [eax+2032]
	paddb	xmm0, xmm1
	cmp	edx, 134217728
	lea	edx, [eax+2048]
	movups	XMMWORD PTR [edi+1024+eax], xmm0
	cmp	edx, 134217728
	movdqu	xmm1, XMMWORD PTR [esi+1040+eax]
	movdqu	xmm0, XMMWORD PTR [ebx+1040+eax]
	lea	edx, [eax+2064]
	paddb	xmm0, xmm1
	cmp	edx, 134217728
	lea	edx, [eax+2080]
	movups	XMMWORD PTR [edi+1040+eax], xmm0
	cmp	edx, 134217728
	movdqu	xmm1, XMMWORD PTR [esi+1056+eax]
	movdqu	xmm0, XMMWORD PTR [ebx+1056+eax]
	lea	edx, [eax+2096]
	paddb	xmm0, xmm1
	cmp	edx, 134217728
	lea	edx, [eax+2112]
	movups	XMMWORD PTR [edi+1056+eax], xmm0
	cmp	edx, 134217728
	movdqu	xmm1, XMMWORD PTR [esi+1072+eax]
	movdqu	xmm0, XMMWORD PTR [ebx+1072+eax]
	lea	edx, [eax+2128]
	paddb	xmm0, xmm1
	cmp	edx, 134217728
	lea	edx, [eax+2144]
	movups	XMMWORD PTR [edi+1072+eax], xmm0
	cmp	edx, 134217728
	movdqu	xmm1, XMMWORD PTR [esi+1088+eax]
	movdqu	xmm0, XMMWORD PTR [ebx+1088+eax]
	lea	edx, [eax+2160]
	paddb	xmm0, xmm1
	cmp	edx, 134217728
	lea	edx, [eax+2176]
	movups	XMMWORD PTR [edi+1088+eax], xmm0
	cmp	edx, 134217728
	movdqu	xmm1, XMMWORD PTR [esi+1104+eax]
	movdqu	xmm0, XMMWORD PTR [ebx+1104+eax]
	lea	edx, [eax+2192]
	paddb	xmm0, xmm1
	cmp	edx, 134217728
	lea	edx, [eax+2208]
	movups	XMMWORD PTR [edi+1104+eax], xmm0
	cmp	edx, 134217728
	movdqu	xmm1, XMMWORD PTR [esi+1120+eax]
	movdqu	xmm0, XMMWORD PTR [ebx+1120+eax]
	lea	edx, [eax+2224]
	paddb	xmm0, xmm1
	cmp	edx, 134217728
	lea	edx, [eax+2240]
	movups	XMMWORD PTR [edi+1120+eax], xmm0
	cmp	edx, 134217728
	movdqu	xmm1, XMMWORD PTR [esi+1136+eax]
	movdqu	xmm0, XMMWORD PTR [ebx+1136+eax]
	lea	edx, [eax+2256]
	paddb	xmm0, xmm1
	cmp	edx, 134217728
	lea	edx, [eax+2272]
	movups	XMMWORD PTR [edi+1136+eax], xmm0
	cmp	edx, 134217728
	movdqu	xmm1, XMMWORD PTR [esi+1152+eax]
	movdqu	xmm0, XMMWORD PTR [ebx+1152+eax]
	lea	edx, [eax+2288]
	paddb	xmm0, xmm1
	cmp	edx, 134217728
	lea	edx, [eax+2304]
	movups	XMMWORD PTR [edi+1152+eax], xmm0
	cmp	edx, 134217728
	movdqu	xmm1, XMMWORD PTR [esi+1168+eax]
	movdqu	xmm0, XMMWORD PTR [ebx+1168+eax]
	lea	edx, [eax+2320]
	paddb	xmm0, xmm1
	cmp	edx, 134217728
	lea	edx, [eax+2336]
	movups	XMMWORD PTR [edi+1168+eax], xmm0
	cmp	edx, 134217728
	movdqu	xmm1, XMMWORD PTR [esi+1184+eax]
	movdqu	xmm0, XMMWORD PTR [ebx+1184+eax]
	lea	edx, [eax+2352]
	paddb	xmm0, xmm1
	cmp	edx, 134217728
	lea	edx, [eax+2368]
	movups	XMMWORD PTR [edi+1184+eax], xmm0
	cmp	edx, 134217728
	movdqu	xmm1, XMMWORD PTR [esi+1200+eax]
	movdqu	xmm0, XMMWORD PTR [ebx+1200+eax]
	lea	edx, [eax+2384]
	paddb	xmm0, xmm1
	cmp	edx, 134217728
	lea	edx, [eax+2400]
	movups	XMMWORD PTR [edi+1200+eax], xmm0
	cmp	edx, 134217728
	movdqu	xmm1, XMMWORD PTR [esi+1216+eax]
	movdqu	xmm0, XMMWORD PTR [ebx+1216+eax]
	lea	edx, [eax+2416]
	paddb	xmm0, xmm1
	cmp	edx, 134217728
	lea	edx, [eax+2432]
	movups	XMMWORD PTR [edi+1216+eax], xmm0
	cmp	edx, 134217728
	movdqu	xmm1, XMMWORD PTR [esi+1232+eax]
	movdqu	xmm0, XMMWORD PTR [ebx+1232+eax]
	lea	edx, [eax+2448]
	paddb	xmm0, xmm1
	cmp	edx, 134217728
	lea	edx, [eax+2464]
	movups	XMMWORD PTR [edi+1232+eax], xmm0
	cmp	edx, 134217728
	movdqu	xmm1, XMMWORD PTR [esi+1248+eax]
	movdqu	xmm0, XMMWORD PTR [ebx+1248+eax]
	lea	edx, [eax+2480]
	paddb	xmm0, xmm1
	cmp	edx, 134217728
	lea	edx, [eax+2496]
	movups	XMMWORD PTR [edi+1248+eax], xmm0
	cmp	edx, 134217728
	movdqu	xmm1, XMMWORD PTR [esi+1264+eax]
	movdqu	xmm0, XMMWORD PTR [ebx+1264+eax]
	lea	edx, [eax+2512]
	paddb	xmm0, xmm1
	cmp	edx, 134217728
	lea	edx, [eax+2528]
	movups	XMMWORD PTR [edi+1264+eax], xmm0
	cmp	edx, 134217728
	movdqu	xmm1, XMMWORD PTR [esi+1280+eax]
	movdqu	xmm0, XMMWORD PTR [ebx+1280+eax]
	lea	edx, [eax+2544]
	paddb	xmm0, xmm1
	cmp	edx, 134217728
	lea	edx, [eax+2560]
	movups	XMMWORD PTR [edi+1280+eax], xmm0
	cmp	edx, 134217728
	movdqu	xmm1, XMMWORD PTR [esi+1296+eax]
	movdqu	xmm0, XMMWORD PTR [ebx+1296+eax]
	lea	edx, [eax+2576]
	paddb	xmm0, xmm1
	cmp	edx, 134217728
	lea	edx, [eax+2592]
	movups	XMMWORD PTR [edi+1296+eax], xmm0
	cmp	edx, 134217728
	movdqu	xmm1, XMMWORD PTR [esi+1312+eax]
	movdqu	xmm0, XMMWORD PTR [ebx+1312+eax]
	lea	edx, [eax+2608]
	paddb	xmm0, xmm1
	cmp	edx, 134217728
	lea	edx, [eax+2624]
	movups	XMMWORD PTR [edi+1312+eax], xmm0
	cmp	edx, 134217728
	movdqu	xmm1, XMMWORD PTR [esi+1328+eax]
	movdqu	xmm0, XMMWORD PTR [ebx+1328+eax]
	lea	edx, [eax+2640]
	paddb	xmm0, xmm1
	cmp	edx, 134217728
	lea	edx, [eax+2656]
	movups	XMMWORD PTR [edi+1328+eax], xmm0
	cmp	edx, 134217728
	movdqu	xmm1, XMMWORD PTR [esi+1344+eax]
	movdqu	xmm0, XMMWORD PTR [ebx+1344+eax]
	lea	edx, [eax+2672]
	paddb	xmm0, xmm1
	cmp	edx, 134217728
	lea	edx, [eax+2688]
	movups	XMMWORD PTR [edi+1344+eax], xmm0
	cmp	edx, 134217728
	movdqu	xmm1, XMMWORD PTR [esi+1360+eax]
	movdqu	xmm0, XMMWORD PTR [ebx+1360+eax]
	lea	edx, [eax+2704]
	paddb	xmm0, xmm1
	cmp	edx, 134217728
	lea	edx, [eax+2720]
	movups	XMMWORD PTR [edi+1360+eax], xmm0
	cmp	edx, 134217728
	movdqu	xmm1, XMMWORD PTR [esi+1376+eax]
	movdqu	xmm0, XMMWORD PTR [ebx+1376+eax]
	lea	edx, [eax+2736]
	paddb	xmm0, xmm1
	cmp	edx, 134217728
	lea	edx, [eax+2752]
	movups	XMMWORD PTR [edi+1376+eax], xmm0
	cmp	edx, 134217728
	movdqu	xmm1, XMMWORD PTR [esi+1392+eax]
	movdqu	xmm0, XMMWORD PTR [ebx+1392+eax]
	lea	edx, [eax+2768]
	paddb	xmm0, xmm1
	cmp	edx, 134217728
	lea	edx, [eax+2784]
	movups	XMMWORD PTR [edi+1392+eax], xmm0
	cmp	edx, 134217728
	movdqu	xmm1, XMMWORD PTR [esi+1408+eax]
	movdqu	xmm0, XMMWORD PTR [ebx+1408+eax]
	lea	edx, [eax+2800]
	paddb	xmm0, xmm1
	cmp	edx, 134217728
	lea	edx, [eax+2816]
	movups	XMMWORD PTR [edi+1408+eax], xmm0
	cmp	edx, 134217728
	movdqu	xmm1, XMMWORD PTR [esi+1424+eax]
	movdqu	xmm0, XMMWORD PTR [ebx+1424+eax]
	lea	edx, [eax+2832]
	paddb	xmm0, xmm1
	cmp	edx, 134217728
	lea	edx, [eax+2848]
	movups	XMMWORD PTR [edi+1424+eax], xmm0
	cmp	edx, 134217728
	movdqu	xmm1, XMMWORD PTR [esi+1440+eax]
	movdqu	xmm0, XMMWORD PTR [ebx+1440+eax]
	lea	edx, [eax+2864]
	paddb	xmm0, xmm1
	cmp	edx, 134217728
	lea	edx, [eax+2880]
	movups	XMMWORD PTR [edi+1440+eax], xmm0
	cmp	edx, 134217728
	movdqu	xmm1, XMMWORD PTR [esi+1456+eax]
	movdqu	xmm0, XMMWORD PTR [ebx+1456+eax]
	lea	edx, [eax+2896]
	paddb	xmm0, xmm1
	cmp	edx, 134217728
	lea	edx, [eax+2912]
	movups	XMMWORD PTR [edi+1456+eax], xmm0
	cmp	edx, 134217728
	movdqu	xmm1, XMMWORD PTR [esi+1472+eax]
	movdqu	xmm0, XMMWORD PTR [ebx+1472+eax]
	lea	edx, [eax+2928]
	paddb	xmm0, xmm1
	cmp	edx, 134217728
	lea	edx, [eax+2944]
	movups	XMMWORD PTR [edi+1472+eax], xmm0
	cmp	edx, 134217728
	movdqu	xmm1, XMMWORD PTR [esi+1488+eax]
	movdqu	xmm0, XMMWORD PTR [ebx+1488+eax]
	lea	edx, [eax+2960]
	paddb	xmm0, xmm1
	cmp	edx, 134217728
	lea	edx, [eax+2976]
	movups	XMMWORD PTR [edi+1488+eax], xmm0
	cmp	edx, 134217728
	movdqu	xmm1, XMMWORD PTR [esi+1504+eax]
	movdqu	xmm0, XMMWORD PTR [ebx+1504+eax]
	lea	edx, [eax+2992]
	paddb	xmm0, xmm1
	cmp	edx, 134217728
	lea	edx, [eax+3008]
	movups	XMMWORD PTR [edi+1504+eax], xmm0
	cmp	edx, 134217728
	movdqu	xmm1, XMMWORD PTR [esi+1520+eax]
	movdqu	xmm0, XMMWORD PTR [ebx+1520+eax]
	lea	edx, [eax+3024]
	paddb	xmm0, xmm1
	cmp	edx, 134217728
	lea	edx, [eax+3040]
	movups	XMMWORD PTR [edi+1520+eax], xmm0
	cmp	edx, 134217728
	movdqu	xmm1, XMMWORD PTR [esi+1536+eax]
	movdqu	xmm0, XMMWORD PTR [ebx+1536+eax]
	lea	edx, [eax+3056]
	paddb	xmm0, xmm1
	cmp	edx, 134217728
	lea	edx, [eax+3072]
	movups	XMMWORD PTR [edi+1536+eax], xmm0
	cmp	edx, 134217728
	movdqu	xmm1, XMMWORD PTR [esi+1552+eax]
	movdqu	xmm0, XMMWORD PTR [ebx+1552+eax]
	lea	edx, [eax+3088]
	paddb	xmm0, xmm1
	cmp	edx, 134217728
	lea	edx, [eax+3104]
	movups	XMMWORD PTR [edi+1552+eax], xmm0
	cmp	edx, 134217728
	movdqu	xmm1, XMMWORD PTR [esi+1568+eax]
	movdqu	xmm0, XMMWORD PTR [ebx+1568+eax]
	lea	edx, [eax+3120]
	paddb	xmm0, xmm1
	cmp	edx, 134217728
	lea	edx, [eax+3136]
	movups	XMMWORD PTR [edi+1568+eax], xmm0
	cmp	edx, 134217728
	movdqu	xmm1, XMMWORD PTR [esi+1584+eax]
	movdqu	xmm0, XMMWORD PTR [ebx+1584+eax]
	lea	edx, [eax+3152]
	paddb	xmm0, xmm1
	cmp	edx, 134217728
	lea	edx, [eax+3168]
	movups	XMMWORD PTR [edi+1584+eax], xmm0
	cmp	edx, 134217728
	movdqu	xmm1, XMMWORD PTR [esi+1600+eax]
	movdqu	xmm0, XMMWORD PTR [ebx+1600+eax]
	lea	edx, [eax+3184]
	paddb	xmm0, xmm1
	cmp	edx, 134217728
	lea	edx, [eax+3200]
	movups	XMMWORD PTR [edi+1600+eax], xmm0
	cmp	edx, 134217728
	movdqu	xmm1, XMMWORD PTR [esi+1616+eax]
	movdqu	xmm0, XMMWORD PTR [ebx+1616+eax]
	lea	edx, [eax+3216]
	paddb	xmm0, xmm1
	cmp	edx, 134217728
	lea	edx, [eax+3232]
	movups	XMMWORD PTR [edi+1616+eax], xmm0
	cmp	edx, 134217728
	movdqu	xmm1, XMMWORD PTR [esi+1632+eax]
	movdqu	xmm0, XMMWORD PTR [ebx+1632+eax]
	lea	edx, [eax+3248]
	paddb	xmm0, xmm1
	cmp	edx, 134217728
	lea	edx, [eax+3264]
	movups	XMMWORD PTR [edi+1632+eax], xmm0
	cmp	edx, 134217728
	movdqu	xmm1, XMMWORD PTR [esi+1648+eax]
	movdqu	xmm0, XMMWORD PTR [ebx+1648+eax]
	lea	edx, [eax+3280]
	paddb	xmm0, xmm1
	cmp	edx, 134217728
	lea	edx, [eax+3296]
	movups	XMMWORD PTR [edi+1648+eax], xmm0
	cmp	edx, 134217728
	movdqu	xmm1, XMMWORD PTR [esi+1664+eax]
	movdqu	xmm0, XMMWORD PTR [ebx+1664+eax]
	lea	edx, [eax+3312]
	paddb	xmm0, xmm1
	cmp	edx, 134217728
	lea	edx, [eax+3328]
	movups	XMMWORD PTR [edi+1664+eax], xmm0
	cmp	edx, 134217728
	movdqu	xmm1, XMMWORD PTR [esi+1680+eax]
	movdqu	xmm0, XMMWORD PTR [ebx+1680+eax]
	lea	edx, [eax+3344]
	paddb	xmm0, xmm1
	cmp	edx, 134217728
	lea	edx, [eax+3360]
	movups	XMMWORD PTR [edi+1680+eax], xmm0
	cmp	edx, 134217728
	movdqu	xmm1, XMMWORD PTR [esi+1696+eax]
	movdqu	xmm0, XMMWORD PTR [ebx+1696+eax]
	lea	edx, [eax+3376]
	paddb	xmm0, xmm1
	cmp	edx, 134217728
	lea	edx, [eax+3392]
	movups	XMMWORD PTR [edi+1696+eax], xmm0
	cmp	edx, 134217728
	movdqu	xmm1, XMMWORD PTR [esi+1712+eax]
	movdqu	xmm0, XMMWORD PTR [ebx+1712+eax]
	lea	edx, [eax+3408]
	paddb	xmm0, xmm1
	cmp	edx, 134217728
	lea	edx, [eax+3424]
	movups	XMMWORD PTR [edi+1712+eax], xmm0
	cmp	edx, 134217728
	movdqu	xmm1, XMMWORD PTR [esi+1728+eax]
	movdqu	xmm0, XMMWORD PTR [ebx+1728+eax]
	lea	edx, [eax+3440]
	paddb	xmm0, xmm1
	cmp	edx, 134217728
	lea	edx, [eax+3456]
	movups	XMMWORD PTR [edi+1728+eax], xmm0
	cmp	edx, 134217728
	movdqu	xmm1, XMMWORD PTR [esi+1744+eax]
	movdqu	xmm0, XMMWORD PTR [ebx+1744+eax]
	lea	edx, [eax+3472]
	paddb	xmm0, xmm1
	cmp	edx, 134217728
	lea	edx, [eax+3488]
	movups	XMMWORD PTR [edi+1744+eax], xmm0
	cmp	edx, 134217728
	movdqu	xmm1, XMMWORD PTR [esi+1760+eax]
	movdqu	xmm0, XMMWORD PTR [ebx+1760+eax]
	lea	edx, [eax+3504]
	paddb	xmm0, xmm1
	cmp	edx, 134217728
	lea	edx, [eax+3520]
	movups	XMMWORD PTR [edi+1760+eax], xmm0
	cmp	edx, 134217728
	movdqu	xmm1, XMMWORD PTR [esi+1776+eax]
	movdqu	xmm0, XMMWORD PTR [ebx+1776+eax]
	lea	edx, [eax+3536]
	paddb	xmm0, xmm1
	cmp	edx, 134217728
	lea	edx, [eax+3552]
	movups	XMMWORD PTR [edi+1776+eax], xmm0
	cmp	edx, 134217728
	movdqu	xmm1, XMMWORD PTR [esi+1792+eax]
	movdqu	xmm0, XMMWORD PTR [ebx+1792+eax]
	lea	edx, [eax+3568]
	paddb	xmm0, xmm1
	cmp	edx, 134217728
	lea	edx, [eax+3584]
	movups	XMMWORD PTR [edi+1792+eax], xmm0
	cmp	edx, 134217728
	movdqu	xmm1, XMMWORD PTR [esi+1808+eax]
	movdqu	xmm0, XMMWORD PTR [ebx+1808+eax]
	lea	edx, [eax+3600]
	paddb	xmm0, xmm1
	cmp	edx, 134217728
	lea	edx, [eax+3616]
	movups	XMMWORD PTR [edi+1808+eax], xmm0
	cmp	edx, 134217728
	movdqu	xmm1, XMMWORD PTR [esi+1824+eax]
	movdqu	xmm0, XMMWORD PTR [ebx+1824+eax]
	lea	edx, [eax+3632]
	paddb	xmm0, xmm1
	cmp	edx, 134217728
	lea	edx, [eax+3648]
	movups	XMMWORD PTR [edi+1824+eax], xmm0
	cmp	edx, 134217728
	movdqu	xmm1, XMMWORD PTR [esi+1840+eax]
	movdqu	xmm0, XMMWORD PTR [ebx+1840+eax]
	lea	edx, [eax+3664]
	paddb	xmm0, xmm1
	cmp	edx, 134217728
	lea	edx, [eax+3680]
	movups	XMMWORD PTR [edi+1840+eax], xmm0
	cmp	edx, 134217728
	movdqu	xmm1, XMMWORD PTR [esi+1856+eax]
	movdqu	xmm0, XMMWORD PTR [ebx+1856+eax]
	lea	edx, [eax+3696]
	paddb	xmm0, xmm1
	cmp	edx, 134217728
	lea	edx, [eax+3712]
	movups	XMMWORD PTR [edi+1856+eax], xmm0
	cmp	edx, 134217728
	movdqu	xmm1, XMMWORD PTR [esi+1872+eax]
	movdqu	xmm0, XMMWORD PTR [ebx+1872+eax]
	lea	edx, [eax+3728]
	paddb	xmm0, xmm1
	cmp	edx, 134217728
	lea	edx, [eax+3744]
	movups	XMMWORD PTR [edi+1872+eax], xmm0
	cmp	edx, 134217728
	movdqu	xmm1, XMMWORD PTR [esi+1888+eax]
	movdqu	xmm0, XMMWORD PTR [ebx+1888+eax]
	lea	edx, [eax+3760]
	paddb	xmm0, xmm1
	cmp	edx, 134217728
	lea	edx, [eax+3776]
	movups	XMMWORD PTR [edi+1888+eax], xmm0
	cmp	edx, 134217728
	movdqu	xmm1, XMMWORD PTR [esi+1904+eax]
	movdqu	xmm0, XMMWORD PTR [ebx+1904+eax]
	lea	edx, [eax+3792]
	paddb	xmm0, xmm1
	cmp	edx, 134217728
	lea	edx, [eax+3808]
	movups	XMMWORD PTR [edi+1904+eax], xmm0
	cmp	edx, 134217728
	movdqu	xmm1, XMMWORD PTR [esi+1920+eax]
	movdqu	xmm0, XMMWORD PTR [ebx+1920+eax]
	lea	edx, [eax+3824]
	paddb	xmm0, xmm1
	cmp	edx, 134217728
	lea	edx, [eax+3840]
	movups	XMMWORD PTR [edi+1920+eax], xmm0
	cmp	edx, 134217728
	movdqu	xmm1, XMMWORD PTR [esi+1936+eax]
	movdqu	xmm0, XMMWORD PTR [ebx+1936+eax]
	lea	edx, [eax+3856]
	paddb	xmm0, xmm1
	cmp	edx, 134217728
	lea	edx, [eax+3872]
	movups	XMMWORD PTR [edi+1936+eax], xmm0
	cmp	edx, 134217728
	movdqu	xmm1, XMMWORD PTR [esi+1952+eax]
	movdqu	xmm0, XMMWORD PTR [ebx+1952+eax]
	lea	edx, [eax+3888]
	paddb	xmm0, xmm1
	cmp	edx, 134217728
	lea	edx, [eax+3904]
	movups	XMMWORD PTR [edi+1952+eax], xmm0
	cmp	edx, 134217728
	movdqu	xmm1, XMMWORD PTR [esi+1968+eax]
	movdqu	xmm0, XMMWORD PTR [ebx+1968+eax]
	lea	edx, [eax+3920]
	paddb	xmm0, xmm1
	cmp	edx, 134217728
	lea	edx, [eax+3936]
	movups	XMMWORD PTR [edi+1968+eax], xmm0
	cmp	edx, 134217728
	movdqu	xmm1, XMMWORD PTR [esi+1984+eax]
	movdqu	xmm0, XMMWORD PTR [ebx+1984+eax]
	lea	edx, [eax+3952]
	paddb	xmm0, xmm1
	cmp	edx, 134217728
	lea	edx, [eax+3968]
	movups	XMMWORD PTR [edi+1984+eax], xmm0
	cmp	edx, 134217728
	movdqu	xmm1, XMMWORD PTR [esi+2000+eax]
	movdqu	xmm0, XMMWORD PTR [ebx+2000+eax]
	lea	edx, [eax+3984]
	paddb	xmm0, xmm1
	cmp	edx, 134217728
	lea	edx, [eax+4000]
	movups	XMMWORD PTR [edi+2000+eax], xmm0
	cmp	edx, 134217728
	movdqu	xmm1, XMMWORD PTR [esi+2016+eax]
	movdqu	xmm0, XMMWORD PTR [ebx+2016+eax]
	lea	edx, [eax+4016]
	paddb	xmm0, xmm1
	cmp	edx, 134217728
	lea	edx, [eax+4032]
	movups	XMMWORD PTR [edi+2016+eax], xmm0
	cmp	edx, 134217728
	movdqu	xmm1, XMMWORD PTR [esi+2032+eax]
	movdqu	xmm0, XMMWORD PTR [ebx+2032+eax]
	lea	edx, [eax+4048]
	paddb	xmm0, xmm1
	cmp	edx, 134217728
	lea	edx, [eax+4064]
	movups	XMMWORD PTR [edi+2032+eax], xmm0
	cmp	edx, 134217728
	movdqu	xmm1, XMMWORD PTR [esi+2048+eax]
	movdqu	xmm0, XMMWORD PTR [ebx+2048+eax]
	lea	edx, [eax+4080]
	paddb	xmm0, xmm1
	cmp	edx, 134217728
	lea	edx, [eax+4096]
	movups	XMMWORD PTR [edi+2048+eax], xmm0
	cmp	edx, 134217728
	movdqu	xmm1, XMMWORD PTR [esi+2064+eax]
	movdqu	xmm0, XMMWORD PTR [ebx+2064+eax]
	lea	edx, [eax+4112]
	paddb	xmm0, xmm1
	cmp	edx, 134217728
	lea	edx, [eax+4128]
	movups	XMMWORD PTR [edi+2064+eax], xmm0
	cmp	edx, 134217728
	movdqu	xmm1, XMMWORD PTR [esi+2080+eax]
	movdqu	xmm0, XMMWORD PTR [ebx+2080+eax]
	lea	edx, [eax+4144]
	paddb	xmm0, xmm1
	cmp	edx, 134217728
	lea	edx, [eax+4160]
	movups	XMMWORD PTR [edi+2080+eax], xmm0
	cmp	edx, 134217728
	movdqu	xmm1, XMMWORD PTR [esi+2096+eax]
	movdqu	xmm0, XMMWORD PTR [ebx+2096+eax]
	lea	edx, [eax+4176]
	paddb	xmm0, xmm1
	cmp	edx, 134217728
	lea	edx, [eax+4192]
	movups	XMMWORD PTR [edi+2096+eax], xmm0
	cmp	edx, 134217728
	movdqu	xmm1, XMMWORD PTR [esi+2112+eax]
	movdqu	xmm0, XMMWORD PTR [ebx+2112+eax]
	lea	edx, [eax+4208]
	paddb	xmm0, xmm1
	cmp	edx, 134217728
	lea	edx, [eax+4224]
	movups	XMMWORD PTR [edi+2112+eax], xmm0
	cmp	edx, 134217728
	movdqu	xmm1, XMMWORD PTR [esi+2128+eax]
	movdqu	xmm0, XMMWORD PTR [ebx+2128+eax]
	lea	edx, [eax+4240]
	paddb	xmm0, xmm1
	cmp	edx, 134217728
	lea	edx, [eax+4256]
	movups	XMMWORD PTR [edi+2128+eax], xmm0
	cmp	edx, 134217728
	movdqu	xmm1, XMMWORD PTR [esi+2144+eax]
	movdqu	xmm0, XMMWORD PTR [ebx+2144+eax]
	lea	edx, [eax+4272]
	paddb	xmm0, xmm1
	cmp	edx, 134217728
	lea	edx, [eax+4288]
	movups	XMMWORD PTR [edi+2144+eax], xmm0
	cmp	edx, 134217728
	movdqu	xmm1, XMMWORD PTR [esi+2160+eax]
	movdqu	xmm0, XMMWORD PTR [ebx+2160+eax]
	lea	edx, [eax+4304]
	paddb	xmm0, xmm1
	cmp	edx, 134217728
	lea	edx, [eax+4320]
	movups	XMMWORD PTR [edi+2160+eax], xmm0
	cmp	edx, 134217728
	movdqu	xmm1, XMMWORD PTR [esi+2176+eax]
	movdqu	xmm0, XMMWORD PTR [ebx+2176+eax]
	lea	edx, [eax+4336]
	paddb	xmm0, xmm1
	cmp	edx, 134217728
	lea	edx, [eax+4352]
	movups	XMMWORD PTR [edi+2176+eax], xmm0
	cmp	edx, 134217728
	movdqu	xmm1, XMMWORD PTR [esi+2192+eax]
	movdqu	xmm0, XMMWORD PTR [ebx+2192+eax]
	lea	edx, [eax+4368]
	paddb	xmm0, xmm1
	cmp	edx, 134217728
	lea	edx, [eax+4384]
	movups	XMMWORD PTR [edi+2192+eax], xmm0
	cmp	edx, 134217728
	movdqu	xmm1, XMMWORD PTR [esi+2208+eax]
	movdqu	xmm0, XMMWORD PTR [ebx+2208+eax]
	lea	edx, [eax+4400]
	paddb	xmm0, xmm1
	cmp	edx, 134217728
	lea	edx, [eax+4416]
	movups	XMMWORD PTR [edi+2208+eax], xmm0
	cmp	edx, 134217728
	movdqu	xmm1, XMMWORD PTR [esi+2224+eax]
	movdqu	xmm0, XMMWORD PTR [ebx+2224+eax]
	lea	edx, [eax+4432]
	paddb	xmm0, xmm1
	cmp	edx, 134217728
	lea	edx, [eax+4448]
	movups	XMMWORD PTR [edi+2224+eax], xmm0
	cmp	edx, 134217728
	movdqu	xmm1, XMMWORD PTR [esi+2240+eax]
	movdqu	xmm0, XMMWORD PTR [ebx+2240+eax]
	lea	edx, [eax+4464]
	paddb	xmm0, xmm1
	cmp	edx, 134217728
	lea	edx, [eax+4480]
	movups	XMMWORD PTR [edi+2240+eax], xmm0
	cmp	edx, 134217728
	movdqu	xmm1, XMMWORD PTR [esi+2256+eax]
	movdqu	xmm0, XMMWORD PTR [ebx+2256+eax]
	lea	edx, [eax+4496]
	paddb	xmm0, xmm1
	cmp	edx, 134217728
	lea	edx, [eax+4512]
	movups	XMMWORD PTR [edi+2256+eax], xmm0
	cmp	edx, 134217728
	movdqu	xmm1, XMMWORD PTR [esi+2272+eax]
	movdqu	xmm0, XMMWORD PTR [ebx+2272+eax]
	lea	edx, [eax+4528]
	paddb	xmm0, xmm1
	cmp	edx, 134217728
	lea	edx, [eax+4544]
	movups	XMMWORD PTR [edi+2272+eax], xmm0
	cmp	edx, 134217728
	movdqu	xmm1, XMMWORD PTR [esi+2288+eax]
	movdqu	xmm0, XMMWORD PTR [ebx+2288+eax]
	lea	edx, [eax+4560]
	paddb	xmm0, xmm1
	cmp	edx, 134217728
	lea	edx, [eax+4576]
	movups	XMMWORD PTR [edi+2288+eax], xmm0
	cmp	edx, 134217728
	movdqu	xmm1, XMMWORD PTR [esi+2304+eax]
	movdqu	xmm0, XMMWORD PTR [ebx+2304+eax]
	lea	edx, [eax+4592]
	paddb	xmm0, xmm1
	cmp	edx, 134217728
	lea	edx, [eax+4608]
	movups	XMMWORD PTR [edi+2304+eax], xmm0
	cmp	edx, 134217728
	movdqu	xmm1, XMMWORD PTR [esi+2320+eax]
	movdqu	xmm0, XMMWORD PTR [ebx+2320+eax]
	lea	edx, [eax+4624]
	paddb	xmm0, xmm1
	cmp	edx, 134217728
	lea	edx, [eax+4640]
	movups	XMMWORD PTR [edi+2320+eax], xmm0
	cmp	edx, 134217728
	movdqu	xmm1, XMMWORD PTR [esi+2336+eax]
	movdqu	xmm0, XMMWORD PTR [ebx+2336+eax]
	lea	edx, [eax+4656]
	paddb	xmm0, xmm1
	cmp	edx, 134217728
	lea	edx, [eax+4672]
	movups	XMMWORD PTR [edi+2336+eax], xmm0
	cmp	edx, 134217728
	movdqu	xmm1, XMMWORD PTR [esi+2352+eax]
	movdqu	xmm0, XMMWORD PTR [ebx+2352+eax]
	lea	edx, [eax+4688]
	paddb	xmm0, xmm1
	cmp	edx, 134217728
	lea	edx, [eax+4704]
	movups	XMMWORD PTR [edi+2352+eax], xmm0
	cmp	edx, 134217728
	movdqu	xmm1, XMMWORD PTR [esi+2368+eax]
	movdqu	xmm0, XMMWORD PTR [ebx+2368+eax]
	lea	edx, [eax+4720]
	paddb	xmm0, xmm1
	cmp	edx, 134217728
	lea	edx, [eax+4736]
	movups	XMMWORD PTR [edi+2368+eax], xmm0
	cmp	edx, 134217728
	movdqu	xmm1, XMMWORD PTR [esi+2384+eax]
	movdqu	xmm0, XMMWORD PTR [ebx+2384+eax]
	lea	edx, [eax+4752]
	paddb	xmm0, xmm1
	cmp	edx, 134217728
	lea	edx, [eax+4768]
	movups	XMMWORD PTR [edi+2384+eax], xmm0
	cmp	edx, 134217728
	movdqu	xmm1, XMMWORD PTR [esi+2400+eax]
	movdqu	xmm0, XMMWORD PTR [ebx+2400+eax]
	lea	edx, [eax+4784]
	paddb	xmm0, xmm1
	cmp	edx, 134217728
	lea	edx, [eax+4800]
	movups	XMMWORD PTR [edi+2400+eax], xmm0
	cmp	edx, 134217728
	movdqu	xmm1, XMMWORD PTR [esi+2416+eax]
	movdqu	xmm0, XMMWORD PTR [ebx+2416+eax]
	lea	edx, [eax+4816]
	paddb	xmm0, xmm1
	cmp	edx, 134217728
	lea	edx, [eax+4832]
	movups	XMMWORD PTR [edi+2416+eax], xmm0
	cmp	edx, 134217728
	movdqu	xmm1, XMMWORD PTR [esi+2432+eax]
	movdqu	xmm0, XMMWORD PTR [ebx+2432+eax]
	lea	edx, [eax+4848]
	paddb	xmm0, xmm1
	cmp	edx, 134217728
	lea	edx, [eax+4864]
	movups	XMMWORD PTR [edi+2432+eax], xmm0
	cmp	edx, 134217728
	movdqu	xmm1, XMMWORD PTR [esi+2448+eax]
	movdqu	xmm0, XMMWORD PTR [ebx+2448+eax]
	lea	edx, [eax+4880]
	paddb	xmm0, xmm1
	cmp	edx, 134217728
	lea	edx, [eax+4896]
	movups	XMMWORD PTR [edi+2448+eax], xmm0
	cmp	edx, 134217728
	movdqu	xmm1, XMMWORD PTR [esi+2464+eax]
	movdqu	xmm0, XMMWORD PTR [ebx+2464+eax]
	lea	edx, [eax+4912]
	paddb	xmm0, xmm1
	cmp	edx, 134217728
	lea	edx, [eax+4928]
	movups	XMMWORD PTR [edi+2464+eax], xmm0
	cmp	edx, 134217728
	movdqu	xmm1, XMMWORD PTR [esi+2480+eax]
	movdqu	xmm0, XMMWORD PTR [ebx+2480+eax]
	lea	edx, [eax+4944]
	paddb	xmm0, xmm1
	cmp	edx, 134217728
	lea	edx, [eax+4960]
	movups	XMMWORD PTR [edi+2480+eax], xmm0
	cmp	edx, 134217728
	movdqu	xmm1, XMMWORD PTR [esi+2496+eax]
	movdqu	xmm0, XMMWORD PTR [ebx+2496+eax]
	lea	edx, [eax+4976]
	paddb	xmm0, xmm1
	cmp	edx, 134217728
	lea	edx, [eax+4992]
	movups	XMMWORD PTR [edi+2496+eax], xmm0
	cmp	edx, 134217728
	movdqu	xmm1, XMMWORD PTR [esi+2512+eax]
	movdqu	xmm0, XMMWORD PTR [ebx+2512+eax]
	lea	edx, [eax+5008]
	paddb	xmm0, xmm1
	cmp	edx, 134217728
	lea	edx, [eax+5024]
	movups	XMMWORD PTR [edi+2512+eax], xmm0
	cmp	edx, 134217728
	movdqu	xmm1, XMMWORD PTR [esi+2528+eax]
	movdqu	xmm0, XMMWORD PTR [ebx+2528+eax]
	lea	edx, [eax+5040]
	paddb	xmm0, xmm1
	cmp	edx, 134217728
	lea	edx, [eax+5056]
	movups	XMMWORD PTR [edi+2528+eax], xmm0
	cmp	edx, 134217728
	movdqu	xmm1, XMMWORD PTR [esi+2544+eax]
	movdqu	xmm0, XMMWORD PTR [ebx+2544+eax]
	lea	edx, [eax+5072]
	paddb	xmm0, xmm1
	cmp	edx, 134217728
	lea	edx, [eax+5088]
	movups	XMMWORD PTR [edi+2544+eax], xmm0
	cmp	edx, 134217728
	movdqu	xmm1, XMMWORD PTR [esi+2560+eax]
	movdqu	xmm0, XMMWORD PTR [ebx+2560+eax]
	lea	edx, [eax+5104]
	paddb	xmm0, xmm1
	cmp	edx, 134217728
	lea	edx, [eax+5120]
	movups	XMMWORD PTR [edi+2560+eax], xmm0
	cmp	edx, 134217728
	movdqu	xmm1, XMMWORD PTR [esi+2576+eax]
	movdqu	xmm0, XMMWORD PTR [ebx+2576+eax]
	lea	edx, [eax+5136]
	paddb	xmm0, xmm1
	cmp	edx, 134217728
	lea	edx, [eax+5152]
	movups	XMMWORD PTR [edi+2576+eax], xmm0
	cmp	edx, 134217728
	movdqu	xmm1, XMMWORD PTR [esi+2592+eax]
	movdqu	xmm0, XMMWORD PTR [ebx+2592+eax]
	lea	edx, [eax+5168]
	paddb	xmm0, xmm1
	cmp	edx, 134217728
	lea	edx, [eax+5184]
	movups	XMMWORD PTR [edi+2592+eax], xmm0
	cmp	edx, 134217728
	movdqu	xmm1, XMMWORD PTR [esi+2608+eax]
	movdqu	xmm0, XMMWORD PTR [ebx+2608+eax]
	lea	edx, [eax+5200]
	paddb	xmm0, xmm1
	cmp	edx, 134217728
	lea	edx, [eax+5216]
	movups	XMMWORD PTR [edi+2608+eax], xmm0
	cmp	edx, 134217728
	movdqu	xmm1, XMMWORD PTR [esi+2624+eax]
	movdqu	xmm0, XMMWORD PTR [ebx+2624+eax]
	lea	edx, [eax+5232]
	paddb	xmm0, xmm1
	cmp	edx, 134217728
	lea	edx, [eax+5248]
	movups	XMMWORD PTR [edi+2624+eax], xmm0
	cmp	edx, 134217728
	movdqu	xmm1, XMMWORD PTR [esi+2640+eax]
	movdqu	xmm0, XMMWORD PTR [ebx+2640+eax]
	lea	edx, [eax+5264]
	paddb	xmm0, xmm1
	cmp	edx, 134217728
	lea	edx, [eax+5280]
	movups	XMMWORD PTR [edi+2640+eax], xmm0
	cmp	edx, 134217728
	movdqu	xmm1, XMMWORD PTR [esi+2656+eax]
	movdqu	xmm0, XMMWORD PTR [ebx+2656+eax]
	lea	edx, [eax+5296]
	paddb	xmm0, xmm1
	cmp	edx, 134217728
	lea	edx, [eax+5312]
	movups	XMMWORD PTR [edi+2656+eax], xmm0
	cmp	edx, 134217728
	movdqu	xmm1, XMMWORD PTR [esi+2672+eax]
	movdqu	xmm0, XMMWORD PTR [ebx+2672+eax]
	lea	edx, [eax+5328]
	paddb	xmm0, xmm1
	cmp	edx, 134217728
	lea	edx, [eax+5344]
	movups	XMMWORD PTR [edi+2672+eax], xmm0
	cmp	edx, 134217728
	movdqu	xmm1, XMMWORD PTR [esi+2688+eax]
	movdqu	xmm0, XMMWORD PTR [ebx+2688+eax]
	lea	edx, [eax+5360]
	paddb	xmm0, xmm1
	cmp	edx, 134217728
	lea	edx, [eax+5376]
	movups	XMMWORD PTR [edi+2688+eax], xmm0
	cmp	edx, 134217728
	movdqu	xmm1, XMMWORD PTR [esi+2704+eax]
	movdqu	xmm0, XMMWORD PTR [ebx+2704+eax]
	lea	edx, [eax+5392]
	paddb	xmm0, xmm1
	cmp	edx, 134217728
	lea	edx, [eax+5408]
	movups	XMMWORD PTR [edi+2704+eax], xmm0
	cmp	edx, 134217728
	movdqu	xmm1, XMMWORD PTR [esi+2720+eax]
	movdqu	xmm0, XMMWORD PTR [ebx+2720+eax]
	lea	edx, [eax+5424]
	paddb	xmm0, xmm1
	cmp	edx, 134217728
	lea	edx, [eax+5440]
	movups	XMMWORD PTR [edi+2720+eax], xmm0
	cmp	edx, 134217728
	movdqu	xmm1, XMMWORD PTR [esi+2736+eax]
	movdqu	xmm0, XMMWORD PTR [ebx+2736+eax]
	lea	edx, [eax+5456]
	paddb	xmm0, xmm1
	cmp	edx, 134217728
	lea	edx, [eax+5472]
	movups	XMMWORD PTR [edi+2736+eax], xmm0
	cmp	edx, 134217728
	movdqu	xmm1, XMMWORD PTR [esi+2752+eax]
	movdqu	xmm0, XMMWORD PTR [ebx+2752+eax]
	lea	edx, [eax+5488]
	paddb	xmm0, xmm1
	cmp	edx, 134217728
	lea	edx, [eax+5504]
	movups	XMMWORD PTR [edi+2752+eax], xmm0
	cmp	edx, 134217728
	movdqu	xmm1, XMMWORD PTR [esi+2768+eax]
	movdqu	xmm0, XMMWORD PTR [ebx+2768+eax]
	lea	edx, [eax+5520]
	paddb	xmm0, xmm1
	cmp	edx, 134217728
	lea	edx, [eax+5536]
	movups	XMMWORD PTR [edi+2768+eax], xmm0
	cmp	edx, 134217728
	movdqu	xmm1, XMMWORD PTR [esi+2784+eax]
	movdqu	xmm0, XMMWORD PTR [ebx+2784+eax]
	lea	edx, [eax+5552]
	paddb	xmm0, xmm1
	cmp	edx, 134217728
	lea	edx, [eax+5568]
	movups	XMMWORD PTR [edi+2784+eax], xmm0
	cmp	edx, 134217728
	movdqu	xmm1, XMMWORD PTR [esi+2800+eax]
	movdqu	xmm0, XMMWORD PTR [ebx+2800+eax]
	lea	edx, [eax+5584]
	paddb	xmm0, xmm1
	cmp	edx, 134217728
	lea	edx, [eax+5600]
	movups	XMMWORD PTR [edi+2800+eax], xmm0
	cmp	edx, 134217728
	movdqu	xmm1, XMMWORD PTR [esi+2816+eax]
	movdqu	xmm0, XMMWORD PTR [ebx+2816+eax]
	lea	edx, [eax+5616]
	paddb	xmm0, xmm1
	cmp	edx, 134217728
	lea	edx, [eax+5632]
	movups	XMMWORD PTR [edi+2816+eax], xmm0
	cmp	edx, 134217728
	movdqu	xmm1, XMMWORD PTR [esi+2832+eax]
	movdqu	xmm0, XMMWORD PTR [ebx+2832+eax]
	lea	edx, [eax+5648]
	paddb	xmm0, xmm1
	cmp	edx, 134217728
	lea	edx, [eax+5664]
	movups	XMMWORD PTR [edi+2832+eax], xmm0
	cmp	edx, 134217728
	movdqu	xmm1, XMMWORD PTR [esi+2848+eax]
	movdqu	xmm0, XMMWORD PTR [ebx+2848+eax]
	lea	edx, [eax+5680]
	paddb	xmm0, xmm1
	cmp	edx, 134217728
	lea	edx, [eax+5696]
	movups	XMMWORD PTR [edi+2848+eax], xmm0
	cmp	edx, 134217728
	movdqu	xmm1, XMMWORD PTR [esi+2864+eax]
	movdqu	xmm0, XMMWORD PTR [ebx+2864+eax]
	lea	edx, [eax+5712]
	paddb	xmm0, xmm1
	cmp	edx, 134217728
	lea	edx, [eax+5728]
	movups	XMMWORD PTR [edi+2864+eax], xmm0
	cmp	edx, 134217728
	movdqu	xmm1, XMMWORD PTR [esi+2880+eax]
	movdqu	xmm0, XMMWORD PTR [ebx+2880+eax]
	lea	edx, [eax+5744]
	paddb	xmm0, xmm1
	cmp	edx, 134217728
	lea	edx, [eax+5760]
	movups	XMMWORD PTR [edi+2880+eax], xmm0
	cmp	edx, 134217728
	movdqu	xmm1, XMMWORD PTR [esi+2896+eax]
	movdqu	xmm0, XMMWORD PTR [ebx+2896+eax]
	lea	edx, [eax+5776]
	paddb	xmm0, xmm1
	cmp	edx, 134217728
	lea	edx, [eax+5792]
	movups	XMMWORD PTR [edi+2896+eax], xmm0
	cmp	edx, 134217728
	movdqu	xmm1, XMMWORD PTR [esi+2912+eax]
	movdqu	xmm0, XMMWORD PTR [ebx+2912+eax]
	lea	edx, [eax+5808]
	paddb	xmm0, xmm1
	cmp	edx, 134217728
	lea	edx, [eax+5824]
	movups	XMMWORD PTR [edi+2912+eax], xmm0
	cmp	edx, 134217728
	movdqu	xmm1, XMMWORD PTR [esi+2928+eax]
	movdqu	xmm0, XMMWORD PTR [ebx+2928+eax]
	lea	edx, [eax+5840]
	paddb	xmm0, xmm1
	cmp	edx, 134217728
	lea	edx, [eax+5856]
	movups	XMMWORD PTR [edi+2928+eax], xmm0
	cmp	edx, 134217728
	movdqu	xmm1, XMMWORD PTR [esi+2944+eax]
	movdqu	xmm0, XMMWORD PTR [ebx+2944+eax]
	lea	edx, [eax+5872]
	paddb	xmm0, xmm1
	cmp	edx, 134217728
	lea	edx, [eax+5888]
	movups	XMMWORD PTR [edi+2944+eax], xmm0
	cmp	edx, 134217728
	movdqu	xmm1, XMMWORD PTR [esi+2960+eax]
	movdqu	xmm0, XMMWORD PTR [ebx+2960+eax]
	lea	edx, [eax+5904]
	paddb	xmm0, xmm1
	cmp	edx, 134217728
	lea	edx, [eax+5920]
	movups	XMMWORD PTR [edi+2960+eax], xmm0
	cmp	edx, 134217728
	movdqu	xmm1, XMMWORD PTR [esi+2976+eax]
	movdqu	xmm0, XMMWORD PTR [ebx+2976+eax]
	lea	edx, [eax+5936]
	paddb	xmm0, xmm1
	cmp	edx, 134217728
	lea	edx, [eax+5952]
	movups	XMMWORD PTR [edi+2976+eax], xmm0
	cmp	edx, 134217728
	movdqu	xmm1, XMMWORD PTR [esi+2992+eax]
	movdqu	xmm0, XMMWORD PTR [ebx+2992+eax]
	lea	edx, [eax+5968]
	paddb	xmm0, xmm1
	cmp	edx, 134217728
	lea	edx, [eax+5984]
	movups	XMMWORD PTR [edi+2992+eax], xmm0
	cmp	edx, 134217728
	movdqu	xmm1, XMMWORD PTR [esi+3008+eax]
	movdqu	xmm0, XMMWORD PTR [ebx+3008+eax]
	lea	edx, [eax+6000]
	paddb	xmm0, xmm1
	cmp	edx, 134217728
	lea	edx, [eax+6016]
	movups	XMMWORD PTR [edi+3008+eax], xmm0
	cmp	edx, 134217728
	movdqu	xmm1, XMMWORD PTR [esi+3024+eax]
	movdqu	xmm0, XMMWORD PTR [ebx+3024+eax]
	lea	edx, [eax+6032]
	paddb	xmm0, xmm1
	cmp	edx, 134217728
	lea	edx, [eax+6048]
	movups	XMMWORD PTR [edi+3024+eax], xmm0
	cmp	edx, 134217728
	movdqu	xmm1, XMMWORD PTR [esi+3040+eax]
	movdqu	xmm0, XMMWORD PTR [ebx+3040+eax]
	lea	edx, [eax+6064]
	paddb	xmm0, xmm1
	cmp	edx, 134217728
	lea	edx, [eax+6080]
	movups	XMMWORD PTR [edi+3040+eax], xmm0
	cmp	edx, 134217728
	movdqu	xmm1, XMMWORD PTR [esi+3056+eax]
	movdqu	xmm0, XMMWORD PTR [ebx+3056+eax]
	lea	edx, [eax+6096]
	paddb	xmm0, xmm1
	cmp	edx, 134217728
	lea	edx, [eax+6112]
	movups	XMMWORD PTR [edi+3056+eax], xmm0
	cmp	edx, 134217728
	movdqu	xmm1, XMMWORD PTR [esi+3072+eax]
	movdqu	xmm0, XMMWORD PTR [ebx+3072+eax]
	lea	edx, [eax+6128]
	paddb	xmm0, xmm1
	cmp	edx, 134217728
	lea	edx, [eax+6144]
	movups	XMMWORD PTR [edi+3072+eax], xmm0
	cmp	edx, 134217728
	movdqu	xmm1, XMMWORD PTR [esi+3088+eax]
	movdqu	xmm0, XMMWORD PTR [ebx+3088+eax]
	lea	edx, [eax+6160]
	paddb	xmm0, xmm1
	cmp	edx, 134217728
	lea	edx, [eax+6176]
	movups	XMMWORD PTR [edi+3088+eax], xmm0
	cmp	edx, 134217728
	movdqu	xmm1, XMMWORD PTR [esi+3104+eax]
	movdqu	xmm0, XMMWORD PTR [ebx+3104+eax]
	lea	edx, [eax+6192]
	paddb	xmm0, xmm1
	cmp	edx, 134217728
	lea	edx, [eax+6208]
	movups	XMMWORD PTR [edi+3104+eax], xmm0
	cmp	edx, 134217728
	movdqu	xmm1, XMMWORD PTR [esi+3120+eax]
	movdqu	xmm0, XMMWORD PTR [ebx+3120+eax]
	lea	edx, [eax+6224]
	paddb	xmm0, xmm1
	cmp	edx, 134217728
	lea	edx, [eax+6240]
	movups	XMMWORD PTR [edi+3120+eax], xmm0
	cmp	edx, 134217728
	movdqu	xmm1, XMMWORD PTR [esi+3136+eax]
	movdqu	xmm0, XMMWORD PTR [ebx+3136+eax]
	lea	edx, [eax+6256]
	paddb	xmm0, xmm1
	cmp	edx, 134217728
	lea	edx, [eax+6272]
	movups	XMMWORD PTR [edi+3136+eax], xmm0
	cmp	edx, 134217728
	movdqu	xmm1, XMMWORD PTR [esi+3152+eax]
	movdqu	xmm0, XMMWORD PTR [ebx+3152+eax]
	lea	edx, [eax+6288]
	paddb	xmm0, xmm1
	cmp	edx, 134217728
	lea	edx, [eax+6304]
	movups	XMMWORD PTR [edi+3152+eax], xmm0
	cmp	edx, 134217728
	movdqu	xmm1, XMMWORD PTR [esi+3168+eax]
	movdqu	xmm0, XMMWORD PTR [ebx+3168+eax]
	lea	edx, [eax+6320]
	paddb	xmm0, xmm1
	cmp	edx, 134217728
	lea	edx, [eax+6336]
	movups	XMMWORD PTR [edi+3168+eax], xmm0
	cmp	edx, 134217728
	movdqu	xmm1, XMMWORD PTR [esi+3184+eax]
	movdqu	xmm0, XMMWORD PTR [ebx+3184+eax]
	lea	edx, [eax+6352]
	paddb	xmm0, xmm1
	cmp	edx, 134217728
	lea	edx, [eax+6368]
	movups	XMMWORD PTR [edi+3184+eax], xmm0
	cmp	edx, 134217728
	movdqu	xmm1, XMMWORD PTR [esi+3200+eax]
	movdqu	xmm0, XMMWORD PTR [ebx+3200+eax]
	lea	edx, [eax+6384]
	paddb	xmm0, xmm1
	cmp	edx, 134217728
	lea	edx, [eax+6400]
	movups	XMMWORD PTR [edi+3200+eax], xmm0
	cmp	edx, 134217728
	movdqu	xmm1, XMMWORD PTR [esi+3216+eax]
	movdqu	xmm0, XMMWORD PTR [ebx+3216+eax]
	lea	edx, [eax+6416]
	paddb	xmm0, xmm1
	cmp	edx, 134217728
	lea	edx, [eax+6432]
	movups	XMMWORD PTR [edi+3216+eax], xmm0
	cmp	edx, 134217728
	movdqu	xmm1, XMMWORD PTR [esi+3232+eax]
	movdqu	xmm0, XMMWORD PTR [ebx+3232+eax]
	lea	edx, [eax+6448]
	paddb	xmm0, xmm1
	cmp	edx, 134217728
	lea	edx, [eax+6464]
	movups	XMMWORD PTR [edi+3232+eax], xmm0
	cmp	edx, 134217728
	movdqu	xmm1, XMMWORD PTR [esi+3248+eax]
	movdqu	xmm0, XMMWORD PTR [ebx+3248+eax]
	lea	edx, [eax+6480]
	paddb	xmm0, xmm1
	cmp	edx, 134217728
	lea	edx, [eax+6496]
	movups	XMMWORD PTR [edi+3248+eax], xmm0
	cmp	edx, 134217728
	movdqu	xmm1, XMMWORD PTR [esi+3264+eax]
	movdqu	xmm0, XMMWORD PTR [ebx+3264+eax]
	lea	edx, [eax+6512]
	paddb	xmm0, xmm1
	cmp	edx, 134217728
	lea	edx, [eax+6528]
	movups	XMMWORD PTR [edi+3264+eax], xmm0
	cmp	edx, 134217728
	movdqu	xmm1, XMMWORD PTR [esi+3280+eax]
	movdqu	xmm0, XMMWORD PTR [ebx+3280+eax]
	lea	edx, [eax+6544]
	paddb	xmm0, xmm1
	cmp	edx, 134217728
	lea	edx, [eax+6560]
	movups	XMMWORD PTR [edi+3280+eax], xmm0
	cmp	edx, 134217728
	movdqu	xmm1, XMMWORD PTR [esi+3296+eax]
	movdqu	xmm0, XMMWORD PTR [ebx+3296+eax]
	lea	edx, [eax+6576]
	paddb	xmm0, xmm1
	cmp	edx, 134217728
	lea	edx, [eax+6592]
	movups	XMMWORD PTR [edi+3296+eax], xmm0
	cmp	edx, 134217728
	movdqu	xmm1, XMMWORD PTR [esi+3312+eax]
	movdqu	xmm0, XMMWORD PTR [ebx+3312+eax]
	lea	edx, [eax+6608]
	paddb	xmm0, xmm1
	cmp	edx, 134217728
	lea	edx, [eax+6624]
	movups	XMMWORD PTR [edi+3312+eax], xmm0
	cmp	edx, 134217728
	movdqu	xmm1, XMMWORD PTR [esi+3328+eax]
	movdqu	xmm0, XMMWORD PTR [ebx+3328+eax]
	lea	edx, [eax+6640]
	paddb	xmm0, xmm1
	cmp	edx, 134217728
	lea	edx, [eax+6656]
	movups	XMMWORD PTR [edi+3328+eax], xmm0
	cmp	edx, 134217728
	movdqu	xmm1, XMMWORD PTR [esi+3344+eax]
	movdqu	xmm0, XMMWORD PTR [ebx+3344+eax]
	lea	edx, [eax+6672]
	paddb	xmm0, xmm1
	cmp	edx, 134217728
	lea	edx, [eax+6688]
	movups	XMMWORD PTR [edi+3344+eax], xmm0
	cmp	edx, 134217728
	movdqu	xmm1, XMMWORD PTR [esi+3360+eax]
	movdqu	xmm0, XMMWORD PTR [ebx+3360+eax]
	lea	edx, [eax+6704]
	paddb	xmm0, xmm1
	cmp	edx, 134217728
	lea	edx, [eax+6720]
	movups	XMMWORD PTR [edi+3360+eax], xmm0
	cmp	edx, 134217728
	movdqu	xmm1, XMMWORD PTR [esi+3376+eax]
	movdqu	xmm0, XMMWORD PTR [ebx+3376+eax]
	lea	edx, [eax+6736]
	paddb	xmm0, xmm1
	cmp	edx, 134217728
	lea	edx, [eax+6752]
	movups	XMMWORD PTR [edi+3376+eax], xmm0
	cmp	edx, 134217728
	movdqu	xmm1, XMMWORD PTR [esi+3392+eax]
	movdqu	xmm0, XMMWORD PTR [ebx+3392+eax]
	lea	edx, [eax+6768]
	paddb	xmm0, xmm1
	cmp	edx, 134217728
	lea	edx, [eax+6784]
	movups	XMMWORD PTR [edi+3392+eax], xmm0
	cmp	edx, 134217728
	movdqu	xmm1, XMMWORD PTR [esi+3408+eax]
	movdqu	xmm0, XMMWORD PTR [ebx+3408+eax]
	lea	edx, [eax+6800]
	paddb	xmm0, xmm1
	cmp	edx, 134217728
	lea	edx, [eax+6816]
	movups	XMMWORD PTR [edi+3408+eax], xmm0
	cmp	edx, 134217728
	movdqu	xmm1, XMMWORD PTR [esi+3424+eax]
	movdqu	xmm0, XMMWORD PTR [ebx+3424+eax]
	lea	edx, [eax+6832]
	paddb	xmm0, xmm1
	cmp	edx, 134217728
	lea	edx, [eax+6848]
	movups	XMMWORD PTR [edi+3424+eax], xmm0
	cmp	edx, 134217728
	movdqu	xmm1, XMMWORD PTR [esi+3440+eax]
	movdqu	xmm0, XMMWORD PTR [ebx+3440+eax]
	lea	edx, [eax+6864]
	paddb	xmm0, xmm1
	cmp	edx, 134217728
	lea	edx, [eax+6880]
	movups	XMMWORD PTR [edi+3440+eax], xmm0
	cmp	edx, 134217728
	movdqu	xmm1, XMMWORD PTR [esi+3456+eax]
	movdqu	xmm0, XMMWORD PTR [ebx+3456+eax]
	lea	edx, [eax+6896]
	paddb	xmm0, xmm1
	cmp	edx, 134217728
	lea	edx, [eax+6912]
	movups	XMMWORD PTR [edi+3456+eax], xmm0
	cmp	edx, 134217728
	movdqu	xmm1, XMMWORD PTR [esi+3472+eax]
	movdqu	xmm0, XMMWORD PTR [ebx+3472+eax]
	lea	edx, [eax+6928]
	paddb	xmm0, xmm1
	cmp	edx, 134217728
	lea	edx, [eax+6944]
	movups	XMMWORD PTR [edi+3472+eax], xmm0
	cmp	edx, 134217728
	movdqu	xmm1, XMMWORD PTR [esi+3488+eax]
	movdqu	xmm0, XMMWORD PTR [ebx+3488+eax]
	lea	edx, [eax+6960]
	paddb	xmm0, xmm1
	cmp	edx, 134217728
	lea	edx, [eax+6976]
	movups	XMMWORD PTR [edi+3488+eax], xmm0
	cmp	edx, 134217728
	movdqu	xmm1, XMMWORD PTR [esi+3504+eax]
	movdqu	xmm0, XMMWORD PTR [ebx+3504+eax]
	lea	edx, [eax+6992]
	paddb	xmm0, xmm1
	cmp	edx, 134217728
	lea	edx, [eax+7008]
	movups	XMMWORD PTR [edi+3504+eax], xmm0
	cmp	edx, 134217728
	movdqu	xmm1, XMMWORD PTR [esi+3520+eax]
	movdqu	xmm0, XMMWORD PTR [ebx+3520+eax]
	lea	edx, [eax+7024]
	paddb	xmm0, xmm1
	cmp	edx, 134217728
	lea	edx, [eax+7040]
	movups	XMMWORD PTR [edi+3520+eax], xmm0
	cmp	edx, 134217728
	movdqu	xmm1, XMMWORD PTR [esi+3536+eax]
	movdqu	xmm0, XMMWORD PTR [ebx+3536+eax]
	lea	edx, [eax+7056]
	paddb	xmm0, xmm1
	cmp	edx, 134217728
	lea	edx, [eax+7072]
	movups	XMMWORD PTR [edi+3536+eax], xmm0
	cmp	edx, 134217728
	movdqu	xmm1, XMMWORD PTR [esi+3552+eax]
	movdqu	xmm0, XMMWORD PTR [ebx+3552+eax]
	lea	edx, [eax+7088]
	paddb	xmm0, xmm1
	cmp	edx, 134217728
	lea	edx, [eax+7104]
	movups	XMMWORD PTR [edi+3552+eax], xmm0
	cmp	edx, 134217728
	movdqu	xmm1, XMMWORD PTR [esi+3568+eax]
	movdqu	xmm0, XMMWORD PTR [ebx+3568+eax]
	lea	edx, [eax+7120]
	paddb	xmm0, xmm1
	cmp	edx, 134217728
	lea	edx, [eax+7136]
	movups	XMMWORD PTR [edi+3568+eax], xmm0
	cmp	edx, 134217728
	movdqu	xmm1, XMMWORD PTR [esi+3584+eax]
	movdqu	xmm0, XMMWORD PTR [ebx+3584+eax]
	lea	edx, [eax+7152]
	paddb	xmm0, xmm1
	cmp	edx, 134217728
	lea	edx, [eax+7168]
	movups	XMMWORD PTR [edi+3584+eax], xmm0
	cmp	edx, 134217728
	movdqu	xmm1, XMMWORD PTR [esi+3600+eax]
	movdqu	xmm0, XMMWORD PTR [ebx+3600+eax]
	lea	edx, [eax+7184]
	paddb	xmm0, xmm1
	cmp	edx, 134217728
	lea	edx, [eax+7200]
	movups	XMMWORD PTR [edi+3600+eax], xmm0
	cmp	edx, 134217728
	movdqu	xmm1, XMMWORD PTR [esi+3616+eax]
	movdqu	xmm0, XMMWORD PTR [ebx+3616+eax]
	lea	edx, [eax+7216]
	paddb	xmm0, xmm1
	cmp	edx, 134217728
	lea	edx, [eax+7232]
	movups	XMMWORD PTR [edi+3616+eax], xmm0
	cmp	edx, 134217728
	movdqu	xmm1, XMMWORD PTR [esi+3632+eax]
	movdqu	xmm0, XMMWORD PTR [ebx+3632+eax]
	lea	edx, [eax+7248]
	paddb	xmm0, xmm1
	cmp	edx, 134217728
	lea	edx, [eax+7264]
	movups	XMMWORD PTR [edi+3632+eax], xmm0
	cmp	edx, 134217728
	movdqu	xmm1, XMMWORD PTR [esi+3648+eax]
	movdqu	xmm0, XMMWORD PTR [ebx+3648+eax]
	lea	edx, [eax+7280]
	paddb	xmm0, xmm1
	cmp	edx, 134217728
	lea	edx, [eax+7296]
	movups	XMMWORD PTR [edi+3648+eax], xmm0
	cmp	edx, 134217728
	movdqu	xmm1, XMMWORD PTR [esi+3664+eax]
	movdqu	xmm0, XMMWORD PTR [ebx+3664+eax]
	lea	edx, [eax+7312]
	paddb	xmm0, xmm1
	cmp	edx, 134217728
	lea	edx, [eax+7328]
	movups	XMMWORD PTR [edi+3664+eax], xmm0
	cmp	edx, 134217728
	movdqu	xmm1, XMMWORD PTR [esi+3680+eax]
	movdqu	xmm0, XMMWORD PTR [ebx+3680+eax]
	lea	edx, [eax+7344]
	paddb	xmm0, xmm1
	cmp	edx, 134217728
	lea	edx, [eax+7360]
	movups	XMMWORD PTR [edi+3680+eax], xmm0
	cmp	edx, 134217728
	movdqu	xmm1, XMMWORD PTR [esi+3696+eax]
	movdqu	xmm0, XMMWORD PTR [ebx+3696+eax]
	lea	edx, [eax+7376]
	paddb	xmm0, xmm1
	cmp	edx, 134217728
	lea	edx, [eax+7392]
	movups	XMMWORD PTR [edi+3696+eax], xmm0
	cmp	edx, 134217728
	movdqu	xmm1, XMMWORD PTR [esi+3712+eax]
	movdqu	xmm0, XMMWORD PTR [ebx+3712+eax]
	lea	edx, [eax+7408]
	paddb	xmm0, xmm1
	cmp	edx, 134217728
	lea	edx, [eax+7424]
	movups	XMMWORD PTR [edi+3712+eax], xmm0
	cmp	edx, 134217728
	movdqu	xmm1, XMMWORD PTR [esi+3728+eax]
	movdqu	xmm0, XMMWORD PTR [ebx+3728+eax]
	lea	edx, [eax+7440]
	paddb	xmm0, xmm1
	cmp	edx, 134217728
	lea	edx, [eax+7456]
	movups	XMMWORD PTR [edi+3728+eax], xmm0
	cmp	edx, 134217728
	movdqu	xmm1, XMMWORD PTR [esi+3744+eax]
	movdqu	xmm0, XMMWORD PTR [ebx+3744+eax]
	lea	edx, [eax+7472]
	paddb	xmm0, xmm1
	cmp	edx, 134217728
	lea	edx, [eax+7488]
	movups	XMMWORD PTR [edi+3744+eax], xmm0
	cmp	edx, 134217728
	movdqu	xmm1, XMMWORD PTR [esi+3760+eax]
	movdqu	xmm0, XMMWORD PTR [ebx+3760+eax]
	lea	edx, [eax+7504]
	paddb	xmm0, xmm1
	cmp	edx, 134217728
	lea	edx, [eax+7520]
	movups	XMMWORD PTR [edi+3760+eax], xmm0
	cmp	edx, 134217728
	movdqu	xmm1, XMMWORD PTR [esi+3776+eax]
	movdqu	xmm0, XMMWORD PTR [ebx+3776+eax]
	lea	edx, [eax+7536]
	paddb	xmm0, xmm1
	cmp	edx, 134217728
	lea	edx, [eax+7552]
	movups	XMMWORD PTR [edi+3776+eax], xmm0
	cmp	edx, 134217728
	movdqu	xmm1, XMMWORD PTR [esi+3792+eax]
	movdqu	xmm0, XMMWORD PTR [ebx+3792+eax]
	lea	edx, [eax+7568]
	paddb	xmm0, xmm1
	cmp	edx, 134217728
	lea	edx, [eax+7584]
	movups	XMMWORD PTR [edi+3792+eax], xmm0
	cmp	edx, 134217728
	movdqu	xmm1, XMMWORD PTR [esi+3808+eax]
	movdqu	xmm0, XMMWORD PTR [ebx+3808+eax]
	lea	edx, [eax+7600]
	paddb	xmm0, xmm1
	cmp	edx, 134217728
	lea	edx, [eax+7616]
	movups	XMMWORD PTR [edi+3808+eax], xmm0
	cmp	edx, 134217728
	movdqu	xmm1, XMMWORD PTR [esi+3824+eax]
	movdqu	xmm0, XMMWORD PTR [ebx+3824+eax]
	lea	edx, [eax+7632]
	paddb	xmm0, xmm1
	cmp	edx, 134217728
	lea	edx, [eax+7648]
	movups	XMMWORD PTR [edi+3824+eax], xmm0
	cmp	edx, 134217728
	movdqu	xmm1, XMMWORD PTR [esi+3840+eax]
	movdqu	xmm0, XMMWORD PTR [ebx+3840+eax]
	lea	edx, [eax+7664]
	paddb	xmm0, xmm1
	cmp	edx, 134217728
	lea	edx, [eax+7680]
	movups	XMMWORD PTR [edi+3840+eax], xmm0
	cmp	edx, 134217728
	movdqu	xmm1, XMMWORD PTR [esi+3856+eax]
	movdqu	xmm0, XMMWORD PTR [ebx+3856+eax]
	lea	edx, [eax+7696]
	paddb	xmm0, xmm1
	cmp	edx, 134217728
	lea	edx, [eax+7712]
	movups	XMMWORD PTR [edi+3856+eax], xmm0
	cmp	edx, 134217728
	movdqu	xmm1, XMMWORD PTR [esi+3872+eax]
	movdqu	xmm0, XMMWORD PTR [ebx+3872+eax]
	lea	edx, [eax+7728]
	paddb	xmm0, xmm1
	cmp	edx, 134217728
	lea	edx, [eax+7744]
	movups	XMMWORD PTR [edi+3872+eax], xmm0
	cmp	edx, 134217728
	movdqu	xmm1, XMMWORD PTR [esi+3888+eax]
	movdqu	xmm0, XMMWORD PTR [ebx+3888+eax]
	lea	edx, [eax+7760]
	paddb	xmm0, xmm1
	cmp	edx, 134217728
	lea	edx, [eax+7776]
	movups	XMMWORD PTR [edi+3888+eax], xmm0
	cmp	edx, 134217728
	movdqu	xmm1, XMMWORD PTR [esi+3904+eax]
	movdqu	xmm0, XMMWORD PTR [ebx+3904+eax]
	lea	edx, [eax+7792]
	paddb	xmm0, xmm1
	cmp	edx, 134217728
	lea	edx, [eax+7808]
	movups	XMMWORD PTR [edi+3904+eax], xmm0
	cmp	edx, 134217728
	movdqu	xmm1, XMMWORD PTR [esi+3920+eax]
	movdqu	xmm0, XMMWORD PTR [ebx+3920+eax]
	lea	edx, [eax+7824]
	paddb	xmm0, xmm1
	cmp	edx, 134217728
	lea	edx, [eax+7840]
	movups	XMMWORD PTR [edi+3920+eax], xmm0
	cmp	edx, 134217728
	movdqu	xmm1, XMMWORD PTR [esi+3936+eax]
	movdqu	xmm0, XMMWORD PTR [ebx+3936+eax]
	lea	edx, [eax+7856]
	paddb	xmm0, xmm1
	cmp	edx, 134217728
	lea	edx, [eax+7872]
	movups	XMMWORD PTR [edi+3936+eax], xmm0
	cmp	edx, 134217728
	movdqu	xmm1, XMMWORD PTR [esi+3952+eax]
	movdqu	xmm0, XMMWORD PTR [ebx+3952+eax]
	lea	edx, [eax+7888]
	paddb	xmm0, xmm1
	cmp	edx, 134217728
	lea	edx, [eax+7904]
	movups	XMMWORD PTR [edi+3952+eax], xmm0
	cmp	edx, 134217728
	movdqu	xmm1, XMMWORD PTR [esi+3968+eax]
	movdqu	xmm0, XMMWORD PTR [ebx+3968+eax]
	lea	edx, [eax+7920]
	paddb	xmm0, xmm1
	cmp	edx, 134217728
	lea	edx, [eax+7936]
	movups	XMMWORD PTR [edi+3968+eax], xmm0
	cmp	edx, 134217728
	movdqu	xmm1, XMMWORD PTR [esi+3984+eax]
	movdqu	xmm0, XMMWORD PTR [ebx+3984+eax]
	lea	edx, [eax+7952]
	paddb	xmm0, xmm1
	cmp	edx, 134217728
	lea	edx, [eax+7968]
	movups	XMMWORD PTR [edi+3984+eax], xmm0
	cmp	edx, 134217728
	movdqu	xmm1, XMMWORD PTR [esi+4000+eax]
	movdqu	xmm0, XMMWORD PTR [ebx+4000+eax]
	lea	edx, [eax+7984]
	paddb	xmm0, xmm1
	cmp	edx, 134217728
	lea	edx, [eax+8000]
	movups	XMMWORD PTR [edi+4000+eax], xmm0
	cmp	edx, 134217728
	movdqu	xmm1, XMMWORD PTR [esi+4016+eax]
	movdqu	xmm0, XMMWORD PTR [ebx+4016+eax]
	lea	edx, [eax+8016]
	paddb	xmm0, xmm1
	cmp	edx, 134217728
	lea	edx, [eax+8032]
	movups	XMMWORD PTR [edi+4016+eax], xmm0
	cmp	edx, 134217728
	movdqu	xmm1, XMMWORD PTR [esi+4032+eax]
	movdqu	xmm0, XMMWORD PTR [ebx+4032+eax]
	lea	edx, [eax+8048]
	paddb	xmm0, xmm1
	cmp	edx, 134217728
	lea	edx, [eax+8064]
	movups	XMMWORD PTR [edi+4032+eax], xmm0
	cmp	edx, 134217728
	movdqu	xmm1, XMMWORD PTR [esi+4048+eax]
	movdqu	xmm0, XMMWORD PTR [ebx+4048+eax]
	lea	edx, [eax+8080]
	paddb	xmm0, xmm1
	cmp	edx, 134217728
	lea	edx, [eax+8096]
	movups	XMMWORD PTR [edi+4048+eax], xmm0
	cmp	edx, 134217728
	movdqu	xmm1, XMMWORD PTR [esi+4064+eax]
	movdqu	xmm0, XMMWORD PTR [ebx+4064+eax]
	lea	edx, [eax+8112]
	paddb	xmm0, xmm1
	cmp	edx, 134217728
	lea	edx, [eax+8128]
	movups	XMMWORD PTR [edi+4064+eax], xmm0
	cmp	edx, 134217728
	movdqu	xmm1, XMMWORD PTR [esi+4080+eax]
	movdqu	xmm0, XMMWORD PTR [ebx+4080+eax]
	lea	edx, [eax+8144]
	paddb	xmm0, xmm1
	cmp	edx, 134217728
	lea	edx, [eax+8160]
	movups	XMMWORD PTR [edi+4080+eax], xmm0
	cmp	edx, 134217728
	movdqu	xmm1, XMMWORD PTR [esi+4096+eax]
	movdqu	xmm0, XMMWORD PTR [ebx+4096+eax]
	lea	edx, [eax+8176]
	paddb	xmm0, xmm1
	cmp	edx, 134217728
	lea	edx, [eax+8192]
	movups	XMMWORD PTR [edi+4096+eax], xmm0
	cmp	edx, 134217728
	movdqu	xmm1, XMMWORD PTR [esi+4112+eax]
	movdqu	xmm0, XMMWORD PTR [ebx+4112+eax]
	lea	edx, [eax+8208]
	paddb	xmm0, xmm1
	cmp	edx, 134217728
	lea	edx, [eax+8224]
	movups	XMMWORD PTR [edi+4112+eax], xmm0
	cmp	edx, 134217728
	movdqu	xmm1, XMMWORD PTR [esi+4128+eax]
	movdqu	xmm0, XMMWORD PTR [ebx+4128+eax]
	lea	edx, [eax+8240]
	paddb	xmm0, xmm1
	cmp	edx, 134217728
	lea	edx, [eax+8256]
	movups	XMMWORD PTR [edi+4128+eax], xmm0
	cmp	edx, 134217728
	movdqu	xmm1, XMMWORD PTR [esi+4144+eax]
	movdqu	xmm0, XMMWORD PTR [ebx+4144+eax]
	lea	edx, [eax+8272]
	paddb	xmm0, xmm1
	cmp	edx, 134217728
	lea	edx, [eax+8288]
	movups	XMMWORD PTR [edi+4144+eax], xmm0
	cmp	edx, 134217728
	movdqu	xmm1, XMMWORD PTR [esi+4160+eax]
	movdqu	xmm0, XMMWORD PTR [ebx+4160+eax]
	lea	edx, [eax+8304]
	paddb	xmm0, xmm1
	cmp	edx, 134217728
	lea	edx, [eax+8320]
	movups	XMMWORD PTR [edi+4160+eax], xmm0
	cmp	edx, 134217728
	movdqu	xmm1, XMMWORD PTR [esi+4176+eax]
	movdqu	xmm0, XMMWORD PTR [ebx+4176+eax]
	lea	edx, [eax+8336]
	paddb	xmm0, xmm1
	cmp	edx, 134217728
	lea	edx, [eax+8352]
	movups	XMMWORD PTR [edi+4176+eax], xmm0
	cmp	edx, 134217728
	movdqu	xmm1, XMMWORD PTR [esi+4192+eax]
	movdqu	xmm0, XMMWORD PTR [ebx+4192+eax]
	lea	edx, [eax+8368]
	paddb	xmm0, xmm1
	cmp	edx, 134217728
	lea	edx, [eax+8384]
	movups	XMMWORD PTR [edi+4192+eax], xmm0
	cmp	edx, 134217728
	movdqu	xmm1, XMMWORD PTR [esi+4208+eax]
	movdqu	xmm0, XMMWORD PTR [ebx+4208+eax]
	lea	edx, [eax+8400]
	paddb	xmm0, xmm1
	cmp	edx, 134217728
	lea	edx, [eax+8416]
	movups	XMMWORD PTR [edi+4208+eax], xmm0
	cmp	edx, 134217728
	movdqu	xmm1, XMMWORD PTR [esi+4224+eax]
	movdqu	xmm0, XMMWORD PTR [ebx+4224+eax]
	lea	edx, [eax+8432]
	paddb	xmm0, xmm1
	cmp	edx, 134217728
	lea	edx, [eax+8448]
	movups	XMMWORD PTR [edi+4224+eax], xmm0
	cmp	edx, 134217728
	movdqu	xmm1, XMMWORD PTR [esi+4240+eax]
	movdqu	xmm0, XMMWORD PTR [ebx+4240+eax]
	lea	edx, [eax+8464]
	paddb	xmm0, xmm1
	cmp	edx, 134217728
	lea	edx, [eax+8480]
	movups	XMMWORD PTR [edi+4240+eax], xmm0
	cmp	edx, 134217728
	movdqu	xmm1, XMMWORD PTR [esi+4256+eax]
	movdqu	xmm0, XMMWORD PTR [ebx+4256+eax]
	lea	edx, [eax+8496]
	paddb	xmm0, xmm1
	cmp	edx, 134217728
	lea	edx, [eax+8512]
	movups	XMMWORD PTR [edi+4256+eax], xmm0
	cmp	edx, 134217728
	movdqu	xmm1, XMMWORD PTR [esi+4272+eax]
	movdqu	xmm0, XMMWORD PTR [ebx+4272+eax]
	lea	edx, [eax+8528]
	paddb	xmm0, xmm1
	cmp	edx, 134217728
	lea	edx, [eax+8544]
	movups	XMMWORD PTR [edi+4272+eax], xmm0
	cmp	edx, 134217728
	movdqu	xmm1, XMMWORD PTR [esi+4288+eax]
	movdqu	xmm0, XMMWORD PTR [ebx+4288+eax]
	lea	edx, [eax+8560]
	paddb	xmm0, xmm1
	cmp	edx, 134217728
	lea	edx, [eax+8576]
	movups	XMMWORD PTR [edi+4288+eax], xmm0
	cmp	edx, 134217728
	movdqu	xmm1, XMMWORD PTR [esi+4304+eax]
	movdqu	xmm0, XMMWORD PTR [ebx+4304+eax]
	lea	edx, [eax+8592]
	paddb	xmm0, xmm1
	cmp	edx, 134217728
	lea	edx, [eax+8608]
	movups	XMMWORD PTR [edi+4304+eax], xmm0
	cmp	edx, 134217728
	movdqu	xmm1, XMMWORD PTR [esi+4320+eax]
	movdqu	xmm0, XMMWORD PTR [ebx+4320+eax]
	lea	edx, [eax+8624]
	paddb	xmm0, xmm1
	cmp	edx, 134217728
	lea	edx, [eax+8640]
	movups	XMMWORD PTR [edi+4320+eax], xmm0
	cmp	edx, 134217728
	movdqu	xmm1, XMMWORD PTR [esi+4336+eax]
	movdqu	xmm0, XMMWORD PTR [ebx+4336+eax]
	lea	edx, [eax+8656]
	paddb	xmm0, xmm1
	cmp	edx, 134217728
	lea	edx, [eax+8672]
	movups	XMMWORD PTR [edi+4336+eax], xmm0
	cmp	edx, 134217728
	movdqu	xmm1, XMMWORD PTR [esi+4352+eax]
	movdqu	xmm0, XMMWORD PTR [ebx+4352+eax]
	lea	edx, [eax+8688]
	paddb	xmm0, xmm1
	cmp	edx, 134217728
	lea	edx, [eax+8704]
	movups	XMMWORD PTR [edi+4352+eax], xmm0
	cmp	edx, 134217728
	movdqu	xmm1, XMMWORD PTR [esi+4368+eax]
	movdqu	xmm0, XMMWORD PTR [ebx+4368+eax]
	lea	edx, [eax+8720]
	paddb	xmm0, xmm1
	cmp	edx, 134217728
	lea	edx, [eax+8736]
	movups	XMMWORD PTR [edi+4368+eax], xmm0
	cmp	edx, 134217728
	movdqu	xmm1, XMMWORD PTR [esi+4384+eax]
	movdqu	xmm0, XMMWORD PTR [ebx+4384+eax]
	lea	edx, [eax+8752]
	paddb	xmm0, xmm1
	cmp	edx, 134217728
	lea	edx, [eax+8768]
	movups	XMMWORD PTR [edi+4384+eax], xmm0
	cmp	edx, 134217728
	movdqu	xmm1, XMMWORD PTR [esi+4400+eax]
	movdqu	xmm0, XMMWORD PTR [ebx+4400+eax]
	lea	edx, [eax+8784]
	paddb	xmm0, xmm1
	cmp	edx, 134217728
	lea	edx, [eax+8800]
	movups	XMMWORD PTR [edi+4400+eax], xmm0
	cmp	edx, 134217728
	movdqu	xmm1, XMMWORD PTR [esi+4416+eax]
	movdqu	xmm0, XMMWORD PTR [ebx+4416+eax]
	lea	edx, [eax+8816]
	paddb	xmm0, xmm1
	cmp	edx, 134217728
	lea	edx, [eax+8832]
	movups	XMMWORD PTR [edi+4416+eax], xmm0
	cmp	edx, 134217728
	movdqu	xmm1, XMMWORD PTR [esi+4432+eax]
	movdqu	xmm0, XMMWORD PTR [ebx+4432+eax]
	lea	edx, [eax+8848]
	paddb	xmm0, xmm1
	cmp	edx, 134217728
	lea	edx, [eax+8864]
	movups	XMMWORD PTR [edi+4432+eax], xmm0
	cmp	edx, 134217728
	movdqu	xmm1, XMMWORD PTR [esi+4448+eax]
	movdqu	xmm0, XMMWORD PTR [ebx+4448+eax]
	lea	edx, [eax+8880]
	paddb	xmm0, xmm1
	cmp	edx, 134217728
	lea	edx, [eax+8896]
	movups	XMMWORD PTR [edi+4448+eax], xmm0
	cmp	edx, 134217728
	movdqu	xmm1, XMMWORD PTR [esi+4464+eax]
	movdqu	xmm0, XMMWORD PTR [ebx+4464+eax]
	lea	edx, [eax+8912]
	paddb	xmm0, xmm1
	cmp	edx, 134217728
	lea	edx, [eax+8928]
	movups	XMMWORD PTR [edi+4464+eax], xmm0
	cmp	edx, 134217728
	movdqu	xmm1, XMMWORD PTR [esi+4480+eax]
	movdqu	xmm0, XMMWORD PTR [ebx+4480+eax]
	lea	edx, [eax+8944]
	paddb	xmm0, xmm1
	cmp	edx, 134217728
	lea	edx, [eax+8960]
	movups	XMMWORD PTR [edi+4480+eax], xmm0
	cmp	edx, 134217728
	movdqu	xmm1, XMMWORD PTR [esi+4496+eax]
	movdqu	xmm0, XMMWORD PTR [ebx+4496+eax]
	lea	edx, [eax+8976]
	paddb	xmm0, xmm1
	cmp	edx, 134217728
	lea	edx, [eax+8992]
	movups	XMMWORD PTR [edi+4496+eax], xmm0
	cmp	edx, 134217728
	movdqu	xmm1, XMMWORD PTR [esi+4512+eax]
	movdqu	xmm0, XMMWORD PTR [ebx+4512+eax]
	lea	edx, [eax+9008]
	paddb	xmm0, xmm1
	cmp	edx, 134217728
	lea	edx, [eax+9024]
	movups	XMMWORD PTR [edi+4512+eax], xmm0
	cmp	edx, 134217728
	movdqu	xmm1, XMMWORD PTR [esi+4528+eax]
	movdqu	xmm0, XMMWORD PTR [ebx+4528+eax]
	lea	edx, [eax+9040]
	paddb	xmm0, xmm1
	cmp	edx, 134217728
	lea	edx, [eax+9056]
	movups	XMMWORD PTR [edi+4528+eax], xmm0
	cmp	edx, 134217728
	movdqu	xmm1, XMMWORD PTR [esi+4544+eax]
	movdqu	xmm0, XMMWORD PTR [ebx+4544+eax]
	lea	edx, [eax+9072]
	paddb	xmm0, xmm1
	cmp	edx, 134217728
	lea	edx, [eax+9088]
	movups	XMMWORD PTR [edi+4544+eax], xmm0
	cmp	edx, 134217728
	movdqu	xmm1, XMMWORD PTR [esi+4560+eax]
	movdqu	xmm0, XMMWORD PTR [ebx+4560+eax]
	lea	edx, [eax+9104]
	paddb	xmm0, xmm1
	cmp	edx, 134217728
	lea	edx, [eax+9120]
	movups	XMMWORD PTR [edi+4560+eax], xmm0
	cmp	edx, 134217728
	movdqu	xmm1, XMMWORD PTR [esi+4576+eax]
	movdqu	xmm0, XMMWORD PTR [ebx+4576+eax]
	lea	edx, [eax+9136]
	paddb	xmm0, xmm1
	cmp	edx, 134217728
	lea	edx, [eax+9152]
	movups	XMMWORD PTR [edi+4576+eax], xmm0
	cmp	edx, 134217728
	movdqu	xmm1, XMMWORD PTR [esi+4592+eax]
	movdqu	xmm0, XMMWORD PTR [ebx+4592+eax]
	lea	edx, [eax+9168]
	paddb	xmm0, xmm1
	cmp	edx, 134217728
	lea	edx, [eax+9184]
	movups	XMMWORD PTR [edi+4592+eax], xmm0
	cmp	edx, 134217728
	movdqu	xmm1, XMMWORD PTR [esi+4608+eax]
	movdqu	xmm0, XMMWORD PTR [ebx+4608+eax]
	lea	edx, [eax+9200]
	paddb	xmm0, xmm1
	cmp	edx, 134217728
	lea	edx, [eax+9216]
	movups	XMMWORD PTR [edi+4608+eax], xmm0
	cmp	edx, 134217728
	movdqu	xmm1, XMMWORD PTR [esi+4624+eax]
	movdqu	xmm0, XMMWORD PTR [ebx+4624+eax]
	lea	edx, [eax+9232]
	paddb	xmm0, xmm1
	cmp	edx, 134217728
	lea	edx, [eax+9248]
	movups	XMMWORD PTR [edi+4624+eax], xmm0
	cmp	edx, 134217728
	movdqu	xmm1, XMMWORD PTR [esi+4640+eax]
	movdqu	xmm0, XMMWORD PTR [ebx+4640+eax]
	lea	edx, [eax+9264]
	paddb	xmm0, xmm1
	cmp	edx, 134217728
	lea	edx, [eax+9280]
	movups	XMMWORD PTR [edi+4640+eax], xmm0
	cmp	edx, 134217728
	movdqu	xmm1, XMMWORD PTR [esi+4656+eax]
	movdqu	xmm0, XMMWORD PTR [ebx+4656+eax]
	lea	edx, [eax+9296]
	paddb	xmm0, xmm1
	cmp	edx, 134217728
	lea	edx, [eax+9312]
	movups	XMMWORD PTR [edi+4656+eax], xmm0
	cmp	edx, 134217728
	movdqu	xmm1, XMMWORD PTR [esi+4672+eax]
	movdqu	xmm0, XMMWORD PTR [ebx+4672+eax]
	lea	edx, [eax+9328]
	paddb	xmm0, xmm1
	cmp	edx, 134217728
	lea	edx, [eax+9344]
	movups	XMMWORD PTR [edi+4672+eax], xmm0
	cmp	edx, 134217728
	movdqu	xmm1, XMMWORD PTR [esi+4688+eax]
	movdqu	xmm0, XMMWORD PTR [ebx+4688+eax]
	lea	edx, [eax+9360]
	paddb	xmm0, xmm1
	cmp	edx, 134217728
	lea	edx, [eax+9376]
	movups	XMMWORD PTR [edi+4688+eax], xmm0
	cmp	edx, 134217728
	movdqu	xmm1, XMMWORD PTR [esi+4704+eax]
	movdqu	xmm0, XMMWORD PTR [ebx+4704+eax]
	lea	edx, [eax+9392]
	paddb	xmm0, xmm1
	cmp	edx, 134217728
	lea	edx, [eax+9408]
	movups	XMMWORD PTR [edi+4704+eax], xmm0
	cmp	edx, 134217728
	movdqu	xmm1, XMMWORD PTR [esi+4720+eax]
	movdqu	xmm0, XMMWORD PTR [ebx+4720+eax]
	lea	edx, [eax+9424]
	paddb	xmm0, xmm1
	cmp	edx, 134217728
	lea	edx, [eax+9440]
	movups	XMMWORD PTR [edi+4720+eax], xmm0
	cmp	edx, 134217728
	movdqu	xmm1, XMMWORD PTR [esi+4736+eax]
	movdqu	xmm0, XMMWORD PTR [ebx+4736+eax]
	lea	edx, [eax+9456]
	paddb	xmm0, xmm1
	cmp	edx, 134217728
	lea	edx, [eax+9472]
	movups	XMMWORD PTR [edi+4736+eax], xmm0
	cmp	edx, 134217728
	movdqu	xmm1, XMMWORD PTR [esi+4752+eax]
	movdqu	xmm0, XMMWORD PTR [ebx+4752+eax]
	lea	edx, [eax+9488]
	paddb	xmm0, xmm1
	cmp	edx, 134217728
	lea	edx, [eax+9504]
	movups	XMMWORD PTR [edi+4752+eax], xmm0
	cmp	edx, 134217728
	movdqu	xmm1, XMMWORD PTR [esi+4768+eax]
	movdqu	xmm0, XMMWORD PTR [ebx+4768+eax]
	lea	edx, [eax+9520]
	paddb	xmm0, xmm1
	cmp	edx, 134217728
	lea	edx, [eax+9536]
	movups	XMMWORD PTR [edi+4768+eax], xmm0
	cmp	edx, 134217728
	movdqu	xmm1, XMMWORD PTR [esi+4784+eax]
	movdqu	xmm0, XMMWORD PTR [ebx+4784+eax]
	lea	edx, [eax+9552]
	paddb	xmm0, xmm1
	cmp	edx, 134217728
	lea	edx, [eax+9568]
	movups	XMMWORD PTR [edi+4784+eax], xmm0
	cmp	edx, 134217728
	movdqu	xmm1, XMMWORD PTR [esi+4800+eax]
	movdqu	xmm0, XMMWORD PTR [ebx+4800+eax]
	lea	edx, [eax+9584]
	paddb	xmm0, xmm1
	cmp	edx, 134217728
	lea	edx, [eax+9600]
	movups	XMMWORD PTR [edi+4800+eax], xmm0
	cmp	edx, 134217728
	movdqu	xmm1, XMMWORD PTR [esi+4816+eax]
	movdqu	xmm0, XMMWORD PTR [ebx+4816+eax]
	lea	edx, [eax+9616]
	paddb	xmm0, xmm1
	cmp	edx, 134217728
	lea	edx, [eax+9632]
	movups	XMMWORD PTR [edi+4816+eax], xmm0
	cmp	edx, 134217728
	movdqu	xmm1, XMMWORD PTR [esi+4832+eax]
	movdqu	xmm0, XMMWORD PTR [ebx+4832+eax]
	lea	edx, [eax+9648]
	paddb	xmm0, xmm1
	cmp	edx, 134217728
	lea	edx, [eax+9664]
	movups	XMMWORD PTR [edi+4832+eax], xmm0
	cmp	edx, 134217728
	movdqu	xmm1, XMMWORD PTR [esi+4848+eax]
	movdqu	xmm0, XMMWORD PTR [ebx+4848+eax]
	lea	edx, [eax+9680]
	paddb	xmm0, xmm1
	cmp	edx, 134217728
	lea	edx, [eax+9696]
	movups	XMMWORD PTR [edi+4848+eax], xmm0
	cmp	edx, 134217728
	movdqu	xmm1, XMMWORD PTR [esi+4864+eax]
	movdqu	xmm0, XMMWORD PTR [ebx+4864+eax]
	lea	edx, [eax+9712]
	paddb	xmm0, xmm1
	cmp	edx, 134217728
	lea	edx, [eax+9728]
	movups	XMMWORD PTR [edi+4864+eax], xmm0
	cmp	edx, 134217728
	movdqu	xmm1, XMMWORD PTR [esi+4880+eax]
	movdqu	xmm0, XMMWORD PTR [ebx+4880+eax]
	lea	edx, [eax+9744]
	paddb	xmm0, xmm1
	cmp	edx, 134217728
	lea	edx, [eax+9760]
	movups	XMMWORD PTR [edi+4880+eax], xmm0
	cmp	edx, 134217728
	movdqu	xmm1, XMMWORD PTR [esi+4896+eax]
	movdqu	xmm0, XMMWORD PTR [ebx+4896+eax]
	lea	edx, [eax+9776]
	paddb	xmm0, xmm1
	cmp	edx, 134217728
	lea	edx, [eax+9792]
	movups	XMMWORD PTR [edi+4896+eax], xmm0
	cmp	edx, 134217728
	movdqu	xmm1, XMMWORD PTR [esi+4912+eax]
	movdqu	xmm0, XMMWORD PTR [ebx+4912+eax]
	lea	edx, [eax+9808]
	paddb	xmm0, xmm1
	cmp	edx, 134217728
	lea	edx, [eax+9824]
	movups	XMMWORD PTR [edi+4912+eax], xmm0
	cmp	edx, 134217728
	movdqu	xmm1, XMMWORD PTR [esi+4928+eax]
	movdqu	xmm0, XMMWORD PTR [ebx+4928+eax]
	lea	edx, [eax+9840]
	paddb	xmm0, xmm1
	cmp	edx, 134217728
	lea	edx, [eax+9856]
	movups	XMMWORD PTR [edi+4928+eax], xmm0
	cmp	edx, 134217728
	movdqu	xmm1, XMMWORD PTR [esi+4944+eax]
	movdqu	xmm0, XMMWORD PTR [ebx+4944+eax]
	lea	edx, [eax+9872]
	paddb	xmm0, xmm1
	cmp	edx, 134217728
	lea	edx, [eax+9888]
	movups	XMMWORD PTR [edi+4944+eax], xmm0
	cmp	edx, 134217728
	movdqu	xmm1, XMMWORD PTR [esi+4960+eax]
	movdqu	xmm0, XMMWORD PTR [ebx+4960+eax]
	lea	edx, [eax+9904]
	paddb	xmm0, xmm1
	cmp	edx, 134217728
	lea	edx, [eax+9920]
	movups	XMMWORD PTR [edi+4960+eax], xmm0
	cmp	edx, 134217728
	movdqu	xmm1, XMMWORD PTR [esi+4976+eax]
	movdqu	xmm0, XMMWORD PTR [ebx+4976+eax]
	lea	edx, [eax+9936]
	paddb	xmm0, xmm1
	cmp	edx, 134217728
	lea	edx, [eax+9952]
	movups	XMMWORD PTR [edi+4976+eax], xmm0
	cmp	edx, 134217728
	movdqu	xmm1, XMMWORD PTR [esi+4992+eax]
	movdqu	xmm0, XMMWORD PTR [ebx+4992+eax]
	lea	edx, [eax+9968]
	paddb	xmm0, xmm1
	cmp	edx, 134217728
	lea	edx, [eax+9984]
	movups	XMMWORD PTR [edi+4992+eax], xmm0
	cmp	edx, 134217728
	movdqu	xmm1, XMMWORD PTR [esi+5008+eax]
	movdqu	xmm0, XMMWORD PTR [ebx+5008+eax]
	lea	edx, [eax+10000]
	paddb	xmm0, xmm1
	cmp	edx, 134217728
	lea	edx, [eax+10016]
	movups	XMMWORD PTR [edi+5008+eax], xmm0
	cmp	edx, 134217728
	movdqu	xmm1, XMMWORD PTR [esi+5024+eax]
	movdqu	xmm0, XMMWORD PTR [ebx+5024+eax]
	lea	edx, [eax+10032]
	paddb	xmm0, xmm1
	cmp	edx, 134217728
	lea	edx, [eax+10048]
	movups	XMMWORD PTR [edi+5024+eax], xmm0
	cmp	edx, 134217728
	movdqu	xmm1, XMMWORD PTR [esi+5040+eax]
	movdqu	xmm0, XMMWORD PTR [ebx+5040+eax]
	lea	edx, [eax+10064]
	paddb	xmm0, xmm1
	cmp	edx, 134217728
	lea	edx, [eax+10080]
	movups	XMMWORD PTR [edi+5040+eax], xmm0
	cmp	edx, 134217728
	movdqu	xmm1, XMMWORD PTR [esi+5056+eax]
	movdqu	xmm0, XMMWORD PTR [ebx+5056+eax]
	lea	edx, [eax+10096]
	paddb	xmm0, xmm1
	cmp	edx, 134217728
	lea	edx, [eax+10112]
	movups	XMMWORD PTR [edi+5056+eax], xmm0
	cmp	edx, 134217728
	movdqu	xmm1, XMMWORD PTR [esi+5072+eax]
	movdqu	xmm0, XMMWORD PTR [ebx+5072+eax]
	lea	edx, [eax+10128]
	paddb	xmm0, xmm1
	cmp	edx, 134217728
	lea	edx, [eax+10144]
	movups	XMMWORD PTR [edi+5072+eax], xmm0
	cmp	edx, 134217728
	movdqu	xmm1, XMMWORD PTR [esi+5088+eax]
	movdqu	xmm0, XMMWORD PTR [ebx+5088+eax]
	lea	edx, [eax+10160]
	paddb	xmm0, xmm1
	cmp	edx, 134217728
	lea	edx, [eax+10176]
	movups	XMMWORD PTR [edi+5088+eax], xmm0
	cmp	edx, 134217728
	movdqu	xmm1, XMMWORD PTR [esi+5104+eax]
	movdqu	xmm0, XMMWORD PTR [ebx+5104+eax]
	lea	edx, [eax+10192]
	paddb	xmm0, xmm1
	cmp	edx, 134217728
	lea	edx, [eax+10208]
	movups	XMMWORD PTR [edi+5104+eax], xmm0
	cmp	edx, 134217728
	movdqu	xmm1, XMMWORD PTR [esi+5120+eax]
	movdqu	xmm0, XMMWORD PTR [ebx+5120+eax]
	lea	edx, [eax+10224]
	paddb	xmm0, xmm1
	cmp	edx, 134217728
	lea	edx, [eax+10240]
	movups	XMMWORD PTR [edi+5120+eax], xmm0
	cmp	edx, 134217728
	movdqu	xmm1, XMMWORD PTR [esi+5136+eax]
	movdqu	xmm0, XMMWORD PTR [ebx+5136+eax]
	lea	edx, [eax+10256]
	paddb	xmm0, xmm1
	cmp	edx, 134217728
	lea	edx, [eax+10272]
	movups	XMMWORD PTR [edi+5136+eax], xmm0
	cmp	edx, 134217728
	movdqu	xmm1, XMMWORD PTR [esi+5152+eax]
	movdqu	xmm0, XMMWORD PTR [ebx+5152+eax]
	lea	edx, [eax+10288]
	paddb	xmm0, xmm1
	cmp	edx, 134217728
	lea	edx, [eax+10304]
	movups	XMMWORD PTR [edi+5152+eax], xmm0
	cmp	edx, 134217728
	movdqu	xmm1, XMMWORD PTR [esi+5168+eax]
	movdqu	xmm0, XMMWORD PTR [ebx+5168+eax]
	lea	edx, [eax+10320]
	paddb	xmm0, xmm1
	cmp	edx, 134217728
	lea	edx, [eax+10336]
	movups	XMMWORD PTR [edi+5168+eax], xmm0
	cmp	edx, 134217728
	movdqu	xmm1, XMMWORD PTR [esi+5184+eax]
	movdqu	xmm0, XMMWORD PTR [ebx+5184+eax]
	lea	edx, [eax+10352]
	paddb	xmm0, xmm1
	cmp	edx, 134217728
	lea	edx, [eax+10368]
	movups	XMMWORD PTR [edi+5184+eax], xmm0
	cmp	edx, 134217728
	movdqu	xmm1, XMMWORD PTR [esi+5200+eax]
	movdqu	xmm0, XMMWORD PTR [ebx+5200+eax]
	lea	edx, [eax+10384]
	paddb	xmm0, xmm1
	cmp	edx, 134217728
	lea	edx, [eax+10400]
	movups	XMMWORD PTR [edi+5200+eax], xmm0
	cmp	edx, 134217728
	movdqu	xmm1, XMMWORD PTR [esi+5216+eax]
	movdqu	xmm0, XMMWORD PTR [ebx+5216+eax]
	lea	edx, [eax+10416]
	paddb	xmm0, xmm1
	cmp	edx, 134217728
	lea	edx, [eax+10432]
	movups	XMMWORD PTR [edi+5216+eax], xmm0
	cmp	edx, 134217728
	movdqu	xmm1, XMMWORD PTR [esi+5232+eax]
	movdqu	xmm0, XMMWORD PTR [ebx+5232+eax]
	lea	edx, [eax+10448]
	paddb	xmm0, xmm1
	cmp	edx, 134217728
	lea	edx, [eax+10464]
	movups	XMMWORD PTR [edi+5232+eax], xmm0
	cmp	edx, 134217728
	movdqu	xmm1, XMMWORD PTR [esi+5248+eax]
	movdqu	xmm0, XMMWORD PTR [ebx+5248+eax]
	lea	edx, [eax+10480]
	paddb	xmm0, xmm1
	cmp	edx, 134217728
	lea	edx, [eax+10496]
	movups	XMMWORD PTR [edi+5248+eax], xmm0
	cmp	edx, 134217728
	movdqu	xmm1, XMMWORD PTR [esi+5264+eax]
	movdqu	xmm0, XMMWORD PTR [ebx+5264+eax]
	lea	edx, [eax+10512]
	paddb	xmm0, xmm1
	cmp	edx, 134217728
	lea	edx, [eax+10528]
	movups	XMMWORD PTR [edi+5264+eax], xmm0
	cmp	edx, 134217728
	movdqu	xmm1, XMMWORD PTR [esi+5280+eax]
	movdqu	xmm0, XMMWORD PTR [ebx+5280+eax]
	lea	edx, [eax+10544]
	paddb	xmm0, xmm1
	cmp	edx, 134217728
	lea	edx, [eax+10560]
	movups	XMMWORD PTR [edi+5280+eax], xmm0
	cmp	edx, 134217728
	movdqu	xmm1, XMMWORD PTR [esi+5296+eax]
	movdqu	xmm0, XMMWORD PTR [ebx+5296+eax]
	lea	edx, [eax+10576]
	paddb	xmm0, xmm1
	cmp	edx, 134217728
	lea	edx, [eax+10592]
	movups	XMMWORD PTR [edi+5296+eax], xmm0
	cmp	edx, 134217728
	movdqu	xmm1, XMMWORD PTR [esi+5312+eax]
	movdqu	xmm0, XMMWORD PTR [ebx+5312+eax]
	lea	edx, [eax+10608]
	paddb	xmm0, xmm1
	cmp	edx, 134217728
	lea	edx, [eax+10624]
	movups	XMMWORD PTR [edi+5312+eax], xmm0
	cmp	edx, 134217728
	movdqu	xmm1, XMMWORD PTR [esi+5328+eax]
	movdqu	xmm0, XMMWORD PTR [ebx+5328+eax]
	lea	edx, [eax+10640]
	paddb	xmm0, xmm1
	cmp	edx, 134217728
	lea	edx, [eax+10656]
	movups	XMMWORD PTR [edi+5328+eax], xmm0
	cmp	edx, 134217728
	movdqu	xmm1, XMMWORD PTR [esi+5344+eax]
	movdqu	xmm0, XMMWORD PTR [ebx+5344+eax]
	lea	edx, [eax+10672]
	paddb	xmm0, xmm1
	cmp	edx, 134217728
	lea	edx, [eax+10688]
	movups	XMMWORD PTR [edi+5344+eax], xmm0
	cmp	edx, 134217728
	movdqu	xmm1, XMMWORD PTR [esi+5360+eax]
	movdqu	xmm0, XMMWORD PTR [ebx+5360+eax]
	lea	edx, [eax+10704]
	paddb	xmm0, xmm1
	cmp	edx, 134217728
	lea	edx, [eax+10720]
	movups	XMMWORD PTR [edi+5360+eax], xmm0
	cmp	edx, 134217728
	movdqu	xmm1, XMMWORD PTR [esi+5376+eax]
	movdqu	xmm0, XMMWORD PTR [ebx+5376+eax]
	lea	edx, [eax+10736]
	paddb	xmm0, xmm1
	cmp	edx, 134217728
	lea	edx, [eax+10752]
	movups	XMMWORD PTR [edi+5376+eax], xmm0
	cmp	edx, 134217728
	movdqu	xmm1, XMMWORD PTR [esi+5392+eax]
	movdqu	xmm0, XMMWORD PTR [ebx+5392+eax]
	lea	edx, [eax+10768]
	paddb	xmm0, xmm1
	cmp	edx, 134217728
	lea	edx, [eax+10784]
	movups	XMMWORD PTR [edi+5392+eax], xmm0
	cmp	edx, 134217728
	movdqu	xmm1, XMMWORD PTR [esi+5408+eax]
	movdqu	xmm0, XMMWORD PTR [ebx+5408+eax]
	lea	edx, [eax+10800]
	paddb	xmm0, xmm1
	cmp	edx, 134217728
	lea	edx, [eax+10816]
	movups	XMMWORD PTR [edi+5408+eax], xmm0
	cmp	edx, 134217728
	movdqu	xmm1, XMMWORD PTR [esi+5424+eax]
	movdqu	xmm0, XMMWORD PTR [ebx+5424+eax]
	lea	edx, [eax+10832]
	paddb	xmm0, xmm1
	cmp	edx, 134217728
	lea	edx, [eax+10848]
	movups	XMMWORD PTR [edi+5424+eax], xmm0
	cmp	edx, 134217728
	movdqu	xmm1, XMMWORD PTR [esi+5440+eax]
	movdqu	xmm0, XMMWORD PTR [ebx+5440+eax]
	lea	edx, [eax+10864]
	paddb	xmm0, xmm1
	cmp	edx, 134217728
	lea	edx, [eax+10880]
	movups	XMMWORD PTR [edi+5440+eax], xmm0
	cmp	edx, 134217728
	movdqu	xmm1, XMMWORD PTR [esi+5456+eax]
	movdqu	xmm0, XMMWORD PTR [ebx+5456+eax]
	lea	edx, [eax+10896]
	paddb	xmm0, xmm1
	cmp	edx, 134217728
	lea	edx, [eax+10912]
	movups	XMMWORD PTR [edi+5456+eax], xmm0
	cmp	edx, 134217728
	movdqu	xmm1, XMMWORD PTR [esi+5472+eax]
	movdqu	xmm0, XMMWORD PTR [ebx+5472+eax]
	lea	edx, [eax+10928]
	paddb	xmm0, xmm1
	cmp	edx, 134217728
	lea	edx, [eax+10944]
	movups	XMMWORD PTR [edi+5472+eax], xmm0
	cmp	edx, 134217728
	movdqu	xmm1, XMMWORD PTR [esi+5488+eax]
	movdqu	xmm0, XMMWORD PTR [ebx+5488+eax]
	lea	edx, [eax+10960]
	paddb	xmm0, xmm1
	cmp	edx, 134217728
	lea	edx, [eax+10976]
	movups	XMMWORD PTR [edi+5488+eax], xmm0
	cmp	edx, 134217728
	movdqu	xmm1, XMMWORD PTR [esi+5504+eax]
	movdqu	xmm0, XMMWORD PTR [ebx+5504+eax]
	lea	edx, [eax+10992]
	paddb	xmm0, xmm1
	cmp	edx, 134217728
	lea	edx, [eax+11008]
	movups	XMMWORD PTR [edi+5504+eax], xmm0
	cmp	edx, 134217728
	movdqu	xmm1, XMMWORD PTR [esi+5520+eax]
	movdqu	xmm0, XMMWORD PTR [ebx+5520+eax]
	lea	edx, [eax+11024]
	paddb	xmm0, xmm1
	cmp	edx, 134217728
	lea	edx, [eax+11040]
	movups	XMMWORD PTR [edi+5520+eax], xmm0
	cmp	edx, 134217728
	movdqu	xmm1, XMMWORD PTR [esi+5536+eax]
	movdqu	xmm0, XMMWORD PTR [ebx+5536+eax]
	lea	edx, [eax+11056]
	paddb	xmm0, xmm1
	cmp	edx, 134217728
	lea	edx, [eax+11072]
	movups	XMMWORD PTR [edi+5536+eax], xmm0
	cmp	edx, 134217728
	movdqu	xmm1, XMMWORD PTR [esi+5552+eax]
	movdqu	xmm0, XMMWORD PTR [ebx+5552+eax]
	lea	edx, [eax+11088]
	paddb	xmm0, xmm1
	cmp	edx, 134217728
	lea	edx, [eax+11104]
	movups	XMMWORD PTR [edi+5552+eax], xmm0
	cmp	edx, 134217728
	movdqu	xmm1, XMMWORD PTR [esi+5568+eax]
	movdqu	xmm0, XMMWORD PTR [ebx+5568+eax]
	lea	edx, [eax+11120]
	paddb	xmm0, xmm1
	cmp	edx, 134217728
	lea	edx, [eax+11136]
	movups	XMMWORD PTR [edi+5568+eax], xmm0
	cmp	edx, 134217728
	movdqu	xmm1, XMMWORD PTR [esi+5584+eax]
	movdqu	xmm0, XMMWORD PTR [ebx+5584+eax]
	lea	edx, [eax+11152]
	paddb	xmm0, xmm1
	cmp	edx, 134217728
	lea	edx, [eax+11168]
	movups	XMMWORD PTR [edi+5584+eax], xmm0
	cmp	edx, 134217728
	movdqu	xmm1, XMMWORD PTR [esi+5600+eax]
	movdqu	xmm0, XMMWORD PTR [ebx+5600+eax]
	lea	edx, [eax+11184]
	paddb	xmm0, xmm1
	cmp	edx, 134217728
	lea	edx, [eax+11200]
	movups	XMMWORD PTR [edi+5600+eax], xmm0
	cmp	edx, 134217728
	movdqu	xmm1, XMMWORD PTR [esi+5616+eax]
	movdqu	xmm0, XMMWORD PTR [ebx+5616+eax]
	lea	edx, [eax+11216]
	paddb	xmm0, xmm1
	cmp	edx, 134217728
	lea	edx, [eax+11232]
	movups	XMMWORD PTR [edi+5616+eax], xmm0
	cmp	edx, 134217728
	movdqu	xmm1, XMMWORD PTR [esi+5632+eax]
	movdqu	xmm0, XMMWORD PTR [ebx+5632+eax]
	lea	edx, [eax+11248]
	paddb	xmm0, xmm1
	cmp	edx, 134217728
	lea	edx, [eax+11264]
	movups	XMMWORD PTR [edi+5632+eax], xmm0
	cmp	edx, 134217728
	movdqu	xmm1, XMMWORD PTR [esi+5648+eax]
	movdqu	xmm0, XMMWORD PTR [ebx+5648+eax]
	lea	edx, [eax+11280]
	paddb	xmm0, xmm1
	cmp	edx, 134217728
	lea	edx, [eax+11296]
	movups	XMMWORD PTR [edi+5648+eax], xmm0
	cmp	edx, 134217728
	movdqu	xmm1, XMMWORD PTR [esi+5664+eax]
	movdqu	xmm0, XMMWORD PTR [ebx+5664+eax]
	lea	edx, [eax+11312]
	paddb	xmm0, xmm1
	cmp	edx, 134217728
	lea	edx, [eax+11328]
	movups	XMMWORD PTR [edi+5664+eax], xmm0
	cmp	edx, 134217728
	movdqu	xmm1, XMMWORD PTR [esi+5680+eax]
	movdqu	xmm0, XMMWORD PTR [ebx+5680+eax]
	lea	edx, [eax+11344]
	paddb	xmm0, xmm1
	cmp	edx, 134217728
	lea	edx, [eax+11360]
	movups	XMMWORD PTR [edi+5680+eax], xmm0
	cmp	edx, 134217728
	movdqu	xmm1, XMMWORD PTR [esi+5696+eax]
	movdqu	xmm0, XMMWORD PTR [ebx+5696+eax]
	lea	edx, [eax+11376]
	paddb	xmm0, xmm1
	cmp	edx, 134217728
	lea	edx, [eax+11392]
	movups	XMMWORD PTR [edi+5696+eax], xmm0
	cmp	edx, 134217728
	movdqu	xmm1, XMMWORD PTR [esi+5712+eax]
	movdqu	xmm0, XMMWORD PTR [ebx+5712+eax]
	lea	edx, [eax+11408]
	paddb	xmm0, xmm1
	cmp	edx, 134217728
	lea	edx, [eax+11424]
	movups	XMMWORD PTR [edi+5712+eax], xmm0
	cmp	edx, 134217728
	movdqu	xmm1, XMMWORD PTR [esi+5728+eax]
	movdqu	xmm0, XMMWORD PTR [ebx+5728+eax]
	lea	edx, [eax+11440]
	paddb	xmm0, xmm1
	cmp	edx, 134217728
	lea	edx, [eax+11456]
	movups	XMMWORD PTR [edi+5728+eax], xmm0
	cmp	edx, 134217728
	movdqu	xmm1, XMMWORD PTR [esi+5744+eax]
	movdqu	xmm0, XMMWORD PTR [ebx+5744+eax]
	lea	edx, [eax+11472]
	paddb	xmm0, xmm1
	cmp	edx, 134217728
	lea	edx, [eax+11488]
	movups	XMMWORD PTR [edi+5744+eax], xmm0
	cmp	edx, 134217728
	movdqu	xmm1, XMMWORD PTR [esi+5760+eax]
	movdqu	xmm0, XMMWORD PTR [ebx+5760+eax]
	lea	edx, [eax+11504]
	paddb	xmm0, xmm1
	cmp	edx, 134217728
	lea	edx, [eax+11520]
	movups	XMMWORD PTR [edi+5760+eax], xmm0
	cmp	edx, 134217728
	movdqu	xmm1, XMMWORD PTR [esi+5776+eax]
	movdqu	xmm0, XMMWORD PTR [ebx+5776+eax]
	lea	edx, [eax+11536]
	paddb	xmm0, xmm1
	cmp	edx, 134217728
	lea	edx, [eax+11552]
	movups	XMMWORD PTR [edi+5776+eax], xmm0
	cmp	edx, 134217728
	movdqu	xmm1, XMMWORD PTR [esi+5792+eax]
	movdqu	xmm0, XMMWORD PTR [ebx+5792+eax]
	lea	edx, [eax+11568]
	paddb	xmm0, xmm1
	cmp	edx, 134217728
	lea	edx, [eax+11584]
	movups	XMMWORD PTR [edi+5792+eax], xmm0
	cmp	edx, 134217728
	movdqu	xmm1, XMMWORD PTR [esi+5808+eax]
	movdqu	xmm0, XMMWORD PTR [ebx+5808+eax]
	lea	edx, [eax+11600]
	paddb	xmm0, xmm1
	cmp	edx, 134217728
	lea	edx, [eax+11616]
	movups	XMMWORD PTR [edi+5808+eax], xmm0
	cmp	edx, 134217728
	movdqu	xmm1, XMMWORD PTR [esi+5824+eax]
	movdqu	xmm0, XMMWORD PTR [ebx+5824+eax]
	lea	edx, [eax+11632]
	paddb	xmm0, xmm1
	cmp	edx, 134217728
	lea	edx, [eax+11648]
	movups	XMMWORD PTR [edi+5824+eax], xmm0
	cmp	edx, 134217728
	movdqu	xmm1, XMMWORD PTR [esi+5840+eax]
	movdqu	xmm0, XMMWORD PTR [ebx+5840+eax]
	lea	edx, [eax+11664]
	paddb	xmm0, xmm1
	cmp	edx, 134217728
	lea	edx, [eax+11680]
	movups	XMMWORD PTR [edi+5840+eax], xmm0
	cmp	edx, 134217728
	movdqu	xmm1, XMMWORD PTR [esi+5856+eax]
	movdqu	xmm0, XMMWORD PTR [ebx+5856+eax]
	lea	edx, [eax+11696]
	paddb	xmm0, xmm1
	cmp	edx, 134217728
	lea	edx, [eax+11712]
	movups	XMMWORD PTR [edi+5856+eax], xmm0
	cmp	edx, 134217728
	movdqu	xmm1, XMMWORD PTR [esi+5872+eax]
	movdqu	xmm0, XMMWORD PTR [ebx+5872+eax]
	lea	edx, [eax+11728]
	paddb	xmm0, xmm1
	cmp	edx, 134217728
	lea	edx, [eax+11744]
	movups	XMMWORD PTR [edi+5872+eax], xmm0
	cmp	edx, 134217728
	movdqu	xmm1, XMMWORD PTR [esi+5888+eax]
	movdqu	xmm0, XMMWORD PTR [ebx+5888+eax]
	lea	edx, [eax+11760]
	paddb	xmm0, xmm1
	cmp	edx, 134217728
	lea	edx, [eax+11776]
	movups	XMMWORD PTR [edi+5888+eax], xmm0
	cmp	edx, 134217728
	movdqu	xmm1, XMMWORD PTR [esi+5904+eax]
	movdqu	xmm0, XMMWORD PTR [ebx+5904+eax]
	lea	edx, [eax+11792]
	paddb	xmm0, xmm1
	cmp	edx, 134217728
	lea	edx, [eax+11808]
	movups	XMMWORD PTR [edi+5904+eax], xmm0
	cmp	edx, 134217728
	movdqu	xmm1, XMMWORD PTR [esi+5920+eax]
	movdqu	xmm0, XMMWORD PTR [ebx+5920+eax]
	lea	edx, [eax+11824]
	paddb	xmm0, xmm1
	cmp	edx, 134217728
	lea	edx, [eax+11840]
	movups	XMMWORD PTR [edi+5920+eax], xmm0
	cmp	edx, 134217728
	movdqu	xmm1, XMMWORD PTR [esi+5936+eax]
	movdqu	xmm0, XMMWORD PTR [ebx+5936+eax]
	lea	edx, [eax+11856]
	paddb	xmm0, xmm1
	cmp	edx, 134217728
	lea	edx, [eax+11872]
	movups	XMMWORD PTR [edi+5936+eax], xmm0
	cmp	edx, 134217728
	movdqu	xmm1, XMMWORD PTR [esi+5952+eax]
	movdqu	xmm0, XMMWORD PTR [ebx+5952+eax]
	lea	edx, [eax+11888]
	paddb	xmm0, xmm1
	cmp	edx, 134217728
	lea	edx, [eax+11904]
	movups	XMMWORD PTR [edi+5952+eax], xmm0
	cmp	edx, 134217728
	movdqu	xmm1, XMMWORD PTR [esi+5968+eax]
	movdqu	xmm0, XMMWORD PTR [ebx+5968+eax]
	lea	edx, [eax+11920]
	paddb	xmm0, xmm1
	cmp	edx, 134217728
	lea	edx, [eax+11936]
	movups	XMMWORD PTR [edi+5968+eax], xmm0
	cmp	edx, 134217728
	movdqu	xmm1, XMMWORD PTR [esi+5984+eax]
	movdqu	xmm0, XMMWORD PTR [ebx+5984+eax]
	lea	edx, [eax+11952]
	paddb	xmm0, xmm1
	cmp	edx, 134217728
	lea	edx, [eax+11968]
	movups	XMMWORD PTR [edi+5984+eax], xmm0
	cmp	edx, 134217728
	movdqu	xmm1, XMMWORD PTR [esi+6000+eax]
	movdqu	xmm0, XMMWORD PTR [ebx+6000+eax]
	lea	edx, [eax+11984]
	paddb	xmm0, xmm1
	cmp	edx, 134217728
	lea	edx, [eax+12000]
	movups	XMMWORD PTR [edi+6000+eax], xmm0
	cmp	edx, 134217728
	movdqu	xmm1, XMMWORD PTR [esi+6016+eax]
	movdqu	xmm0, XMMWORD PTR [ebx+6016+eax]
	lea	edx, [eax+12016]
	paddb	xmm0, xmm1
	cmp	edx, 134217728
	lea	edx, [eax+12032]
	movups	XMMWORD PTR [edi+6016+eax], xmm0
	cmp	edx, 134217728
	movdqu	xmm1, XMMWORD PTR [esi+6032+eax]
	movdqu	xmm0, XMMWORD PTR [ebx+6032+eax]
	lea	edx, [eax+12048]
	paddb	xmm0, xmm1
	cmp	edx, 134217728
	lea	edx, [eax+12064]
	movups	XMMWORD PTR [edi+6032+eax], xmm0
	cmp	edx, 134217728
	movdqu	xmm1, XMMWORD PTR [esi+6048+eax]
	movdqu	xmm0, XMMWORD PTR [ebx+6048+eax]
	lea	edx, [eax+12080]
	paddb	xmm0, xmm1
	cmp	edx, 134217728
	lea	edx, [eax+12096]
	movups	XMMWORD PTR [edi+6048+eax], xmm0
	cmp	edx, 134217728
	movdqu	xmm1, XMMWORD PTR [esi+6064+eax]
	movdqu	xmm0, XMMWORD PTR [ebx+6064+eax]
	lea	edx, [eax+12112]
	paddb	xmm0, xmm1
	cmp	edx, 134217728
	lea	edx, [eax+12128]
	movups	XMMWORD PTR [edi+6064+eax], xmm0
	cmp	edx, 134217728
	movdqu	xmm1, XMMWORD PTR [esi+6080+eax]
	movdqu	xmm0, XMMWORD PTR [ebx+6080+eax]
	lea	edx, [eax+12144]
	paddb	xmm0, xmm1
	cmp	edx, 134217728
	lea	edx, [eax+12160]
	movups	XMMWORD PTR [edi+6080+eax], xmm0
	cmp	edx, 134217728
	movdqu	xmm1, XMMWORD PTR [esi+6096+eax]
	movdqu	xmm0, XMMWORD PTR [ebx+6096+eax]
	lea	edx, [eax+12176]
	paddb	xmm0, xmm1
	cmp	edx, 134217728
	lea	edx, [eax+12192]
	movups	XMMWORD PTR [edi+6096+eax], xmm0
	cmp	edx, 134217728
	movdqu	xmm1, XMMWORD PTR [esi+6112+eax]
	movdqu	xmm0, XMMWORD PTR [ebx+6112+eax]
	lea	edx, [eax+12208]
	paddb	xmm0, xmm1
	cmp	edx, 134217728
	lea	edx, [eax+12224]
	movups	XMMWORD PTR [edi+6112+eax], xmm0
	cmp	edx, 134217728
	movdqu	xmm1, XMMWORD PTR [esi+6128+eax]
	movdqu	xmm0, XMMWORD PTR [ebx+6128+eax]
	lea	edx, [eax+12240]
	paddb	xmm0, xmm1
	cmp	edx, 134217728
	lea	edx, [eax+12256]
	movups	XMMWORD PTR [edi+6128+eax], xmm0
	cmp	edx, 134217728
	movdqu	xmm1, XMMWORD PTR [esi+6144+eax]
	movdqu	xmm0, XMMWORD PTR [ebx+6144+eax]
	lea	edx, [eax+12272]
	paddb	xmm0, xmm1
	cmp	edx, 134217728
	lea	edx, [eax+12288]
	movups	XMMWORD PTR [edi+6144+eax], xmm0
	cmp	edx, 134217728
	movdqu	xmm1, XMMWORD PTR [esi+6160+eax]
	movdqu	xmm0, XMMWORD PTR [ebx+6160+eax]
	lea	edx, [eax+12304]
	paddb	xmm0, xmm1
	cmp	edx, 134217728
	lea	edx, [eax+12320]
	movups	XMMWORD PTR [edi+6160+eax], xmm0
	cmp	edx, 134217728
	movdqu	xmm1, XMMWORD PTR [esi+6176+eax]
	movdqu	xmm0, XMMWORD PTR [ebx+6176+eax]
	lea	edx, [eax+12336]
	paddb	xmm0, xmm1
	cmp	edx, 134217728
	lea	edx, [eax+12352]
	movups	XMMWORD PTR [edi+6176+eax], xmm0
	cmp	edx, 134217728
	movdqu	xmm1, XMMWORD PTR [esi+6192+eax]
	movdqu	xmm0, XMMWORD PTR [ebx+6192+eax]
	lea	edx, [eax+12368]
	paddb	xmm0, xmm1
	cmp	edx, 134217728
	lea	edx, [eax+12384]
	movups	XMMWORD PTR [edi+6192+eax], xmm0
	cmp	edx, 134217728
	movdqu	xmm1, XMMWORD PTR [esi+6208+eax]
	movdqu	xmm0, XMMWORD PTR [ebx+6208+eax]
	lea	edx, [eax+12400]
	paddb	xmm0, xmm1
	cmp	edx, 134217728
	lea	edx, [eax+12416]
	movups	XMMWORD PTR [edi+6208+eax], xmm0
	cmp	edx, 134217728
	movdqu	xmm1, XMMWORD PTR [esi+6224+eax]
	movdqu	xmm0, XMMWORD PTR [ebx+6224+eax]
	lea	edx, [eax+12432]
	paddb	xmm0, xmm1
	cmp	edx, 134217728
	lea	edx, [eax+12448]
	movups	XMMWORD PTR [edi+6224+eax], xmm0
	cmp	edx, 134217728
	movdqu	xmm1, XMMWORD PTR [esi+6240+eax]
	movdqu	xmm0, XMMWORD PTR [ebx+6240+eax]
	lea	edx, [eax+12464]
	paddb	xmm0, xmm1
	cmp	edx, 134217728
	lea	edx, [eax+12480]
	movups	XMMWORD PTR [edi+6240+eax], xmm0
	cmp	edx, 134217728
	movdqu	xmm1, XMMWORD PTR [esi+6256+eax]
	movdqu	xmm0, XMMWORD PTR [ebx+6256+eax]
	lea	edx, [eax+12496]
	paddb	xmm0, xmm1
	cmp	edx, 134217728
	lea	edx, [eax+12512]
	movups	XMMWORD PTR [edi+6256+eax], xmm0
	cmp	edx, 134217728
	movdqu	xmm1, XMMWORD PTR [esi+6272+eax]
	movdqu	xmm0, XMMWORD PTR [ebx+6272+eax]
	lea	edx, [eax+12528]
	paddb	xmm0, xmm1
	cmp	edx, 134217728
	lea	edx, [eax+12544]
	movups	XMMWORD PTR [edi+6272+eax], xmm0
	cmp	edx, 134217728
	movdqu	xmm1, XMMWORD PTR [esi+6288+eax]
	movdqu	xmm0, XMMWORD PTR [ebx+6288+eax]
	lea	edx, [eax+12560]
	paddb	xmm0, xmm1
	cmp	edx, 134217728
	lea	edx, [eax+12576]
	movups	XMMWORD PTR [edi+6288+eax], xmm0
	cmp	edx, 134217728
	movdqu	xmm1, XMMWORD PTR [esi+6304+eax]
	movdqu	xmm0, XMMWORD PTR [ebx+6304+eax]
	lea	edx, [eax+12592]
	paddb	xmm0, xmm1
	cmp	edx, 134217728
	lea	edx, [eax+12608]
	movups	XMMWORD PTR [edi+6304+eax], xmm0
	cmp	edx, 134217728
	movdqu	xmm1, XMMWORD PTR [esi+6320+eax]
	movdqu	xmm0, XMMWORD PTR [ebx+6320+eax]
	lea	edx, [eax+12624]
	paddb	xmm0, xmm1
	cmp	edx, 134217728
	lea	edx, [eax+12640]
	movups	XMMWORD PTR [edi+6320+eax], xmm0
	cmp	edx, 134217728
	movdqu	xmm1, XMMWORD PTR [esi+6336+eax]
	movdqu	xmm0, XMMWORD PTR [ebx+6336+eax]
	lea	edx, [eax+12656]
	paddb	xmm0, xmm1
	cmp	edx, 134217728
	lea	edx, [eax+12672]
	movups	XMMWORD PTR [edi+6336+eax], xmm0
	cmp	edx, 134217728
	movdqu	xmm1, XMMWORD PTR [esi+6352+eax]
	movdqu	xmm0, XMMWORD PTR [ebx+6352+eax]
	lea	edx, [eax+12688]
	paddb	xmm0, xmm1
	cmp	edx, 134217728
	lea	edx, [eax+12704]
	movups	XMMWORD PTR [edi+6352+eax], xmm0
	cmp	edx, 134217728
	movdqu	xmm1, XMMWORD PTR [esi+6368+eax]
	movdqu	xmm0, XMMWORD PTR [ebx+6368+eax]
	lea	edx, [eax+12720]
	paddb	xmm0, xmm1
	cmp	edx, 134217728
	lea	edx, [eax+12736]
	movups	XMMWORD PTR [edi+6368+eax], xmm0
	cmp	edx, 134217728
	movdqu	xmm1, XMMWORD PTR [esi+6384+eax]
	movdqu	xmm0, XMMWORD PTR [ebx+6384+eax]
	lea	edx, [eax+12752]
	paddb	xmm0, xmm1
	cmp	edx, 134217728
	lea	edx, [eax+12768]
	movups	XMMWORD PTR [edi+6384+eax], xmm0
	cmp	edx, 134217728
	movdqu	xmm1, XMMWORD PTR [esi+6400+eax]
	movdqu	xmm0, XMMWORD PTR [ebx+6400+eax]
	lea	edx, [eax+12784]
	paddb	xmm0, xmm1
	cmp	edx, 134217728
	lea	edx, [eax+12800]
	movups	XMMWORD PTR [edi+6400+eax], xmm0
	cmp	edx, 134217728
	movdqu	xmm1, XMMWORD PTR [esi+6416+eax]
	movdqu	xmm0, XMMWORD PTR [ebx+6416+eax]
	lea	edx, [eax+12816]
	paddb	xmm0, xmm1
	cmp	edx, 134217728
	lea	edx, [eax+12832]
	movups	XMMWORD PTR [edi+6416+eax], xmm0
	cmp	edx, 134217728
	movdqu	xmm1, XMMWORD PTR [esi+6432+eax]
	movdqu	xmm0, XMMWORD PTR [ebx+6432+eax]
	lea	edx, [eax+12848]
	paddb	xmm0, xmm1
	cmp	edx, 134217728
	lea	edx, [eax+12864]
	movups	XMMWORD PTR [edi+6432+eax], xmm0
	cmp	edx, 134217728
	movdqu	xmm1, XMMWORD PTR [esi+6448+eax]
	movdqu	xmm0, XMMWORD PTR [ebx+6448+eax]
	lea	edx, [eax+12880]
	paddb	xmm0, xmm1
	cmp	edx, 134217728
	lea	edx, [eax+12896]
	movups	XMMWORD PTR [edi+6448+eax], xmm0
	cmp	edx, 134217728
	movdqu	xmm1, XMMWORD PTR [esi+6464+eax]
	movdqu	xmm0, XMMWORD PTR [ebx+6464+eax]
	lea	edx, [eax+12912]
	paddb	xmm0, xmm1
	cmp	edx, 134217728
	lea	edx, [eax+12928]
	movups	XMMWORD PTR [edi+6464+eax], xmm0
	cmp	edx, 134217728
	movdqu	xmm1, XMMWORD PTR [esi+6480+eax]
	movdqu	xmm0, XMMWORD PTR [ebx+6480+eax]
	lea	edx, [eax+12944]
	paddb	xmm0, xmm1
	cmp	edx, 134217728
	lea	edx, [eax+12960]
	movups	XMMWORD PTR [edi+6480+eax], xmm0
	cmp	edx, 134217728
	movdqu	xmm1, XMMWORD PTR [esi+6496+eax]
	movdqu	xmm0, XMMWORD PTR [ebx+6496+eax]
	lea	edx, [eax+12976]
	paddb	xmm0, xmm1
	cmp	edx, 134217728
	lea	edx, [eax+12992]
	movups	XMMWORD PTR [edi+6496+eax], xmm0
	cmp	edx, 134217728
	movdqu	xmm1, XMMWORD PTR [esi+6512+eax]
	movdqu	xmm0, XMMWORD PTR [ebx+6512+eax]
	lea	edx, [eax+13008]
	paddb	xmm0, xmm1
	cmp	edx, 134217728
	lea	edx, [eax+13024]
	movups	XMMWORD PTR [edi+6512+eax], xmm0
	cmp	edx, 134217728
	movdqu	xmm1, XMMWORD PTR [esi+6528+eax]
	movdqu	xmm0, XMMWORD PTR [ebx+6528+eax]
	lea	edx, [eax+13040]
	paddb	xmm0, xmm1
	cmp	edx, 134217728
	lea	edx, [eax+13056]
	movups	XMMWORD PTR [edi+6528+eax], xmm0
	cmp	edx, 134217728
	movdqu	xmm1, XMMWORD PTR [esi+6544+eax]
	movdqu	xmm0, XMMWORD PTR [ebx+6544+eax]
	lea	edx, [eax+13072]
	paddb	xmm0, xmm1
	cmp	edx, 134217728
	lea	edx, [eax+13088]
	movups	XMMWORD PTR [edi+6544+eax], xmm0
	cmp	edx, 134217728
	movdqu	xmm1, XMMWORD PTR [esi+6560+eax]
	movdqu	xmm0, XMMWORD PTR [ebx+6560+eax]
	lea	edx, [eax+13104]
	paddb	xmm0, xmm1
	cmp	edx, 134217728
	lea	edx, [eax+13120]
	movups	XMMWORD PTR [edi+6560+eax], xmm0
	cmp	edx, 134217728
	movdqu	xmm1, XMMWORD PTR [esi+6576+eax]
	movdqu	xmm0, XMMWORD PTR [ebx+6576+eax]
	lea	edx, [eax+13136]
	paddb	xmm0, xmm1
	cmp	edx, 134217728
	lea	edx, [eax+13152]
	movups	XMMWORD PTR [edi+6576+eax], xmm0
	cmp	edx, 134217728
	movdqu	xmm1, XMMWORD PTR [esi+6592+eax]
	movdqu	xmm0, XMMWORD PTR [ebx+6592+eax]
	lea	edx, [eax+13168]
	paddb	xmm0, xmm1
	cmp	edx, 134217728
	lea	edx, [eax+13184]
	movups	XMMWORD PTR [edi+6592+eax], xmm0
	cmp	edx, 134217728
	movdqu	xmm1, XMMWORD PTR [esi+6608+eax]
	movdqu	xmm0, XMMWORD PTR [ebx+6608+eax]
	lea	edx, [eax+13200]
	paddb	xmm0, xmm1
	cmp	edx, 134217728
	lea	edx, [eax+13216]
	movups	XMMWORD PTR [edi+6608+eax], xmm0
	cmp	edx, 134217728
	movdqu	xmm1, XMMWORD PTR [esi+6624+eax]
	movdqu	xmm0, XMMWORD PTR [ebx+6624+eax]
	lea	edx, [eax+13232]
	paddb	xmm0, xmm1
	cmp	edx, 134217728
	lea	edx, [eax+13248]
	movups	XMMWORD PTR [edi+6624+eax], xmm0
	cmp	edx, 134217728
	movdqu	xmm1, XMMWORD PTR [esi+6640+eax]
	movdqu	xmm0, XMMWORD PTR [ebx+6640+eax]
	lea	edx, [eax+13264]
	paddb	xmm0, xmm1
	cmp	edx, 134217728
	lea	edx, [eax+13280]
	movups	XMMWORD PTR [edi+6640+eax], xmm0
	cmp	edx, 134217728
	movdqu	xmm1, XMMWORD PTR [esi+6656+eax]
	movdqu	xmm0, XMMWORD PTR [ebx+6656+eax]
	lea	edx, [eax+13296]
	paddb	xmm0, xmm1
	cmp	edx, 134217728
	lea	edx, [eax+13312]
	movups	XMMWORD PTR [edi+6656+eax], xmm0
	cmp	edx, 134217728
	movdqu	xmm1, XMMWORD PTR [esi+6672+eax]
	movdqu	xmm0, XMMWORD PTR [ebx+6672+eax]
	lea	edx, [eax+13328]
	paddb	xmm0, xmm1
	cmp	edx, 134217728
	lea	edx, [eax+13344]
	movups	XMMWORD PTR [edi+6672+eax], xmm0
	cmp	edx, 134217728
	movdqu	xmm1, XMMWORD PTR [esi+6688+eax]
	movdqu	xmm0, XMMWORD PTR [ebx+6688+eax]
	lea	edx, [eax+13360]
	paddb	xmm0, xmm1
	cmp	edx, 134217728
	lea	edx, [eax+13376]
	movups	XMMWORD PTR [edi+6688+eax], xmm0
	cmp	edx, 134217728
	movdqu	xmm1, XMMWORD PTR [esi+6704+eax]
	movdqu	xmm0, XMMWORD PTR [ebx+6704+eax]
	lea	edx, [eax+13392]
	paddb	xmm0, xmm1
	cmp	edx, 134217728
	lea	edx, [eax+13408]
	movups	XMMWORD PTR [edi+6704+eax], xmm0
	cmp	edx, 134217728
	movdqu	xmm1, XMMWORD PTR [esi+6720+eax]
	movdqu	xmm0, XMMWORD PTR [ebx+6720+eax]
	lea	edx, [eax+13424]
	paddb	xmm0, xmm1
	cmp	edx, 134217728
	lea	edx, [eax+13440]
	movups	XMMWORD PTR [edi+6720+eax], xmm0
	cmp	edx, 134217728
	movdqu	xmm1, XMMWORD PTR [esi+6736+eax]
	movdqu	xmm0, XMMWORD PTR [ebx+6736+eax]
	lea	edx, [eax+13456]
	paddb	xmm0, xmm1
	cmp	edx, 134217728
	lea	edx, [eax+13472]
	movups	XMMWORD PTR [edi+6736+eax], xmm0
	cmp	edx, 134217728
	movdqu	xmm1, XMMWORD PTR [esi+6752+eax]
	movdqu	xmm0, XMMWORD PTR [ebx+6752+eax]
	lea	edx, [eax+13488]
	paddb	xmm0, xmm1
	cmp	edx, 134217728
	lea	edx, [eax+13504]
	movups	XMMWORD PTR [edi+6752+eax], xmm0
	cmp	edx, 134217728
	movdqu	xmm1, XMMWORD PTR [esi+6768+eax]
	movdqu	xmm0, XMMWORD PTR [ebx+6768+eax]
	lea	edx, [eax+13520]
	paddb	xmm0, xmm1
	cmp	edx, 134217728
	lea	edx, [eax+13536]
	movups	XMMWORD PTR [edi+6768+eax], xmm0
	cmp	edx, 134217728
	movdqu	xmm1, XMMWORD PTR [esi+6784+eax]
	movdqu	xmm0, XMMWORD PTR [ebx+6784+eax]
	lea	edx, [eax+13552]
	paddb	xmm0, xmm1
	cmp	edx, 134217728
	lea	edx, [eax+13568]
	movups	XMMWORD PTR [edi+6784+eax], xmm0
	cmp	edx, 134217728
	movdqu	xmm1, XMMWORD PTR [esi+6800+eax]
	movdqu	xmm0, XMMWORD PTR [ebx+6800+eax]
	lea	edx, [eax+13584]
	paddb	xmm0, xmm1
	cmp	edx, 134217728
	lea	edx, [eax+13600]
	movups	XMMWORD PTR [edi+6800+eax], xmm0
	cmp	edx, 134217728
	movdqu	xmm1, XMMWORD PTR [esi+6816+eax]
	movdqu	xmm0, XMMWORD PTR [ebx+6816+eax]
	lea	edx, [eax+13616]
	paddb	xmm0, xmm1
	cmp	edx, 134217728
	lea	edx, [eax+13632]
	movups	XMMWORD PTR [edi+6816+eax], xmm0
	cmp	edx, 134217728
	movdqu	xmm1, XMMWORD PTR [esi+6832+eax]
	movdqu	xmm0, XMMWORD PTR [ebx+6832+eax]
	lea	edx, [eax+13648]
	paddb	xmm0, xmm1
	cmp	edx, 134217728
	lea	edx, [eax+13664]
	movups	XMMWORD PTR [edi+6832+eax], xmm0
	cmp	edx, 134217728
	movdqu	xmm1, XMMWORD PTR [esi+6848+eax]
	movdqu	xmm0, XMMWORD PTR [ebx+6848+eax]
	lea	edx, [eax+13680]
	paddb	xmm0, xmm1
	cmp	edx, 134217728
	lea	edx, [eax+13696]
	movups	XMMWORD PTR [edi+6848+eax], xmm0
	cmp	edx, 134217728
	movdqu	xmm1, XMMWORD PTR [esi+6864+eax]
	movdqu	xmm0, XMMWORD PTR [ebx+6864+eax]
	lea	edx, [eax+13712]
	paddb	xmm0, xmm1
	cmp	edx, 134217728
	lea	edx, [eax+13728]
	movups	XMMWORD PTR [edi+6864+eax], xmm0
	cmp	edx, 134217728
	movdqu	xmm1, XMMWORD PTR [esi+6880+eax]
	movdqu	xmm0, XMMWORD PTR [ebx+6880+eax]
	lea	edx, [eax+13744]
	paddb	xmm0, xmm1
	cmp	edx, 134217728
	lea	edx, [eax+13760]
	movups	XMMWORD PTR [edi+6880+eax], xmm0
	cmp	edx, 134217728
	movdqu	xmm1, XMMWORD PTR [esi+6896+eax]
	movdqu	xmm0, XMMWORD PTR [ebx+6896+eax]
	lea	edx, [eax+13776]
	paddb	xmm0, xmm1
	cmp	edx, 134217728
	lea	edx, [eax+13792]
	movups	XMMWORD PTR [edi+6896+eax], xmm0
	cmp	edx, 134217728
	movdqu	xmm1, XMMWORD PTR [esi+6912+eax]
	movdqu	xmm0, XMMWORD PTR [ebx+6912+eax]
	lea	edx, [eax+13808]
	paddb	xmm0, xmm1
	cmp	edx, 134217728
	lea	edx, [eax+13824]
	movups	XMMWORD PTR [edi+6912+eax], xmm0
	cmp	edx, 134217728
	movdqu	xmm1, XMMWORD PTR [esi+6928+eax]
	movdqu	xmm0, XMMWORD PTR [ebx+6928+eax]
	lea	edx, [eax+13840]
	paddb	xmm0, xmm1
	cmp	edx, 134217728
	lea	edx, [eax+13856]
	movups	XMMWORD PTR [edi+6928+eax], xmm0
	cmp	edx, 134217728
	movdqu	xmm1, XMMWORD PTR [esi+6944+eax]
	movdqu	xmm0, XMMWORD PTR [ebx+6944+eax]
	lea	edx, [eax+13872]
	paddb	xmm0, xmm1
	cmp	edx, 134217728
	lea	edx, [eax+13888]
	movups	XMMWORD PTR [edi+6944+eax], xmm0
	cmp	edx, 134217728
	movdqu	xmm1, XMMWORD PTR [esi+6960+eax]
	movdqu	xmm0, XMMWORD PTR [ebx+6960+eax]
	lea	edx, [eax+13904]
	paddb	xmm0, xmm1
	cmp	edx, 134217728
	lea	edx, [eax+13920]
	movups	XMMWORD PTR [edi+6960+eax], xmm0
	cmp	edx, 134217728
	movdqu	xmm1, XMMWORD PTR [esi+6976+eax]
	movdqu	xmm0, XMMWORD PTR [ebx+6976+eax]
	lea	edx, [eax+13936]
	paddb	xmm0, xmm1
	cmp	edx, 134217728
	lea	edx, [eax+13952]
	movups	XMMWORD PTR [edi+6976+eax], xmm0
	cmp	edx, 134217728
	movdqu	xmm1, XMMWORD PTR [esi+6992+eax]
	movdqu	xmm0, XMMWORD PTR [ebx+6992+eax]
	lea	edx, [eax+13968]
	paddb	xmm0, xmm1
	cmp	edx, 134217728
	lea	edx, [eax+13984]
	movups	XMMWORD PTR [edi+6992+eax], xmm0
	cmp	edx, 134217728
	movdqu	xmm1, XMMWORD PTR [esi+7008+eax]
	movdqu	xmm0, XMMWORD PTR [ebx+7008+eax]
	lea	edx, [eax+14000]
	paddb	xmm0, xmm1
	cmp	edx, 134217728
	lea	edx, [eax+14016]
	movups	XMMWORD PTR [edi+7008+eax], xmm0
	cmp	edx, 134217728
	movdqu	xmm1, XMMWORD PTR [esi+7024+eax]
	movdqu	xmm0, XMMWORD PTR [ebx+7024+eax]
	lea	edx, [eax+14032]
	paddb	xmm0, xmm1
	cmp	edx, 134217728
	lea	edx, [eax+14048]
	movups	XMMWORD PTR [edi+7024+eax], xmm0
	cmp	edx, 134217728
	movdqu	xmm1, XMMWORD PTR [esi+7040+eax]
	movdqu	xmm0, XMMWORD PTR [ebx+7040+eax]
	lea	edx, [eax+14064]
	paddb	xmm0, xmm1
	cmp	edx, 134217728
	lea	edx, [eax+14080]
	movups	XMMWORD PTR [edi+7040+eax], xmm0
	cmp	edx, 134217728
	movdqu	xmm1, XMMWORD PTR [esi+7056+eax]
	movdqu	xmm0, XMMWORD PTR [ebx+7056+eax]
	lea	edx, [eax+14096]
	paddb	xmm0, xmm1
	cmp	edx, 134217728
	lea	edx, [eax+14112]
	movups	XMMWORD PTR [edi+7056+eax], xmm0
	cmp	edx, 134217728
	movdqu	xmm1, XMMWORD PTR [esi+7072+eax]
	movdqu	xmm0, XMMWORD PTR [ebx+7072+eax]
	lea	edx, [eax+14128]
	paddb	xmm0, xmm1
	cmp	edx, 134217728
	lea	edx, [eax+14144]
	movups	XMMWORD PTR [edi+7072+eax], xmm0
	cmp	edx, 134217728
	movdqu	xmm1, XMMWORD PTR [esi+7088+eax]
	movdqu	xmm0, XMMWORD PTR [ebx+7088+eax]
	lea	edx, [eax+14160]
	paddb	xmm0, xmm1
	cmp	edx, 134217728
	lea	edx, [eax+14176]
	movups	XMMWORD PTR [edi+7088+eax], xmm0
	cmp	edx, 134217728
	movdqu	xmm1, XMMWORD PTR [esi+7104+eax]
	movdqu	xmm0, XMMWORD PTR [ebx+7104+eax]
	lea	edx, [eax+14192]
	paddb	xmm0, xmm1
	cmp	edx, 134217728
	lea	edx, [eax+14208]
	movups	XMMWORD PTR [edi+7104+eax], xmm0
	cmp	edx, 134217728
	movdqu	xmm1, XMMWORD PTR [esi+7120+eax]
	movdqu	xmm0, XMMWORD PTR [ebx+7120+eax]
	lea	edx, [eax+14224]
	paddb	xmm0, xmm1
	cmp	edx, 134217728
	lea	edx, [eax+14240]
	movups	XMMWORD PTR [edi+7120+eax], xmm0
	cmp	edx, 134217728
	movdqu	xmm1, XMMWORD PTR [esi+7136+eax]
	movdqu	xmm0, XMMWORD PTR [ebx+7136+eax]
	lea	edx, [eax+14256]
	paddb	xmm0, xmm1
	cmp	edx, 134217728
	lea	edx, [eax+14272]
	movups	XMMWORD PTR [edi+7136+eax], xmm0
	cmp	edx, 134217728
	movdqu	xmm1, XMMWORD PTR [esi+7152+eax]
	movdqu	xmm0, XMMWORD PTR [ebx+7152+eax]
	lea	edx, [eax+14288]
	paddb	xmm0, xmm1
	cmp	edx, 134217728
	lea	edx, [eax+14304]
	movups	XMMWORD PTR [edi+7152+eax], xmm0
	cmp	edx, 134217728
	movdqu	xmm1, XMMWORD PTR [esi+7168+eax]
	movdqu	xmm0, XMMWORD PTR [ebx+7168+eax]
	lea	edx, [eax+14320]
	paddb	xmm0, xmm1
	cmp	edx, 134217728
	lea	edx, [eax+14336]
	movups	XMMWORD PTR [edi+7168+eax], xmm0
	cmp	edx, 134217728
	movdqu	xmm1, XMMWORD PTR [esi+7184+eax]
	movdqu	xmm0, XMMWORD PTR [ebx+7184+eax]
	lea	edx, [eax+14352]
	paddb	xmm0, xmm1
	cmp	edx, 134217728
	lea	edx, [eax+14368]
	movups	XMMWORD PTR [edi+7184+eax], xmm0
	cmp	edx, 134217728
	movdqu	xmm1, XMMWORD PTR [esi+7200+eax]
	movdqu	xmm0, XMMWORD PTR [ebx+7200+eax]
	lea	edx, [eax+14384]
	paddb	xmm0, xmm1
	cmp	edx, 134217728
	lea	edx, [eax+14400]
	movups	XMMWORD PTR [edi+7200+eax], xmm0
	cmp	edx, 134217728
	movdqu	xmm1, XMMWORD PTR [esi+7216+eax]
	movdqu	xmm0, XMMWORD PTR [ebx+7216+eax]
	lea	edx, [eax+14416]
	paddb	xmm0, xmm1
	cmp	edx, 134217728
	lea	edx, [eax+14432]
	movups	XMMWORD PTR [edi+7216+eax], xmm0
	cmp	edx, 134217728
	movdqu	xmm1, XMMWORD PTR [esi+7232+eax]
	movdqu	xmm0, XMMWORD PTR [ebx+7232+eax]
	lea	edx, [eax+14448]
	paddb	xmm0, xmm1
	cmp	edx, 134217728
	lea	edx, [eax+14464]
	movups	XMMWORD PTR [edi+7232+eax], xmm0
	cmp	edx, 134217728
	movdqu	xmm1, XMMWORD PTR [esi+7248+eax]
	movdqu	xmm0, XMMWORD PTR [ebx+7248+eax]
	lea	edx, [eax+14480]
	paddb	xmm0, xmm1
	cmp	edx, 134217728
	lea	edx, [eax+14496]
	movups	XMMWORD PTR [edi+7248+eax], xmm0
	cmp	edx, 134217728
	movdqu	xmm1, XMMWORD PTR [esi+7264+eax]
	movdqu	xmm0, XMMWORD PTR [ebx+7264+eax]
	lea	edx, [eax+14512]
	paddb	xmm0, xmm1
	cmp	edx, 134217728
	lea	edx, [eax+14528]
	movups	XMMWORD PTR [edi+7264+eax], xmm0
	cmp	edx, 134217728
	movdqu	xmm1, XMMWORD PTR [esi+7280+eax]
	movdqu	xmm0, XMMWORD PTR [ebx+7280+eax]
	lea	edx, [eax+14544]
	paddb	xmm0, xmm1
	cmp	edx, 134217728
	lea	edx, [eax+14560]
	movups	XMMWORD PTR [edi+7280+eax], xmm0
	cmp	edx, 134217728
	movdqu	xmm1, XMMWORD PTR [esi+7296+eax]
	movdqu	xmm0, XMMWORD PTR [ebx+7296+eax]
	lea	edx, [eax+14576]
	paddb	xmm0, xmm1
	cmp	edx, 134217728
	lea	edx, [eax+14592]
	movups	XMMWORD PTR [edi+7296+eax], xmm0
	cmp	edx, 134217728
	movdqu	xmm1, XMMWORD PTR [esi+7312+eax]
	movdqu	xmm0, XMMWORD PTR [ebx+7312+eax]
	lea	edx, [eax+14608]
	paddb	xmm0, xmm1
	cmp	edx, 134217728
	lea	edx, [eax+14624]
	movups	XMMWORD PTR [edi+7312+eax], xmm0
	cmp	edx, 134217728
	movdqu	xmm1, XMMWORD PTR [esi+7328+eax]
	movdqu	xmm0, XMMWORD PTR [ebx+7328+eax]
	lea	edx, [eax+14640]
	paddb	xmm0, xmm1
	cmp	edx, 134217728
	lea	edx, [eax+14656]
	movups	XMMWORD PTR [edi+7328+eax], xmm0
	cmp	edx, 134217728
	movdqu	xmm1, XMMWORD PTR [esi+7344+eax]
	movdqu	xmm0, XMMWORD PTR [ebx+7344+eax]
	lea	edx, [eax+14672]
	paddb	xmm0, xmm1
	cmp	edx, 134217728
	lea	edx, [eax+14688]
	movups	XMMWORD PTR [edi+7344+eax], xmm0
	cmp	edx, 134217728
	movdqu	xmm1, XMMWORD PTR [esi+7360+eax]
	movdqu	xmm0, XMMWORD PTR [ebx+7360+eax]
	lea	edx, [eax+14704]
	paddb	xmm0, xmm1
	cmp	edx, 134217728
	lea	edx, [eax+14720]
	movups	XMMWORD PTR [edi+7360+eax], xmm0
	cmp	edx, 134217728
	movdqu	xmm1, XMMWORD PTR [esi+7376+eax]
	movdqu	xmm0, XMMWORD PTR [ebx+7376+eax]
	lea	edx, [eax+14736]
	paddb	xmm0, xmm1
	cmp	edx, 134217728
	lea	edx, [eax+14752]
	movups	XMMWORD PTR [edi+7376+eax], xmm0
	cmp	edx, 134217728
	movdqu	xmm1, XMMWORD PTR [esi+7392+eax]
	movdqu	xmm0, XMMWORD PTR [ebx+7392+eax]
	lea	edx, [eax+14768]
	paddb	xmm0, xmm1
	cmp	edx, 134217728
	lea	edx, [eax+14784]
	movups	XMMWORD PTR [edi+7392+eax], xmm0
	cmp	edx, 134217728
	movdqu	xmm1, XMMWORD PTR [esi+7408+eax]
	movdqu	xmm0, XMMWORD PTR [ebx+7408+eax]
	lea	edx, [eax+14800]
	paddb	xmm0, xmm1
	cmp	edx, 134217728
	lea	edx, [eax+14816]
	movups	XMMWORD PTR [edi+7408+eax], xmm0
	cmp	edx, 134217728
	movdqu	xmm1, XMMWORD PTR [esi+7424+eax]
	movdqu	xmm0, XMMWORD PTR [ebx+7424+eax]
	lea	edx, [eax+14832]
	paddb	xmm0, xmm1
	cmp	edx, 134217728
	lea	edx, [eax+14848]
	movups	XMMWORD PTR [edi+7424+eax], xmm0
	cmp	edx, 134217728
	movdqu	xmm1, XMMWORD PTR [esi+7440+eax]
	movdqu	xmm0, XMMWORD PTR [ebx+7440+eax]
	lea	edx, [eax+14864]
	paddb	xmm0, xmm1
	cmp	edx, 134217728
	lea	edx, [eax+14880]
	movups	XMMWORD PTR [edi+7440+eax], xmm0
	cmp	edx, 134217728
	movdqu	xmm1, XMMWORD PTR [esi+7456+eax]
	movdqu	xmm0, XMMWORD PTR [ebx+7456+eax]
	lea	edx, [eax+14896]
	paddb	xmm0, xmm1
	cmp	edx, 134217728
	lea	edx, [eax+14912]
	movups	XMMWORD PTR [edi+7456+eax], xmm0
	cmp	edx, 134217728
	movdqu	xmm1, XMMWORD PTR [esi+7472+eax]
	movdqu	xmm0, XMMWORD PTR [ebx+7472+eax]
	lea	edx, [eax+14928]
	paddb	xmm0, xmm1
	cmp	edx, 134217728
	lea	edx, [eax+14944]
	movups	XMMWORD PTR [edi+7472+eax], xmm0
	cmp	edx, 134217728
	movdqu	xmm1, XMMWORD PTR [esi+7488+eax]
	movdqu	xmm0, XMMWORD PTR [ebx+7488+eax]
	lea	edx, [eax+14960]
	paddb	xmm0, xmm1
	cmp	edx, 134217728
	lea	edx, [eax+14976]
	movups	XMMWORD PTR [edi+7488+eax], xmm0
	cmp	edx, 134217728
	movdqu	xmm1, XMMWORD PTR [esi+7504+eax]
	movdqu	xmm0, XMMWORD PTR [ebx+7504+eax]
	lea	edx, [eax+14992]
	paddb	xmm0, xmm1
	cmp	edx, 134217728
	lea	edx, [eax+15008]
	movups	XMMWORD PTR [edi+7504+eax], xmm0
	cmp	edx, 134217728
	movdqu	xmm1, XMMWORD PTR [esi+7520+eax]
	movdqu	xmm0, XMMWORD PTR [ebx+7520+eax]
	lea	edx, [eax+15024]
	paddb	xmm0, xmm1
	cmp	edx, 134217728
	lea	edx, [eax+15040]
	movups	XMMWORD PTR [edi+7520+eax], xmm0
	cmp	edx, 134217728
	movdqu	xmm1, XMMWORD PTR [esi+7536+eax]
	movdqu	xmm0, XMMWORD PTR [ebx+7536+eax]
	lea	edx, [eax+15056]
	paddb	xmm0, xmm1
	cmp	edx, 134217728
	lea	edx, [eax+15072]
	movups	XMMWORD PTR [edi+7536+eax], xmm0
	cmp	edx, 134217728
	movdqu	xmm1, XMMWORD PTR [esi+7552+eax]
	movdqu	xmm0, XMMWORD PTR [ebx+7552+eax]
	lea	edx, [eax+15088]
	paddb	xmm0, xmm1
	cmp	edx, 134217728
	lea	edx, [eax+15104]
	movups	XMMWORD PTR [edi+7552+eax], xmm0
	cmp	edx, 134217728
	movdqu	xmm1, XMMWORD PTR [esi+7568+eax]
	movdqu	xmm0, XMMWORD PTR [ebx+7568+eax]
	lea	edx, [eax+15120]
	paddb	xmm0, xmm1
	cmp	edx, 134217728
	lea	edx, [eax+15136]
	movups	XMMWORD PTR [edi+7568+eax], xmm0
	cmp	edx, 134217728
	movdqu	xmm1, XMMWORD PTR [esi+7584+eax]
	movdqu	xmm0, XMMWORD PTR [ebx+7584+eax]
	lea	edx, [eax+15152]
	paddb	xmm0, xmm1
	cmp	edx, 134217728
	lea	edx, [eax+15168]
	movups	XMMWORD PTR [edi+7584+eax], xmm0
	cmp	edx, 134217728
	movdqu	xmm1, XMMWORD PTR [esi+7600+eax]
	movdqu	xmm0, XMMWORD PTR [ebx+7600+eax]
	lea	edx, [eax+15184]
	paddb	xmm0, xmm1
	cmp	edx, 134217728
	lea	edx, [eax+15200]
	movups	XMMWORD PTR [edi+7600+eax], xmm0
	cmp	edx, 134217728
	movdqu	xmm1, XMMWORD PTR [esi+7616+eax]
	movdqu	xmm0, XMMWORD PTR [ebx+7616+eax]
	lea	edx, [eax+15216]
	paddb	xmm0, xmm1
	cmp	edx, 134217728
	lea	edx, [eax+15232]
	movups	XMMWORD PTR [edi+7616+eax], xmm0
	cmp	edx, 134217728
	movdqu	xmm1, XMMWORD PTR [esi+7632+eax]
	movdqu	xmm0, XMMWORD PTR [ebx+7632+eax]
	lea	edx, [eax+15248]
	paddb	xmm0, xmm1
	cmp	edx, 134217728
	lea	edx, [eax+15264]
	movups	XMMWORD PTR [edi+7632+eax], xmm0
	cmp	edx, 134217728
	movdqu	xmm1, XMMWORD PTR [esi+7648+eax]
	movdqu	xmm0, XMMWORD PTR [ebx+7648+eax]
	lea	edx, [eax+15280]
	paddb	xmm0, xmm1
	cmp	edx, 134217728
	lea	edx, [eax+15296]
	movups	XMMWORD PTR [edi+7648+eax], xmm0
	cmp	edx, 134217728
	movdqu	xmm1, XMMWORD PTR [esi+7664+eax]
	movdqu	xmm0, XMMWORD PTR [ebx+7664+eax]
	lea	edx, [eax+15312]
	paddb	xmm0, xmm1
	cmp	edx, 134217728
	lea	edx, [eax+15328]
	movups	XMMWORD PTR [edi+7664+eax], xmm0
	cmp	edx, 134217728
	movdqu	xmm1, XMMWORD PTR [esi+7680+eax]
	movdqu	xmm0, XMMWORD PTR [ebx+7680+eax]
	lea	edx, [eax+15344]
	paddb	xmm0, xmm1
	cmp	edx, 134217728
	lea	edx, [eax+15360]
	movups	XMMWORD PTR [edi+7680+eax], xmm0
	cmp	edx, 134217728
	movdqu	xmm1, XMMWORD PTR [esi+7696+eax]
	movdqu	xmm0, XMMWORD PTR [ebx+7696+eax]
	lea	edx, [eax+15376]
	paddb	xmm0, xmm1
	cmp	edx, 134217728
	lea	edx, [eax+15392]
	movups	XMMWORD PTR [edi+7696+eax], xmm0
	cmp	edx, 134217728
	movdqu	xmm1, XMMWORD PTR [esi+7712+eax]
	movdqu	xmm0, XMMWORD PTR [ebx+7712+eax]
	lea	edx, [eax+15408]
	paddb	xmm0, xmm1
	cmp	edx, 134217728
	lea	edx, [eax+15424]
	movups	XMMWORD PTR [edi+7712+eax], xmm0
	cmp	edx, 134217728
	movdqu	xmm1, XMMWORD PTR [esi+7728+eax]
	movdqu	xmm0, XMMWORD PTR [ebx+7728+eax]
	lea	edx, [eax+15440]
	paddb	xmm0, xmm1
	cmp	edx, 134217728
	lea	edx, [eax+15456]
	movups	XMMWORD PTR [edi+7728+eax], xmm0
	cmp	edx, 134217728
	movdqu	xmm1, XMMWORD PTR [esi+7744+eax]
	movdqu	xmm0, XMMWORD PTR [ebx+7744+eax]
	lea	edx, [eax+15472]
	paddb	xmm0, xmm1
	cmp	edx, 134217728
	lea	edx, [eax+15488]
	movups	XMMWORD PTR [edi+7744+eax], xmm0
	cmp	edx, 134217728
	movdqu	xmm1, XMMWORD PTR [esi+7760+eax]
	movdqu	xmm0, XMMWORD PTR [ebx+7760+eax]
	lea	edx, [eax+15504]
	paddb	xmm0, xmm1
	cmp	edx, 134217728
	lea	edx, [eax+15520]
	movups	XMMWORD PTR [edi+7760+eax], xmm0
	cmp	edx, 134217728
	movdqu	xmm1, XMMWORD PTR [esi+7776+eax]
	movdqu	xmm0, XMMWORD PTR [ebx+7776+eax]
	lea	edx, [eax+15536]
	paddb	xmm0, xmm1
	cmp	edx, 134217728
	lea	edx, [eax+15552]
	movups	XMMWORD PTR [edi+7776+eax], xmm0
	cmp	edx, 134217728
	movdqu	xmm1, XMMWORD PTR [esi+7792+eax]
	movdqu	xmm0, XMMWORD PTR [ebx+7792+eax]
	lea	edx, [eax+15568]
	paddb	xmm0, xmm1
	cmp	edx, 134217728
	lea	edx, [eax+15584]
	movups	XMMWORD PTR [edi+7792+eax], xmm0
	cmp	edx, 134217728
	movdqu	xmm1, XMMWORD PTR [esi+7808+eax]
	movdqu	xmm0, XMMWORD PTR [ebx+7808+eax]
	lea	edx, [eax+15600]
	paddb	xmm0, xmm1
	cmp	edx, 134217728
	lea	edx, [eax+15616]
	movups	XMMWORD PTR [edi+7808+eax], xmm0
	cmp	edx, 134217728
	movdqu	xmm1, XMMWORD PTR [esi+7824+eax]
	movdqu	xmm0, XMMWORD PTR [ebx+7824+eax]
	lea	edx, [eax+15632]
	paddb	xmm0, xmm1
	cmp	edx, 134217728
	lea	edx, [eax+15648]
	movups	XMMWORD PTR [edi+7824+eax], xmm0
	cmp	edx, 134217728
	movdqu	xmm1, XMMWORD PTR [esi+7840+eax]
	movdqu	xmm0, XMMWORD PTR [ebx+7840+eax]
	lea	edx, [eax+15664]
	paddb	xmm0, xmm1
	cmp	edx, 134217728
	lea	edx, [eax+15680]
	movups	XMMWORD PTR [edi+7840+eax], xmm0
	cmp	edx, 134217728
	movdqu	xmm1, XMMWORD PTR [esi+7856+eax]
	movdqu	xmm0, XMMWORD PTR [ebx+7856+eax]
	lea	edx, [eax+15696]
	paddb	xmm0, xmm1
	cmp	edx, 134217728
	lea	edx, [eax+15712]
	movups	XMMWORD PTR [edi+7856+eax], xmm0
	cmp	edx, 134217728
	movdqu	xmm1, XMMWORD PTR [esi+7872+eax]
	movdqu	xmm0, XMMWORD PTR [ebx+7872+eax]
	lea	edx, [eax+15728]
	paddb	xmm0, xmm1
	cmp	edx, 134217728
	lea	edx, [eax+15744]
	movups	XMMWORD PTR [edi+7872+eax], xmm0
	cmp	edx, 134217728
	movdqu	xmm1, XMMWORD PTR [esi+7888+eax]
	movdqu	xmm0, XMMWORD PTR [ebx+7888+eax]
	lea	edx, [eax+15760]
	paddb	xmm0, xmm1
	cmp	edx, 134217728
	lea	edx, [eax+15776]
	movups	XMMWORD PTR [edi+7888+eax], xmm0
	cmp	edx, 134217728
	movdqu	xmm1, XMMWORD PTR [esi+7904+eax]
	movdqu	xmm0, XMMWORD PTR [ebx+7904+eax]
	lea	edx, [eax+15792]
	paddb	xmm0, xmm1
	cmp	edx, 134217728
	lea	edx, [eax+15808]
	movups	XMMWORD PTR [edi+7904+eax], xmm0
	cmp	edx, 134217728
	movdqu	xmm1, XMMWORD PTR [esi+7920+eax]
	movdqu	xmm0, XMMWORD PTR [ebx+7920+eax]
	lea	edx, [eax+15824]
	paddb	xmm0, xmm1
	cmp	edx, 134217728
	lea	edx, [eax+15840]
	movups	XMMWORD PTR [edi+7920+eax], xmm0
	cmp	edx, 134217728
	movdqu	xmm1, XMMWORD PTR [esi+7936+eax]
	movdqu	xmm0, XMMWORD PTR [ebx+7936+eax]
	lea	edx, [eax+15856]
	paddb	xmm0, xmm1
	cmp	edx, 134217728
	lea	edx, [eax+15872]
	movups	XMMWORD PTR [edi+7936+eax], xmm0
	cmp	edx, 134217728
	movdqu	xmm1, XMMWORD PTR [esi+7952+eax]
	movdqu	xmm0, XMMWORD PTR [ebx+7952+eax]
	lea	edx, [eax+15888]
	paddb	xmm0, xmm1
	cmp	edx, 134217728
	lea	edx, [eax+15904]
	movups	XMMWORD PTR [edi+7952+eax], xmm0
	cmp	edx, 134217728
	movdqu	xmm1, XMMWORD PTR [esi+7968+eax]
	movdqu	xmm0, XMMWORD PTR [ebx+7968+eax]
	lea	edx, [eax+15920]
	paddb	xmm0, xmm1
	cmp	edx, 134217728
	lea	edx, [eax+15936]
	movups	XMMWORD PTR [edi+7968+eax], xmm0
	cmp	edx, 134217728
	movdqu	xmm1, XMMWORD PTR [esi+7984+eax]
	movdqu	xmm0, XMMWORD PTR [ebx+7984+eax]
	lea	edx, [eax+15952]
	paddb	xmm0, xmm1
	cmp	edx, 134217728
	lea	edx, [eax+15968]
	movups	XMMWORD PTR [edi+7984+eax], xmm0
	cmp	edx, 134217728
	movdqu	xmm1, XMMWORD PTR [esi+8000+eax]
	movdqu	xmm0, XMMWORD PTR [ebx+8000+eax]
	lea	edx, [eax+15984]
	paddb	xmm0, xmm1
	cmp	edx, 134217728
	lea	edx, [eax+16000]
	movups	XMMWORD PTR [edi+8000+eax], xmm0
	cmp	edx, 134217728
	movdqu	xmm1, XMMWORD PTR [esi+8016+eax]
	movdqu	xmm0, XMMWORD PTR [ebx+8016+eax]
	lea	edx, [eax+16016]
	paddb	xmm0, xmm1
	cmp	edx, 134217728
	lea	edx, [eax+16032]
	movups	XMMWORD PTR [edi+8016+eax], xmm0
	cmp	edx, 134217728
	movdqu	xmm1, XMMWORD PTR [esi+8032+eax]
	movdqu	xmm0, XMMWORD PTR [ebx+8032+eax]
	lea	edx, [eax+16048]
	paddb	xmm0, xmm1
	cmp	edx, 134217728
	lea	edx, [eax+16064]
	movups	XMMWORD PTR [edi+8032+eax], xmm0
	cmp	edx, 134217728
	movdqu	xmm1, XMMWORD PTR [esi+8048+eax]
	movdqu	xmm0, XMMWORD PTR [ebx+8048+eax]
	lea	edx, [eax+16080]
	paddb	xmm0, xmm1
	cmp	edx, 134217728
	lea	edx, [eax+16096]
	movups	XMMWORD PTR [edi+8048+eax], xmm0
	cmp	edx, 134217728
	movdqu	xmm1, XMMWORD PTR [esi+8064+eax]
	movdqu	xmm0, XMMWORD PTR [ebx+8064+eax]
	lea	edx, [eax+16112]
	paddb	xmm0, xmm1
	cmp	edx, 134217728
	lea	edx, [eax+16128]
	movups	XMMWORD PTR [edi+8064+eax], xmm0
	cmp	edx, 134217728
	movdqu	xmm1, XMMWORD PTR [esi+8080+eax]
	movdqu	xmm0, XMMWORD PTR [ebx+8080+eax]
	lea	edx, [eax+16144]
	paddb	xmm0, xmm1
	cmp	edx, 134217728
	lea	edx, [eax+16160]
	movups	XMMWORD PTR [edi+8080+eax], xmm0
	cmp	edx, 134217728
	movdqu	xmm1, XMMWORD PTR [esi+8096+eax]
	movdqu	xmm0, XMMWORD PTR [ebx+8096+eax]
	lea	edx, [eax+16176]
	paddb	xmm0, xmm1
	cmp	edx, 134217728
	lea	edx, [eax+16192]
	movups	XMMWORD PTR [edi+8096+eax], xmm0
	cmp	edx, 134217728
	movdqu	xmm1, XMMWORD PTR [esi+8112+eax]
	movdqu	xmm0, XMMWORD PTR [ebx+8112+eax]
	lea	edx, [eax+16208]
	paddb	xmm0, xmm1
	cmp	edx, 134217728
	lea	edx, [eax+16224]
	movups	XMMWORD PTR [edi+8112+eax], xmm0
	cmp	edx, 134217728
	movdqu	xmm1, XMMWORD PTR [esi+8128+eax]
	movdqu	xmm0, XMMWORD PTR [ebx+8128+eax]
	lea	edx, [eax+16240]
	paddb	xmm0, xmm1
	cmp	edx, 134217728
	lea	edx, [eax+16256]
	movups	XMMWORD PTR [edi+8128+eax], xmm0
	cmp	edx, 134217728
	movdqu	xmm1, XMMWORD PTR [esi+8144+eax]
	movdqu	xmm0, XMMWORD PTR [ebx+8144+eax]
	lea	edx, [eax+16272]
	paddb	xmm0, xmm1
	cmp	edx, 134217728
	lea	edx, [eax+16288]
	movups	XMMWORD PTR [edi+8144+eax], xmm0
	cmp	edx, 134217728
	movdqu	xmm1, XMMWORD PTR [esi+8160+eax]
	movdqu	xmm0, XMMWORD PTR [ebx+8160+eax]
	lea	edx, [eax+16304]
	paddb	xmm0, xmm1
	cmp	edx, 134217728
	lea	edx, [eax+16320]
	movups	XMMWORD PTR [edi+8160+eax], xmm0
	cmp	edx, 134217728
	movdqu	xmm1, XMMWORD PTR [esi+8176+eax]
	movdqu	xmm0, XMMWORD PTR [ebx+8176+eax]
	lea	edx, [eax+16336]
	paddb	xmm0, xmm1
	cmp	edx, 134217728
	lea	edx, [eax+16352]
	movups	XMMWORD PTR [edi+8176+eax], xmm0
	cmp	edx, 134217728
	movdqu	xmm1, XMMWORD PTR [esi+8192+eax]
	movdqu	xmm0, XMMWORD PTR [ebx+8192+eax]
	lea	edx, [eax+16368]
	paddb	xmm0, xmm1
	movups	XMMWORD PTR [edi+8192+eax], xmm0
	movdqu	xmm1, XMMWORD PTR [esi+8208+eax]
	movdqu	xmm0, XMMWORD PTR [ebx+8208+eax]
	paddb	xmm0, xmm1
	movups	XMMWORD PTR [edi+8208+eax], xmm0
	movdqu	xmm1, XMMWORD PTR [esi+8224+eax]
	movdqu	xmm0, XMMWORD PTR [ebx+8224+eax]
	paddb	xmm0, xmm1
	movups	XMMWORD PTR [edi+8224+eax], xmm0
	movdqu	xmm1, XMMWORD PTR [esi+8240+eax]
	movdqu	xmm0, XMMWORD PTR [ebx+8240+eax]
	paddb	xmm0, xmm1
	movups	XMMWORD PTR [edi+8240+eax], xmm0
	movdqu	xmm1, XMMWORD PTR [esi+8256+eax]
	movdqu	xmm0, XMMWORD PTR [ebx+8256+eax]
	paddb	xmm0, xmm1
	movups	XMMWORD PTR [edi+8256+eax], xmm0
	movdqu	xmm1, XMMWORD PTR [esi+8272+eax]
	movdqu	xmm0, XMMWORD PTR [ebx+8272+eax]
	paddb	xmm0, xmm1
	movups	XMMWORD PTR [edi+8272+eax], xmm0
	movdqu	xmm1, XMMWORD PTR [esi+8288+eax]
	movdqu	xmm0, XMMWORD PTR [ebx+8288+eax]
	paddb	xmm0, xmm1
	movups	XMMWORD PTR [edi+8288+eax], xmm0
	movdqu	xmm1, XMMWORD PTR [esi+8304+eax]
	movdqu	xmm0, XMMWORD PTR [ebx+8304+eax]
	paddb	xmm0, xmm1
	movups	XMMWORD PTR [edi+8304+eax], xmm0
	movdqu	xmm1, XMMWORD PTR [esi+8320+eax]
	movdqu	xmm0, XMMWORD PTR [ebx+8320+eax]
	paddb	xmm0, xmm1
	movups	XMMWORD PTR [edi+8320+eax], xmm0
	movdqu	xmm1, XMMWORD PTR [esi+8336+eax]
	movdqu	xmm0, XMMWORD PTR [ebx+8336+eax]
	paddb	xmm0, xmm1
	movups	XMMWORD PTR [edi+8336+eax], xmm0
	movdqu	xmm1, XMMWORD PTR [esi+8352+eax]
	movdqu	xmm0, XMMWORD PTR [ebx+8352+eax]
	paddb	xmm0, xmm1
	movups	XMMWORD PTR [edi+8352+eax], xmm0
	movdqu	xmm1, XMMWORD PTR [esi+8368+eax]
	movdqu	xmm0, XMMWORD PTR [ebx+8368+eax]
	paddb	xmm0, xmm1
	movups	XMMWORD PTR [edi+8368+eax], xmm0
	movdqu	xmm1, XMMWORD PTR [esi+8384+eax]
	movdqu	xmm0, XMMWORD PTR [ebx+8384+eax]
	paddb	xmm0, xmm1
	movups	XMMWORD PTR [edi+8384+eax], xmm0
	movdqu	xmm1, XMMWORD PTR [esi+8400+eax]
	movdqu	xmm0, XMMWORD PTR [ebx+8400+eax]
	paddb	xmm0, xmm1
	movups	XMMWORD PTR [edi+8400+eax], xmm0
	movdqu	xmm1, XMMWORD PTR [esi+8416+eax]
	movdqu	xmm0, XMMWORD PTR [ebx+8416+eax]
	paddb	xmm0, xmm1
	movups	XMMWORD PTR [edi+8416+eax], xmm0
	movdqu	xmm1, XMMWORD PTR [esi+8432+eax]
	movdqu	xmm0, XMMWORD PTR [ebx+8432+eax]
	paddb	xmm0, xmm1
	movups	XMMWORD PTR [edi+8432+eax], xmm0
	movdqu	xmm1, XMMWORD PTR [esi+8448+eax]
	movdqu	xmm0, XMMWORD PTR [ebx+8448+eax]
	paddb	xmm0, xmm1
	movups	XMMWORD PTR [edi+8448+eax], xmm0
	movdqu	xmm1, XMMWORD PTR [esi+8464+eax]
	movdqu	xmm0, XMMWORD PTR [ebx+8464+eax]
	paddb	xmm0, xmm1
	movups	XMMWORD PTR [edi+8464+eax], xmm0
	movdqu	xmm1, XMMWORD PTR [esi+8480+eax]
	movdqu	xmm0, XMMWORD PTR [ebx+8480+eax]
	paddb	xmm0, xmm1
	movups	XMMWORD PTR [edi+8480+eax], xmm0
	movdqu	xmm1, XMMWORD PTR [esi+8496+eax]
	movdqu	xmm0, XMMWORD PTR [ebx+8496+eax]
	paddb	xmm0, xmm1
	movups	XMMWORD PTR [edi+8496+eax], xmm0
	movdqu	xmm1, XMMWORD PTR [esi+8512+eax]
	movdqu	xmm0, XMMWORD PTR [ebx+8512+eax]
	paddb	xmm0, xmm1
	movups	XMMWORD PTR [edi+8512+eax], xmm0
	movdqu	xmm1, XMMWORD PTR [esi+8528+eax]
	movdqu	xmm0, XMMWORD PTR [ebx+8528+eax]
	paddb	xmm0, xmm1
	movups	XMMWORD PTR [edi+8528+eax], xmm0
	movdqu	xmm1, XMMWORD PTR [esi+8544+eax]
	movdqu	xmm0, XMMWORD PTR [ebx+8544+eax]
	paddb	xmm0, xmm1
	movups	XMMWORD PTR [edi+8544+eax], xmm0
	movdqu	xmm1, XMMWORD PTR [esi+8560+eax]
	movdqu	xmm0, XMMWORD PTR [ebx+8560+eax]
	paddb	xmm0, xmm1
	movups	XMMWORD PTR [edi+8560+eax], xmm0
	movdqu	xmm1, XMMWORD PTR [esi+8576+eax]
	movdqu	xmm0, XMMWORD PTR [ebx+8576+eax]
	paddb	xmm0, xmm1
	movups	XMMWORD PTR [edi+8576+eax], xmm0
	movdqu	xmm1, XMMWORD PTR [esi+8592+eax]
	movdqu	xmm0, XMMWORD PTR [ebx+8592+eax]
	paddb	xmm0, xmm1
	movups	XMMWORD PTR [edi+8592+eax], xmm0
	movdqu	xmm1, XMMWORD PTR [esi+8608+eax]
	movdqu	xmm0, XMMWORD PTR [ebx+8608+eax]
	paddb	xmm0, xmm1
	movups	XMMWORD PTR [edi+8608+eax], xmm0
	movdqu	xmm1, XMMWORD PTR [esi+8624+eax]
	movdqu	xmm0, XMMWORD PTR [ebx+8624+eax]
	paddb	xmm0, xmm1
	movups	XMMWORD PTR [edi+8624+eax], xmm0
	movdqu	xmm1, XMMWORD PTR [esi+8640+eax]
	movdqu	xmm0, XMMWORD PTR [ebx+8640+eax]
	paddb	xmm0, xmm1
	movups	XMMWORD PTR [edi+8640+eax], xmm0
	movdqu	xmm1, XMMWORD PTR [esi+8656+eax]
	movdqu	xmm0, XMMWORD PTR [ebx+8656+eax]
	paddb	xmm0, xmm1
	movups	XMMWORD PTR [edi+8656+eax], xmm0
	movdqu	xmm1, XMMWORD PTR [esi+8672+eax]
	movdqu	xmm0, XMMWORD PTR [ebx+8672+eax]
	paddb	xmm0, xmm1
	movups	XMMWORD PTR [edi+8672+eax], xmm0
	movdqu	xmm1, XMMWORD PTR [esi+8688+eax]
	movdqu	xmm0, XMMWORD PTR [ebx+8688+eax]
	paddb	xmm0, xmm1
	movups	XMMWORD PTR [edi+8688+eax], xmm0
	movdqu	xmm1, XMMWORD PTR [esi+8704+eax]
	movdqu	xmm0, XMMWORD PTR [ebx+8704+eax]
	paddb	xmm0, xmm1
	movups	XMMWORD PTR [edi+8704+eax], xmm0
	movdqu	xmm1, XMMWORD PTR [esi+8720+eax]
	movdqu	xmm0, XMMWORD PTR [ebx+8720+eax]
	paddb	xmm0, xmm1
	movups	XMMWORD PTR [edi+8720+eax], xmm0
	movdqu	xmm1, XMMWORD PTR [esi+8736+eax]
	movdqu	xmm0, XMMWORD PTR [ebx+8736+eax]
	paddb	xmm0, xmm1
	movups	XMMWORD PTR [edi+8736+eax], xmm0
	movdqu	xmm1, XMMWORD PTR [esi+8752+eax]
	movdqu	xmm0, XMMWORD PTR [ebx+8752+eax]
	paddb	xmm0, xmm1
	movups	XMMWORD PTR [edi+8752+eax], xmm0
	movdqu	xmm1, XMMWORD PTR [esi+8768+eax]
	movdqu	xmm0, XMMWORD PTR [ebx+8768+eax]
	paddb	xmm0, xmm1
	movups	XMMWORD PTR [edi+8768+eax], xmm0
	movdqu	xmm1, XMMWORD PTR [esi+8784+eax]
	movdqu	xmm0, XMMWORD PTR [ebx+8784+eax]
	paddb	xmm0, xmm1
	movups	XMMWORD PTR [edi+8784+eax], xmm0
	movdqu	xmm1, XMMWORD PTR [esi+8800+eax]
	movdqu	xmm0, XMMWORD PTR [ebx+8800+eax]
	paddb	xmm0, xmm1
	movups	XMMWORD PTR [edi+8800+eax], xmm0
	movdqu	xmm1, XMMWORD PTR [esi+8816+eax]
	movdqu	xmm0, XMMWORD PTR [ebx+8816+eax]
	paddb	xmm0, xmm1
	movups	XMMWORD PTR [edi+8816+eax], xmm0
	movdqu	xmm1, XMMWORD PTR [esi+8832+eax]
	movdqu	xmm0, XMMWORD PTR [ebx+8832+eax]
	paddb	xmm0, xmm1
	movups	XMMWORD PTR [edi+8832+eax], xmm0
	movdqu	xmm1, XMMWORD PTR [esi+8848+eax]
	movdqu	xmm0, XMMWORD PTR [ebx+8848+eax]
	paddb	xmm0, xmm1
	movups	XMMWORD PTR [edi+8848+eax], xmm0
	movdqu	xmm1, XMMWORD PTR [esi+8864+eax]
	movdqu	xmm0, XMMWORD PTR [ebx+8864+eax]
	paddb	xmm0, xmm1
	movups	XMMWORD PTR [edi+8864+eax], xmm0
	movdqu	xmm1, XMMWORD PTR [esi+8880+eax]
	movdqu	xmm0, XMMWORD PTR [ebx+8880+eax]
	paddb	xmm0, xmm1
	movups	XMMWORD PTR [edi+8880+eax], xmm0
	movdqu	xmm1, XMMWORD PTR [esi+8896+eax]
	movdqu	xmm0, XMMWORD PTR [ebx+8896+eax]
	paddb	xmm0, xmm1
	movups	XMMWORD PTR [edi+8896+eax], xmm0
	movdqu	xmm1, XMMWORD PTR [esi+8912+eax]
	movdqu	xmm0, XMMWORD PTR [ebx+8912+eax]
	paddb	xmm0, xmm1
	movups	XMMWORD PTR [edi+8912+eax], xmm0
	movdqu	xmm1, XMMWORD PTR [esi+8928+eax]
	movdqu	xmm0, XMMWORD PTR [ebx+8928+eax]
	paddb	xmm0, xmm1
	movups	XMMWORD PTR [edi+8928+eax], xmm0
	movdqu	xmm1, XMMWORD PTR [esi+8944+eax]
	movdqu	xmm0, XMMWORD PTR [ebx+8944+eax]
	paddb	xmm0, xmm1
	movups	XMMWORD PTR [edi+8944+eax], xmm0
	movdqu	xmm1, XMMWORD PTR [esi+8960+eax]
	movdqu	xmm0, XMMWORD PTR [ebx+8960+eax]
	paddb	xmm0, xmm1
	movups	XMMWORD PTR [edi+8960+eax], xmm0
	movdqu	xmm1, XMMWORD PTR [esi+8976+eax]
	movdqu	xmm0, XMMWORD PTR [ebx+8976+eax]
	paddb	xmm0, xmm1
	movups	XMMWORD PTR [edi+8976+eax], xmm0
	movdqu	xmm1, XMMWORD PTR [esi+8992+eax]
	movdqu	xmm0, XMMWORD PTR [ebx+8992+eax]
	paddb	xmm0, xmm1
	movups	XMMWORD PTR [edi+8992+eax], xmm0
	movdqu	xmm1, XMMWORD PTR [esi+9008+eax]
	movdqu	xmm0, XMMWORD PTR [ebx+9008+eax]
	paddb	xmm0, xmm1
	movups	XMMWORD PTR [edi+9008+eax], xmm0
	movdqu	xmm1, XMMWORD PTR [esi+9024+eax]
	movdqu	xmm0, XMMWORD PTR [ebx+9024+eax]
	paddb	xmm0, xmm1
	movups	XMMWORD PTR [edi+9024+eax], xmm0
	movdqu	xmm1, XMMWORD PTR [esi+9040+eax]
	movdqu	xmm0, XMMWORD PTR [ebx+9040+eax]
	paddb	xmm0, xmm1
	movups	XMMWORD PTR [edi+9040+eax], xmm0
	movdqu	xmm1, XMMWORD PTR [esi+9056+eax]
	movdqu	xmm0, XMMWORD PTR [ebx+9056+eax]
	paddb	xmm0, xmm1
	movups	XMMWORD PTR [edi+9056+eax], xmm0
	movdqu	xmm1, XMMWORD PTR [esi+9072+eax]
	movdqu	xmm0, XMMWORD PTR [ebx+9072+eax]
	paddb	xmm0, xmm1
	movups	XMMWORD PTR [edi+9072+eax], xmm0
	movdqu	xmm1, XMMWORD PTR [esi+9088+eax]
	movdqu	xmm0, XMMWORD PTR [ebx+9088+eax]
	paddb	xmm0, xmm1
	movups	XMMWORD PTR [edi+9088+eax], xmm0
	movdqu	xmm1, XMMWORD PTR [esi+9104+eax]
	movdqu	xmm0, XMMWORD PTR [ebx+9104+eax]
	paddb	xmm0, xmm1
	movups	XMMWORD PTR [edi+9104+eax], xmm0
	movdqu	xmm1, XMMWORD PTR [esi+9120+eax]
	movdqu	xmm0, XMMWORD PTR [ebx+9120+eax]
	paddb	xmm0, xmm1
	movups	XMMWORD PTR [edi+9120+eax], xmm0
	movdqu	xmm1, XMMWORD PTR [esi+9136+eax]
	movdqu	xmm0, XMMWORD PTR [ebx+9136+eax]
	paddb	xmm0, xmm1
	movups	XMMWORD PTR [edi+9136+eax], xmm0
	movdqu	xmm1, XMMWORD PTR [esi+9152+eax]
	movdqu	xmm0, XMMWORD PTR [ebx+9152+eax]
	paddb	xmm0, xmm1
	movups	XMMWORD PTR [edi+9152+eax], xmm0
	movdqu	xmm1, XMMWORD PTR [esi+9168+eax]
	movdqu	xmm0, XMMWORD PTR [ebx+9168+eax]
	paddb	xmm0, xmm1
	movups	XMMWORD PTR [edi+9168+eax], xmm0
	movdqu	xmm1, XMMWORD PTR [esi+9184+eax]
	movdqu	xmm0, XMMWORD PTR [ebx+9184+eax]
	paddb	xmm0, xmm1
	movups	XMMWORD PTR [edi+9184+eax], xmm0
	movdqu	xmm1, XMMWORD PTR [esi+9200+eax]
	movdqu	xmm0, XMMWORD PTR [ebx+9200+eax]
	paddb	xmm0, xmm1
	movups	XMMWORD PTR [edi+9200+eax], xmm0
	movdqu	xmm1, XMMWORD PTR [esi+9216+eax]
	movdqu	xmm0, XMMWORD PTR [ebx+9216+eax]
	paddb	xmm0, xmm1
	movups	XMMWORD PTR [edi+9216+eax], xmm0
	movdqu	xmm1, XMMWORD PTR [esi+9232+eax]
	movdqu	xmm0, XMMWORD PTR [ebx+9232+eax]
	paddb	xmm0, xmm1
	movups	XMMWORD PTR [edi+9232+eax], xmm0
	movdqu	xmm1, XMMWORD PTR [esi+9248+eax]
	movdqu	xmm0, XMMWORD PTR [ebx+9248+eax]
	paddb	xmm0, xmm1
	movups	XMMWORD PTR [edi+9248+eax], xmm0
	movdqu	xmm1, XMMWORD PTR [esi+9264+eax]
	movdqu	xmm0, XMMWORD PTR [ebx+9264+eax]
	paddb	xmm0, xmm1
	movups	XMMWORD PTR [edi+9264+eax], xmm0
	movdqu	xmm1, XMMWORD PTR [esi+9280+eax]
	movdqu	xmm0, XMMWORD PTR [ebx+9280+eax]
	paddb	xmm0, xmm1
	movups	XMMWORD PTR [edi+9280+eax], xmm0
	movdqu	xmm1, XMMWORD PTR [esi+9296+eax]
	movdqu	xmm0, XMMWORD PTR [ebx+9296+eax]
	paddb	xmm0, xmm1
	movups	XMMWORD PTR [edi+9296+eax], xmm0
	movdqu	xmm1, XMMWORD PTR [esi+9312+eax]
	movdqu	xmm0, XMMWORD PTR [ebx+9312+eax]
	paddb	xmm0, xmm1
	movups	XMMWORD PTR [edi+9312+eax], xmm0
	movdqu	xmm1, XMMWORD PTR [esi+9328+eax]
	movdqu	xmm0, XMMWORD PTR [ebx+9328+eax]
	paddb	xmm0, xmm1
	movups	XMMWORD PTR [edi+9328+eax], xmm0
	movdqu	xmm1, XMMWORD PTR [esi+9344+eax]
	movdqu	xmm0, XMMWORD PTR [ebx+9344+eax]
	paddb	xmm0, xmm1
	movups	XMMWORD PTR [edi+9344+eax], xmm0
	movdqu	xmm1, XMMWORD PTR [esi+9360+eax]
	movdqu	xmm0, XMMWORD PTR [ebx+9360+eax]
	paddb	xmm0, xmm1
	movups	XMMWORD PTR [edi+9360+eax], xmm0
	movdqu	xmm1, XMMWORD PTR [esi+9376+eax]
	movdqu	xmm0, XMMWORD PTR [ebx+9376+eax]
	paddb	xmm0, xmm1
	movups	XMMWORD PTR [edi+9376+eax], xmm0
	movdqu	xmm1, XMMWORD PTR [esi+9392+eax]
	movdqu	xmm0, XMMWORD PTR [ebx+9392+eax]
	paddb	xmm0, xmm1
	movups	XMMWORD PTR [edi+9392+eax], xmm0
	movdqu	xmm1, XMMWORD PTR [esi+9408+eax]
	movdqu	xmm0, XMMWORD PTR [ebx+9408+eax]
	paddb	xmm0, xmm1
	movups	XMMWORD PTR [edi+9408+eax], xmm0
	movdqu	xmm1, XMMWORD PTR [esi+9424+eax]
	movdqu	xmm0, XMMWORD PTR [ebx+9424+eax]
	paddb	xmm0, xmm1
	movups	XMMWORD PTR [edi+9424+eax], xmm0
	movdqu	xmm1, XMMWORD PTR [esi+9440+eax]
	movdqu	xmm0, XMMWORD PTR [ebx+9440+eax]
	paddb	xmm0, xmm1
	movups	XMMWORD PTR [edi+9440+eax], xmm0
	movdqu	xmm1, XMMWORD PTR [esi+9456+eax]
	movdqu	xmm0, XMMWORD PTR [ebx+9456+eax]
	paddb	xmm0, xmm1
	movups	XMMWORD PTR [edi+9456+eax], xmm0
	movdqu	xmm1, XMMWORD PTR [esi+9472+eax]
	movdqu	xmm0, XMMWORD PTR [ebx+9472+eax]
	paddb	xmm0, xmm1
	movups	XMMWORD PTR [edi+9472+eax], xmm0
	movdqu	xmm1, XMMWORD PTR [esi+9488+eax]
	movdqu	xmm0, XMMWORD PTR [ebx+9488+eax]
	paddb	xmm0, xmm1
	movups	XMMWORD PTR [edi+9488+eax], xmm0
	movdqu	xmm1, XMMWORD PTR [esi+9504+eax]
	movdqu	xmm0, XMMWORD PTR [ebx+9504+eax]
	paddb	xmm0, xmm1
	movups	XMMWORD PTR [edi+9504+eax], xmm0
	movdqu	xmm1, XMMWORD PTR [esi+9520+eax]
	movdqu	xmm0, XMMWORD PTR [ebx+9520+eax]
	paddb	xmm0, xmm1
	movups	XMMWORD PTR [edi+9520+eax], xmm0
	movdqu	xmm1, XMMWORD PTR [esi+9536+eax]
	movdqu	xmm0, XMMWORD PTR [ebx+9536+eax]
	paddb	xmm0, xmm1
	movups	XMMWORD PTR [edi+9536+eax], xmm0
	movdqu	xmm1, XMMWORD PTR [esi+9552+eax]
	movdqu	xmm0, XMMWORD PTR [ebx+9552+eax]
	paddb	xmm0, xmm1
	movups	XMMWORD PTR [edi+9552+eax], xmm0
	movdqu	xmm1, XMMWORD PTR [esi+9568+eax]
	movdqu	xmm0, XMMWORD PTR [ebx+9568+eax]
	paddb	xmm0, xmm1
	movups	XMMWORD PTR [edi+9568+eax], xmm0
	movdqu	xmm1, XMMWORD PTR [esi+9584+eax]
	movdqu	xmm0, XMMWORD PTR [ebx+9584+eax]
	paddb	xmm0, xmm1
	movups	XMMWORD PTR [edi+9584+eax], xmm0
	movdqu	xmm1, XMMWORD PTR [esi+9600+eax]
	movdqu	xmm0, XMMWORD PTR [ebx+9600+eax]
	paddb	xmm0, xmm1
	movups	XMMWORD PTR [edi+9600+eax], xmm0
	movdqu	xmm1, XMMWORD PTR [esi+9616+eax]
	movdqu	xmm0, XMMWORD PTR [ebx+9616+eax]
	paddb	xmm0, xmm1
	movups	XMMWORD PTR [edi+9616+eax], xmm0
	movdqu	xmm1, XMMWORD PTR [esi+9632+eax]
	movdqu	xmm0, XMMWORD PTR [ebx+9632+eax]
	paddb	xmm0, xmm1
	movups	XMMWORD PTR [edi+9632+eax], xmm0
	movdqu	xmm1, XMMWORD PTR [esi+9648+eax]
	movdqu	xmm0, XMMWORD PTR [ebx+9648+eax]
	paddb	xmm0, xmm1
	movups	XMMWORD PTR [edi+9648+eax], xmm0
	movdqu	xmm1, XMMWORD PTR [esi+9664+eax]
	movdqu	xmm0, XMMWORD PTR [ebx+9664+eax]
	paddb	xmm0, xmm1
	movups	XMMWORD PTR [edi+9664+eax], xmm0
	movdqu	xmm1, XMMWORD PTR [esi+9680+eax]
	movdqu	xmm0, XMMWORD PTR [ebx+9680+eax]
	paddb	xmm0, xmm1
	movups	XMMWORD PTR [edi+9680+eax], xmm0
	movdqu	xmm1, XMMWORD PTR [esi+9696+eax]
	movdqu	xmm0, XMMWORD PTR [ebx+9696+eax]
	paddb	xmm0, xmm1
	movups	XMMWORD PTR [edi+9696+eax], xmm0
	movdqu	xmm1, XMMWORD PTR [esi+9712+eax]
	movdqu	xmm0, XMMWORD PTR [ebx+9712+eax]
	paddb	xmm0, xmm1
	movups	XMMWORD PTR [edi+9712+eax], xmm0
	movdqu	xmm1, XMMWORD PTR [esi+9728+eax]
	movdqu	xmm0, XMMWORD PTR [ebx+9728+eax]
	paddb	xmm0, xmm1
	movups	XMMWORD PTR [edi+9728+eax], xmm0
	movdqu	xmm1, XMMWORD PTR [esi+9744+eax]
	movdqu	xmm0, XMMWORD PTR [ebx+9744+eax]
	paddb	xmm0, xmm1
	movups	XMMWORD PTR [edi+9744+eax], xmm0
	movdqu	xmm1, XMMWORD PTR [esi+9760+eax]
	movdqu	xmm0, XMMWORD PTR [ebx+9760+eax]
	paddb	xmm0, xmm1
	movups	XMMWORD PTR [edi+9760+eax], xmm0
	movdqu	xmm1, XMMWORD PTR [esi+9776+eax]
	movdqu	xmm0, XMMWORD PTR [ebx+9776+eax]
	paddb	xmm0, xmm1
	movups	XMMWORD PTR [edi+9776+eax], xmm0
	movdqu	xmm1, XMMWORD PTR [esi+9792+eax]
	movdqu	xmm0, XMMWORD PTR [ebx+9792+eax]
	paddb	xmm0, xmm1
	movups	XMMWORD PTR [edi+9792+eax], xmm0
	movdqu	xmm1, XMMWORD PTR [esi+9808+eax]
	movdqu	xmm0, XMMWORD PTR [ebx+9808+eax]
	paddb	xmm0, xmm1
	movups	XMMWORD PTR [edi+9808+eax], xmm0
	movdqu	xmm1, XMMWORD PTR [esi+9824+eax]
	movdqu	xmm0, XMMWORD PTR [ebx+9824+eax]
	paddb	xmm0, xmm1
	movups	XMMWORD PTR [edi+9824+eax], xmm0
	movdqu	xmm1, XMMWORD PTR [esi+9840+eax]
	movdqu	xmm0, XMMWORD PTR [ebx+9840+eax]
	paddb	xmm0, xmm1
	movups	XMMWORD PTR [edi+9840+eax], xmm0
	movdqu	xmm1, XMMWORD PTR [esi+9856+eax]
	movdqu	xmm0, XMMWORD PTR [ebx+9856+eax]
	paddb	xmm0, xmm1
	movups	XMMWORD PTR [edi+9856+eax], xmm0
	movdqu	xmm1, XMMWORD PTR [esi+9872+eax]
	movdqu	xmm0, XMMWORD PTR [ebx+9872+eax]
	paddb	xmm0, xmm1
	movups	XMMWORD PTR [edi+9872+eax], xmm0
	movdqu	xmm1, XMMWORD PTR [esi+9888+eax]
	movdqu	xmm0, XMMWORD PTR [ebx+9888+eax]
	paddb	xmm0, xmm1
	movups	XMMWORD PTR [edi+9888+eax], xmm0
	movdqu	xmm1, XMMWORD PTR [esi+9904+eax]
	movdqu	xmm0, XMMWORD PTR [ebx+9904+eax]
	paddb	xmm0, xmm1
	movups	XMMWORD PTR [edi+9904+eax], xmm0
	movdqu	xmm1, XMMWORD PTR [esi+9920+eax]
	movdqu	xmm0, XMMWORD PTR [ebx+9920+eax]
	paddb	xmm0, xmm1
	movups	XMMWORD PTR [edi+9920+eax], xmm0
	movdqu	xmm1, XMMWORD PTR [esi+9936+eax]
	movdqu	xmm0, XMMWORD PTR [ebx+9936+eax]
	paddb	xmm0, xmm1
	movups	XMMWORD PTR [edi+9936+eax], xmm0
	movdqu	xmm1, XMMWORD PTR [esi+9952+eax]
	movdqu	xmm0, XMMWORD PTR [ebx+9952+eax]
	paddb	xmm0, xmm1
	movups	XMMWORD PTR [edi+9952+eax], xmm0
	movdqu	xmm1, XMMWORD PTR [esi+9968+eax]
	movdqu	xmm0, XMMWORD PTR [ebx+9968+eax]
	paddb	xmm0, xmm1
	movups	XMMWORD PTR [edi+9968+eax], xmm0
	movdqu	xmm1, XMMWORD PTR [esi+9984+eax]
	movdqu	xmm0, XMMWORD PTR [ebx+9984+eax]
	paddb	xmm0, xmm1
	movups	XMMWORD PTR [edi+9984+eax], xmm0
	movdqu	xmm1, XMMWORD PTR [esi+10000+eax]
	movdqu	xmm0, XMMWORD PTR [ebx+10000+eax]
	paddb	xmm0, xmm1
	movups	XMMWORD PTR [edi+10000+eax], xmm0
	movdqu	xmm1, XMMWORD PTR [esi+10016+eax]
	movdqu	xmm0, XMMWORD PTR [ebx+10016+eax]
	paddb	xmm0, xmm1
	movups	XMMWORD PTR [edi+10016+eax], xmm0
	movdqu	xmm1, XMMWORD PTR [esi+10032+eax]
	movdqu	xmm0, XMMWORD PTR [ebx+10032+eax]
	paddb	xmm0, xmm1
	movups	XMMWORD PTR [edi+10032+eax], xmm0
	movdqu	xmm1, XMMWORD PTR [esi+10048+eax]
	movdqu	xmm0, XMMWORD PTR [ebx+10048+eax]
	paddb	xmm0, xmm1
	movups	XMMWORD PTR [edi+10048+eax], xmm0
	movdqu	xmm1, XMMWORD PTR [esi+10064+eax]
	movdqu	xmm0, XMMWORD PTR [ebx+10064+eax]
	paddb	xmm0, xmm1
	movups	XMMWORD PTR [edi+10064+eax], xmm0
	movdqu	xmm1, XMMWORD PTR [esi+10080+eax]
	movdqu	xmm0, XMMWORD PTR [ebx+10080+eax]
	paddb	xmm0, xmm1
	movups	XMMWORD PTR [edi+10080+eax], xmm0
	movdqu	xmm1, XMMWORD PTR [esi+10096+eax]
	movdqu	xmm0, XMMWORD PTR [ebx+10096+eax]
	paddb	xmm0, xmm1
	movups	XMMWORD PTR [edi+10096+eax], xmm0
	movdqu	xmm1, XMMWORD PTR [esi+10112+eax]
	movdqu	xmm0, XMMWORD PTR [ebx+10112+eax]
	paddb	xmm0, xmm1
	movups	XMMWORD PTR [edi+10112+eax], xmm0
	movdqu	xmm1, XMMWORD PTR [esi+10128+eax]
	movdqu	xmm0, XMMWORD PTR [ebx+10128+eax]
	paddb	xmm0, xmm1
	movups	XMMWORD PTR [edi+10128+eax], xmm0
	movdqu	xmm1, XMMWORD PTR [esi+10144+eax]
	movdqu	xmm0, XMMWORD PTR [ebx+10144+eax]
	paddb	xmm0, xmm1
	movups	XMMWORD PTR [edi+10144+eax], xmm0
	movdqu	xmm1, XMMWORD PTR [esi+10160+eax]
	movdqu	xmm0, XMMWORD PTR [ebx+10160+eax]
	paddb	xmm0, xmm1
	movups	XMMWORD PTR [edi+10160+eax], xmm0
	movdqu	xmm1, XMMWORD PTR [esi+10176+eax]
	movdqu	xmm0, XMMWORD PTR [ebx+10176+eax]
	paddb	xmm0, xmm1
	movups	XMMWORD PTR [edi+10176+eax], xmm0
	movdqu	xmm1, XMMWORD PTR [esi+10192+eax]
	movdqu	xmm0, XMMWORD PTR [ebx+10192+eax]
	paddb	xmm0, xmm1
	movups	XMMWORD PTR [edi+10192+eax], xmm0
	movdqu	xmm1, XMMWORD PTR [esi+10208+eax]
	movdqu	xmm0, XMMWORD PTR [ebx+10208+eax]
	paddb	xmm0, xmm1
	movups	XMMWORD PTR [edi+10208+eax], xmm0
	movdqu	xmm1, XMMWORD PTR [esi+10224+eax]
	movdqu	xmm0, XMMWORD PTR [ebx+10224+eax]
	paddb	xmm0, xmm1
	movups	XMMWORD PTR [edi+10224+eax], xmm0
	movdqu	xmm1, XMMWORD PTR [esi+10240+eax]
	movdqu	xmm0, XMMWORD PTR [ebx+10240+eax]
	paddb	xmm0, xmm1
	movups	XMMWORD PTR [edi+10240+eax], xmm0
	movdqu	xmm1, XMMWORD PTR [esi+10256+eax]
	movdqu	xmm0, XMMWORD PTR [ebx+10256+eax]
	paddb	xmm0, xmm1
	movups	XMMWORD PTR [edi+10256+eax], xmm0
	movdqu	xmm1, XMMWORD PTR [esi+10272+eax]
	movdqu	xmm0, XMMWORD PTR [ebx+10272+eax]
	paddb	xmm0, xmm1
	movups	XMMWORD PTR [edi+10272+eax], xmm0
	movdqu	xmm1, XMMWORD PTR [esi+10288+eax]
	movdqu	xmm0, XMMWORD PTR [ebx+10288+eax]
	paddb	xmm0, xmm1
	movups	XMMWORD PTR [edi+10288+eax], xmm0
	movdqu	xmm1, XMMWORD PTR [esi+10304+eax]
	movdqu	xmm0, XMMWORD PTR [ebx+10304+eax]
	paddb	xmm0, xmm1
	movups	XMMWORD PTR [edi+10304+eax], xmm0
	movdqu	xmm1, XMMWORD PTR [esi+10320+eax]
	movdqu	xmm0, XMMWORD PTR [ebx+10320+eax]
	paddb	xmm0, xmm1
	movups	XMMWORD PTR [edi+10320+eax], xmm0
	movdqu	xmm1, XMMWORD PTR [esi+10336+eax]
	movdqu	xmm0, XMMWORD PTR [ebx+10336+eax]
	paddb	xmm0, xmm1
	movups	XMMWORD PTR [edi+10336+eax], xmm0
	movdqu	xmm1, XMMWORD PTR [esi+10352+eax]
	movdqu	xmm0, XMMWORD PTR [ebx+10352+eax]
	paddb	xmm0, xmm1
	movups	XMMWORD PTR [edi+10352+eax], xmm0
	movdqu	xmm1, XMMWORD PTR [esi+10368+eax]
	movdqu	xmm0, XMMWORD PTR [ebx+10368+eax]
	paddb	xmm0, xmm1
	movups	XMMWORD PTR [edi+10368+eax], xmm0
	movdqu	xmm1, XMMWORD PTR [esi+10384+eax]
	movdqu	xmm0, XMMWORD PTR [ebx+10384+eax]
	paddb	xmm0, xmm1
	movups	XMMWORD PTR [edi+10384+eax], xmm0
	movdqu	xmm1, XMMWORD PTR [esi+10400+eax]
	movdqu	xmm0, XMMWORD PTR [ebx+10400+eax]
	paddb	xmm0, xmm1
	movups	XMMWORD PTR [edi+10400+eax], xmm0
	movdqu	xmm1, XMMWORD PTR [esi+10416+eax]
	movdqu	xmm0, XMMWORD PTR [ebx+10416+eax]
	paddb	xmm0, xmm1
	movups	XMMWORD PTR [edi+10416+eax], xmm0
	movdqu	xmm1, XMMWORD PTR [esi+10432+eax]
	movdqu	xmm0, XMMWORD PTR [ebx+10432+eax]
	paddb	xmm0, xmm1
	movups	XMMWORD PTR [edi+10432+eax], xmm0
	movdqu	xmm1, XMMWORD PTR [esi+10448+eax]
	movdqu	xmm0, XMMWORD PTR [ebx+10448+eax]
	paddb	xmm0, xmm1
	movups	XMMWORD PTR [edi+10448+eax], xmm0
	movdqu	xmm1, XMMWORD PTR [esi+10464+eax]
	movdqu	xmm0, XMMWORD PTR [ebx+10464+eax]
	paddb	xmm0, xmm1
	movups	XMMWORD PTR [edi+10464+eax], xmm0
	movdqu	xmm1, XMMWORD PTR [esi+10480+eax]
	movdqu	xmm0, XMMWORD PTR [ebx+10480+eax]
	paddb	xmm0, xmm1
	movups	XMMWORD PTR [edi+10480+eax], xmm0
	movdqu	xmm1, XMMWORD PTR [esi+10496+eax]
	movdqu	xmm0, XMMWORD PTR [ebx+10496+eax]
	paddb	xmm0, xmm1
	movups	XMMWORD PTR [edi+10496+eax], xmm0
	movdqu	xmm1, XMMWORD PTR [esi+10512+eax]
	movdqu	xmm0, XMMWORD PTR [ebx+10512+eax]
	paddb	xmm0, xmm1
	movups	XMMWORD PTR [edi+10512+eax], xmm0
	movdqu	xmm1, XMMWORD PTR [esi+10528+eax]
	movdqu	xmm0, XMMWORD PTR [ebx+10528+eax]
	paddb	xmm0, xmm1
	movups	XMMWORD PTR [edi+10528+eax], xmm0
	movdqu	xmm1, XMMWORD PTR [esi+10544+eax]
	movdqu	xmm0, XMMWORD PTR [ebx+10544+eax]
	paddb	xmm0, xmm1
	movups	XMMWORD PTR [edi+10544+eax], xmm0
	movdqu	xmm1, XMMWORD PTR [esi+10560+eax]
	movdqu	xmm0, XMMWORD PTR [ebx+10560+eax]
	paddb	xmm0, xmm1
	movups	XMMWORD PTR [edi+10560+eax], xmm0
	movdqu	xmm1, XMMWORD PTR [esi+10576+eax]
	movdqu	xmm0, XMMWORD PTR [ebx+10576+eax]
	paddb	xmm0, xmm1
	movups	XMMWORD PTR [edi+10576+eax], xmm0
	movdqu	xmm1, XMMWORD PTR [esi+10592+eax]
	movdqu	xmm0, XMMWORD PTR [ebx+10592+eax]
	paddb	xmm0, xmm1
	movups	XMMWORD PTR [edi+10592+eax], xmm0
	movdqu	xmm1, XMMWORD PTR [esi+10608+eax]
	movdqu	xmm0, XMMWORD PTR [ebx+10608+eax]
	paddb	xmm0, xmm1
	movups	XMMWORD PTR [edi+10608+eax], xmm0
	movdqu	xmm1, XMMWORD PTR [esi+10624+eax]
	movdqu	xmm0, XMMWORD PTR [ebx+10624+eax]
	paddb	xmm0, xmm1
	movups	XMMWORD PTR [edi+10624+eax], xmm0
	movdqu	xmm1, XMMWORD PTR [esi+10640+eax]
	movdqu	xmm0, XMMWORD PTR [ebx+10640+eax]
	paddb	xmm0, xmm1
	movups	XMMWORD PTR [edi+10640+eax], xmm0
	movdqu	xmm1, XMMWORD PTR [esi+10656+eax]
	movdqu	xmm0, XMMWORD PTR [ebx+10656+eax]
	paddb	xmm0, xmm1
	movups	XMMWORD PTR [edi+10656+eax], xmm0
	movdqu	xmm1, XMMWORD PTR [esi+10672+eax]
	movdqu	xmm0, XMMWORD PTR [ebx+10672+eax]
	paddb	xmm0, xmm1
	movups	XMMWORD PTR [edi+10672+eax], xmm0
	movdqu	xmm1, XMMWORD PTR [esi+10688+eax]
	movdqu	xmm0, XMMWORD PTR [ebx+10688+eax]
	paddb	xmm0, xmm1
	movups	XMMWORD PTR [edi+10688+eax], xmm0
	movdqu	xmm1, XMMWORD PTR [esi+10704+eax]
	movdqu	xmm0, XMMWORD PTR [ebx+10704+eax]
	paddb	xmm0, xmm1
	movups	XMMWORD PTR [edi+10704+eax], xmm0
	movdqu	xmm1, XMMWORD PTR [esi+10720+eax]
	movdqu	xmm0, XMMWORD PTR [ebx+10720+eax]
	paddb	xmm0, xmm1
	movups	XMMWORD PTR [edi+10720+eax], xmm0
	movdqu	xmm1, XMMWORD PTR [esi+10736+eax]
	movdqu	xmm0, XMMWORD PTR [ebx+10736+eax]
	paddb	xmm0, xmm1
	movups	XMMWORD PTR [edi+10736+eax], xmm0
	movdqu	xmm1, XMMWORD PTR [esi+10752+eax]
	movdqu	xmm0, XMMWORD PTR [ebx+10752+eax]
	paddb	xmm0, xmm1
	movups	XMMWORD PTR [edi+10752+eax], xmm0
	movdqu	xmm1, XMMWORD PTR [esi+10768+eax]
	movdqu	xmm0, XMMWORD PTR [ebx+10768+eax]
	paddb	xmm0, xmm1
	movups	XMMWORD PTR [edi+10768+eax], xmm0
	movdqu	xmm1, XMMWORD PTR [esi+10784+eax]
	movdqu	xmm0, XMMWORD PTR [ebx+10784+eax]
	paddb	xmm0, xmm1
	movups	XMMWORD PTR [edi+10784+eax], xmm0
	movdqu	xmm1, XMMWORD PTR [esi+10800+eax]
	movdqu	xmm0, XMMWORD PTR [ebx+10800+eax]
	paddb	xmm0, xmm1
	movups	XMMWORD PTR [edi+10800+eax], xmm0
	movdqu	xmm1, XMMWORD PTR [esi+10816+eax]
	movdqu	xmm0, XMMWORD PTR [ebx+10816+eax]
	paddb	xmm0, xmm1
	movups	XMMWORD PTR [edi+10816+eax], xmm0
	movdqu	xmm1, XMMWORD PTR [esi+10832+eax]
	movdqu	xmm0, XMMWORD PTR [ebx+10832+eax]
	paddb	xmm0, xmm1
	movups	XMMWORD PTR [edi+10832+eax], xmm0
	movdqu	xmm1, XMMWORD PTR [esi+10848+eax]
	movdqu	xmm0, XMMWORD PTR [ebx+10848+eax]
	paddb	xmm0, xmm1
	movups	XMMWORD PTR [edi+10848+eax], xmm0
	movdqu	xmm1, XMMWORD PTR [esi+10864+eax]
	movdqu	xmm0, XMMWORD PTR [ebx+10864+eax]
	paddb	xmm0, xmm1
	movups	XMMWORD PTR [edi+10864+eax], xmm0
	movdqu	xmm1, XMMWORD PTR [esi+10880+eax]
	movdqu	xmm0, XMMWORD PTR [ebx+10880+eax]
	paddb	xmm0, xmm1
	movups	XMMWORD PTR [edi+10880+eax], xmm0
	movdqu	xmm1, XMMWORD PTR [esi+10896+eax]
	movdqu	xmm0, XMMWORD PTR [ebx+10896+eax]
	paddb	xmm0, xmm1
	movups	XMMWORD PTR [edi+10896+eax], xmm0
	movdqu	xmm1, XMMWORD PTR [esi+10912+eax]
	movdqu	xmm0, XMMWORD PTR [ebx+10912+eax]
	paddb	xmm0, xmm1
	movups	XMMWORD PTR [edi+10912+eax], xmm0
	movdqu	xmm1, XMMWORD PTR [esi+10928+eax]
	movdqu	xmm0, XMMWORD PTR [ebx+10928+eax]
	paddb	xmm0, xmm1
	movups	XMMWORD PTR [edi+10928+eax], xmm0
	movdqu	xmm1, XMMWORD PTR [esi+10944+eax]
	movdqu	xmm0, XMMWORD PTR [ebx+10944+eax]
	paddb	xmm0, xmm1
	movups	XMMWORD PTR [edi+10944+eax], xmm0
	movdqu	xmm1, XMMWORD PTR [esi+10960+eax]
	movdqu	xmm0, XMMWORD PTR [ebx+10960+eax]
	paddb	xmm0, xmm1
	movups	XMMWORD PTR [edi+10960+eax], xmm0
	movdqu	xmm1, XMMWORD PTR [esi+10976+eax]
	movdqu	xmm0, XMMWORD PTR [ebx+10976+eax]
	paddb	xmm0, xmm1
	movups	XMMWORD PTR [edi+10976+eax], xmm0
	movdqu	xmm1, XMMWORD PTR [esi+10992+eax]
	movdqu	xmm0, XMMWORD PTR [ebx+10992+eax]
	paddb	xmm0, xmm1
	movups	XMMWORD PTR [edi+10992+eax], xmm0
	movdqu	xmm1, XMMWORD PTR [esi+11008+eax]
	movdqu	xmm0, XMMWORD PTR [ebx+11008+eax]
	paddb	xmm0, xmm1
	movups	XMMWORD PTR [edi+11008+eax], xmm0
	movdqu	xmm1, XMMWORD PTR [esi+11024+eax]
	movdqu	xmm0, XMMWORD PTR [ebx+11024+eax]
	paddb	xmm0, xmm1
	movups	XMMWORD PTR [edi+11024+eax], xmm0
	movdqu	xmm1, XMMWORD PTR [esi+11040+eax]
	movdqu	xmm0, XMMWORD PTR [ebx+11040+eax]
	paddb	xmm0, xmm1
	movups	XMMWORD PTR [edi+11040+eax], xmm0
	movdqu	xmm1, XMMWORD PTR [esi+11056+eax]
	movdqu	xmm0, XMMWORD PTR [ebx+11056+eax]
	paddb	xmm0, xmm1
	movups	XMMWORD PTR [edi+11056+eax], xmm0
	movdqu	xmm1, XMMWORD PTR [esi+11072+eax]
	movdqu	xmm0, XMMWORD PTR [ebx+11072+eax]
	paddb	xmm0, xmm1
	movups	XMMWORD PTR [edi+11072+eax], xmm0
	movdqu	xmm1, XMMWORD PTR [esi+11088+eax]
	movdqu	xmm0, XMMWORD PTR [ebx+11088+eax]
	paddb	xmm0, xmm1
	movups	XMMWORD PTR [edi+11088+eax], xmm0
	movdqu	xmm1, XMMWORD PTR [esi+11104+eax]
	movdqu	xmm0, XMMWORD PTR [ebx+11104+eax]
	paddb	xmm0, xmm1
	movups	XMMWORD PTR [edi+11104+eax], xmm0
	movdqu	xmm1, XMMWORD PTR [esi+11120+eax]
	movdqu	xmm0, XMMWORD PTR [ebx+11120+eax]
	paddb	xmm0, xmm1
	movups	XMMWORD PTR [edi+11120+eax], xmm0
	movdqu	xmm1, XMMWORD PTR [esi+11136+eax]
	movdqu	xmm0, XMMWORD PTR [ebx+11136+eax]
	paddb	xmm0, xmm1
	movups	XMMWORD PTR [edi+11136+eax], xmm0
	movdqu	xmm1, XMMWORD PTR [esi+11152+eax]
	movdqu	xmm0, XMMWORD PTR [ebx+11152+eax]
	paddb	xmm0, xmm1
	movups	XMMWORD PTR [edi+11152+eax], xmm0
	movdqu	xmm1, XMMWORD PTR [esi+11168+eax]
	movdqu	xmm0, XMMWORD PTR [ebx+11168+eax]
	paddb	xmm0, xmm1
	movups	XMMWORD PTR [edi+11168+eax], xmm0
	movdqu	xmm1, XMMWORD PTR [esi+11184+eax]
	movdqu	xmm0, XMMWORD PTR [ebx+11184+eax]
	paddb	xmm0, xmm1
	movups	XMMWORD PTR [edi+11184+eax], xmm0
	movdqu	xmm1, XMMWORD PTR [esi+11200+eax]
	movdqu	xmm0, XMMWORD PTR [ebx+11200+eax]
	paddb	xmm0, xmm1
	movups	XMMWORD PTR [edi+11200+eax], xmm0
	movdqu	xmm1, XMMWORD PTR [esi+11216+eax]
	movdqu	xmm0, XMMWORD PTR [ebx+11216+eax]
	paddb	xmm0, xmm1
	movups	XMMWORD PTR [edi+11216+eax], xmm0
	movdqu	xmm1, XMMWORD PTR [esi+11232+eax]
	movdqu	xmm0, XMMWORD PTR [ebx+11232+eax]
	paddb	xmm0, xmm1
	movups	XMMWORD PTR [edi+11232+eax], xmm0
	movdqu	xmm1, XMMWORD PTR [esi+11248+eax]
	movdqu	xmm0, XMMWORD PTR [ebx+11248+eax]
	paddb	xmm0, xmm1
	movups	XMMWORD PTR [edi+11248+eax], xmm0
	movdqu	xmm1, XMMWORD PTR [esi+11264+eax]
	movdqu	xmm0, XMMWORD PTR [ebx+11264+eax]
	paddb	xmm0, xmm1
	movups	XMMWORD PTR [edi+11264+eax], xmm0
	movdqu	xmm1, XMMWORD PTR [esi+11280+eax]
	movdqu	xmm0, XMMWORD PTR [ebx+11280+eax]
	paddb	xmm0, xmm1
	movups	XMMWORD PTR [edi+11280+eax], xmm0
	movdqu	xmm1, XMMWORD PTR [esi+11296+eax]
	movdqu	xmm0, XMMWORD PTR [ebx+11296+eax]
	paddb	xmm0, xmm1
	movups	XMMWORD PTR [edi+11296+eax], xmm0
	movdqu	xmm1, XMMWORD PTR [esi+11312+eax]
	movdqu	xmm0, XMMWORD PTR [ebx+11312+eax]
	paddb	xmm0, xmm1
	movups	XMMWORD PTR [edi+11312+eax], xmm0
	movdqu	xmm1, XMMWORD PTR [esi+11328+eax]
	movdqu	xmm0, XMMWORD PTR [ebx+11328+eax]
	paddb	xmm0, xmm1
	movups	XMMWORD PTR [edi+11328+eax], xmm0
	movdqu	xmm1, XMMWORD PTR [esi+11344+eax]
	movdqu	xmm0, XMMWORD PTR [ebx+11344+eax]
	paddb	xmm0, xmm1
	movups	XMMWORD PTR [edi+11344+eax], xmm0
	movdqu	xmm1, XMMWORD PTR [esi+11360+eax]
	movdqu	xmm0, XMMWORD PTR [ebx+11360+eax]
	paddb	xmm0, xmm1
	movups	XMMWORD PTR [edi+11360+eax], xmm0
	movdqu	xmm1, XMMWORD PTR [esi+11376+eax]
	movdqu	xmm0, XMMWORD PTR [ebx+11376+eax]
	paddb	xmm0, xmm1
	movups	XMMWORD PTR [edi+11376+eax], xmm0
	movdqu	xmm1, XMMWORD PTR [esi+11392+eax]
	movdqu	xmm0, XMMWORD PTR [ebx+11392+eax]
	paddb	xmm0, xmm1
	movups	XMMWORD PTR [edi+11392+eax], xmm0
	movdqu	xmm1, XMMWORD PTR [esi+11408+eax]
	movdqu	xmm0, XMMWORD PTR [ebx+11408+eax]
	paddb	xmm0, xmm1
	movups	XMMWORD PTR [edi+11408+eax], xmm0
	movdqu	xmm1, XMMWORD PTR [esi+11424+eax]
	movdqu	xmm0, XMMWORD PTR [ebx+11424+eax]
	paddb	xmm0, xmm1
	movups	XMMWORD PTR [edi+11424+eax], xmm0
	movdqu	xmm1, XMMWORD PTR [esi+11440+eax]
	movdqu	xmm0, XMMWORD PTR [ebx+11440+eax]
	paddb	xmm0, xmm1
	movups	XMMWORD PTR [edi+11440+eax], xmm0
	movdqu	xmm1, XMMWORD PTR [esi+11456+eax]
	movdqu	xmm0, XMMWORD PTR [ebx+11456+eax]
	paddb	xmm0, xmm1
	movups	XMMWORD PTR [edi+11456+eax], xmm0
	movdqu	xmm1, XMMWORD PTR [esi+11472+eax]
	movdqu	xmm0, XMMWORD PTR [ebx+11472+eax]
	paddb	xmm0, xmm1
	movups	XMMWORD PTR [edi+11472+eax], xmm0
	movdqu	xmm1, XMMWORD PTR [esi+11488+eax]
	movdqu	xmm0, XMMWORD PTR [ebx+11488+eax]
	paddb	xmm0, xmm1
	movups	XMMWORD PTR [edi+11488+eax], xmm0
	movdqu	xmm1, XMMWORD PTR [esi+11504+eax]
	movdqu	xmm0, XMMWORD PTR [ebx+11504+eax]
	paddb	xmm0, xmm1
	movups	XMMWORD PTR [edi+11504+eax], xmm0
	movdqu	xmm1, XMMWORD PTR [esi+11520+eax]
	movdqu	xmm0, XMMWORD PTR [ebx+11520+eax]
	paddb	xmm0, xmm1
	movups	XMMWORD PTR [edi+11520+eax], xmm0
	movdqu	xmm1, XMMWORD PTR [esi+11536+eax]
	movdqu	xmm0, XMMWORD PTR [ebx+11536+eax]
	paddb	xmm0, xmm1
	movups	XMMWORD PTR [edi+11536+eax], xmm0
	movdqu	xmm1, XMMWORD PTR [esi+11552+eax]
	movdqu	xmm0, XMMWORD PTR [ebx+11552+eax]
	paddb	xmm0, xmm1
	movups	XMMWORD PTR [edi+11552+eax], xmm0
	movdqu	xmm1, XMMWORD PTR [esi+11568+eax]
	movdqu	xmm0, XMMWORD PTR [ebx+11568+eax]
	paddb	xmm0, xmm1
	movups	XMMWORD PTR [edi+11568+eax], xmm0
	movdqu	xmm1, XMMWORD PTR [esi+11584+eax]
	movdqu	xmm0, XMMWORD PTR [ebx+11584+eax]
	paddb	xmm0, xmm1
	movups	XMMWORD PTR [edi+11584+eax], xmm0
	movdqu	xmm1, XMMWORD PTR [esi+11600+eax]
	movdqu	xmm0, XMMWORD PTR [ebx+11600+eax]
	paddb	xmm0, xmm1
	movups	XMMWORD PTR [edi+11600+eax], xmm0
	movdqu	xmm1, XMMWORD PTR [esi+11616+eax]
	movdqu	xmm0, XMMWORD PTR [ebx+11616+eax]
	paddb	xmm0, xmm1
	movups	XMMWORD PTR [edi+11616+eax], xmm0
	movdqu	xmm1, XMMWORD PTR [esi+11632+eax]
	movdqu	xmm0, XMMWORD PTR [ebx+11632+eax]
	paddb	xmm0, xmm1
	movups	XMMWORD PTR [edi+11632+eax], xmm0
	movdqu	xmm1, XMMWORD PTR [esi+11648+eax]
	movdqu	xmm0, XMMWORD PTR [ebx+11648+eax]
	paddb	xmm0, xmm1
	movups	XMMWORD PTR [edi+11648+eax], xmm0
	movdqu	xmm1, XMMWORD PTR [esi+11664+eax]
	movdqu	xmm0, XMMWORD PTR [ebx+11664+eax]
	paddb	xmm0, xmm1
	movups	XMMWORD PTR [edi+11664+eax], xmm0
	movdqu	xmm1, XMMWORD PTR [esi+11680+eax]
	movdqu	xmm0, XMMWORD PTR [ebx+11680+eax]
	paddb	xmm0, xmm1
	movups	XMMWORD PTR [edi+11680+eax], xmm0
	movdqu	xmm1, XMMWORD PTR [esi+11696+eax]
	movdqu	xmm0, XMMWORD PTR [ebx+11696+eax]
	paddb	xmm0, xmm1
	movups	XMMWORD PTR [edi+11696+eax], xmm0
	movdqu	xmm1, XMMWORD PTR [esi+11712+eax]
	movdqu	xmm0, XMMWORD PTR [ebx+11712+eax]
	paddb	xmm0, xmm1
	movups	XMMWORD PTR [edi+11712+eax], xmm0
	movdqu	xmm1, XMMWORD PTR [esi+11728+eax]
	movdqu	xmm0, XMMWORD PTR [ebx+11728+eax]
	paddb	xmm0, xmm1
	movups	XMMWORD PTR [edi+11728+eax], xmm0
	movdqu	xmm1, XMMWORD PTR [esi+11744+eax]
	movdqu	xmm0, XMMWORD PTR [ebx+11744+eax]
	paddb	xmm0, xmm1
	movups	XMMWORD PTR [edi+11744+eax], xmm0
	movdqu	xmm1, XMMWORD PTR [esi+11760+eax]
	movdqu	xmm0, XMMWORD PTR [ebx+11760+eax]
	paddb	xmm0, xmm1
	movups	XMMWORD PTR [edi+11760+eax], xmm0
	movdqu	xmm1, XMMWORD PTR [esi+11776+eax]
	movdqu	xmm0, XMMWORD PTR [ebx+11776+eax]
	paddb	xmm0, xmm1
	movups	XMMWORD PTR [edi+11776+eax], xmm0
	movdqu	xmm1, XMMWORD PTR [esi+11792+eax]
	movdqu	xmm0, XMMWORD PTR [ebx+11792+eax]
	paddb	xmm0, xmm1
	movups	XMMWORD PTR [edi+11792+eax], xmm0
	movdqu	xmm1, XMMWORD PTR [esi+11808+eax]
	movdqu	xmm0, XMMWORD PTR [ebx+11808+eax]
	paddb	xmm0, xmm1
	movups	XMMWORD PTR [edi+11808+eax], xmm0
	movdqu	xmm1, XMMWORD PTR [esi+11824+eax]
	movdqu	xmm0, XMMWORD PTR [ebx+11824+eax]
	paddb	xmm0, xmm1
	movups	XMMWORD PTR [edi+11824+eax], xmm0
	movdqu	xmm1, XMMWORD PTR [esi+11840+eax]
	movdqu	xmm0, XMMWORD PTR [ebx+11840+eax]
	paddb	xmm0, xmm1
	movups	XMMWORD PTR [edi+11840+eax], xmm0
	movdqu	xmm1, XMMWORD PTR [esi+11856+eax]
	movdqu	xmm0, XMMWORD PTR [ebx+11856+eax]
	paddb	xmm0, xmm1
	movups	XMMWORD PTR [edi+11856+eax], xmm0
	movdqu	xmm1, XMMWORD PTR [esi+11872+eax]
	movdqu	xmm0, XMMWORD PTR [ebx+11872+eax]
	paddb	xmm0, xmm1
	movups	XMMWORD PTR [edi+11872+eax], xmm0
	movdqu	xmm1, XMMWORD PTR [esi+11888+eax]
	movdqu	xmm0, XMMWORD PTR [ebx+11888+eax]
	paddb	xmm0, xmm1
	movups	XMMWORD PTR [edi+11888+eax], xmm0
	movdqu	xmm1, XMMWORD PTR [esi+11904+eax]
	movdqu	xmm0, XMMWORD PTR [ebx+11904+eax]
	paddb	xmm0, xmm1
	movups	XMMWORD PTR [edi+11904+eax], xmm0
	movdqu	xmm1, XMMWORD PTR [esi+11920+eax]
	movdqu	xmm0, XMMWORD PTR [ebx+11920+eax]
	paddb	xmm0, xmm1
	movups	XMMWORD PTR [edi+11920+eax], xmm0
	movdqu	xmm1, XMMWORD PTR [esi+11936+eax]
	movdqu	xmm0, XMMWORD PTR [ebx+11936+eax]
	paddb	xmm0, xmm1
	movups	XMMWORD PTR [edi+11936+eax], xmm0
	movdqu	xmm1, XMMWORD PTR [esi+11952+eax]
	movdqu	xmm0, XMMWORD PTR [ebx+11952+eax]
	paddb	xmm0, xmm1
	movups	XMMWORD PTR [edi+11952+eax], xmm0
	movdqu	xmm1, XMMWORD PTR [esi+11968+eax]
	movdqu	xmm0, XMMWORD PTR [ebx+11968+eax]
	paddb	xmm0, xmm1
	movups	XMMWORD PTR [edi+11968+eax], xmm0
	movdqu	xmm1, XMMWORD PTR [esi+11984+eax]
	movdqu	xmm0, XMMWORD PTR [ebx+11984+eax]
	paddb	xmm0, xmm1
	movups	XMMWORD PTR [edi+11984+eax], xmm0
	movdqu	xmm1, XMMWORD PTR [esi+12000+eax]
	movdqu	xmm0, XMMWORD PTR [ebx+12000+eax]
	paddb	xmm0, xmm1
	movups	XMMWORD PTR [edi+12000+eax], xmm0
	movdqu	xmm1, XMMWORD PTR [esi+12016+eax]
	movdqu	xmm0, XMMWORD PTR [ebx+12016+eax]
	paddb	xmm0, xmm1
	movups	XMMWORD PTR [edi+12016+eax], xmm0
	movdqu	xmm1, XMMWORD PTR [esi+12032+eax]
	movdqu	xmm0, XMMWORD PTR [ebx+12032+eax]
	paddb	xmm0, xmm1
	movups	XMMWORD PTR [edi+12032+eax], xmm0
	movdqu	xmm1, XMMWORD PTR [esi+12048+eax]
	movdqu	xmm0, XMMWORD PTR [ebx+12048+eax]
	paddb	xmm0, xmm1
	movups	XMMWORD PTR [edi+12048+eax], xmm0
	movdqu	xmm1, XMMWORD PTR [esi+12064+eax]
	movdqu	xmm0, XMMWORD PTR [ebx+12064+eax]
	paddb	xmm0, xmm1
	movups	XMMWORD PTR [edi+12064+eax], xmm0
	movdqu	xmm1, XMMWORD PTR [esi+12080+eax]
	movdqu	xmm0, XMMWORD PTR [ebx+12080+eax]
	paddb	xmm0, xmm1
	movups	XMMWORD PTR [edi+12080+eax], xmm0
	movdqu	xmm1, XMMWORD PTR [esi+12096+eax]
	movdqu	xmm0, XMMWORD PTR [ebx+12096+eax]
	paddb	xmm0, xmm1
	movups	XMMWORD PTR [edi+12096+eax], xmm0
	movdqu	xmm1, XMMWORD PTR [esi+12112+eax]
	movdqu	xmm0, XMMWORD PTR [ebx+12112+eax]
	paddb	xmm0, xmm1
	movups	XMMWORD PTR [edi+12112+eax], xmm0
	movdqu	xmm1, XMMWORD PTR [esi+12128+eax]
	movdqu	xmm0, XMMWORD PTR [ebx+12128+eax]
	paddb	xmm0, xmm1
	movups	XMMWORD PTR [edi+12128+eax], xmm0
	movdqu	xmm1, XMMWORD PTR [esi+12144+eax]
	movdqu	xmm0, XMMWORD PTR [ebx+12144+eax]
	paddb	xmm0, xmm1
	movups	XMMWORD PTR [edi+12144+eax], xmm0
	movdqu	xmm1, XMMWORD PTR [esi+12160+eax]
	movdqu	xmm0, XMMWORD PTR [ebx+12160+eax]
	paddb	xmm0, xmm1
	movups	XMMWORD PTR [edi+12160+eax], xmm0
	movdqu	xmm1, XMMWORD PTR [esi+12176+eax]
	movdqu	xmm0, XMMWORD PTR [ebx+12176+eax]
	paddb	xmm0, xmm1
	movups	XMMWORD PTR [edi+12176+eax], xmm0
	movdqu	xmm1, XMMWORD PTR [esi+12192+eax]
	movdqu	xmm0, XMMWORD PTR [ebx+12192+eax]
	paddb	xmm0, xmm1
	movups	XMMWORD PTR [edi+12192+eax], xmm0
	movdqu	xmm1, XMMWORD PTR [esi+12208+eax]
	movdqu	xmm0, XMMWORD PTR [ebx+12208+eax]
	paddb	xmm0, xmm1
	movups	XMMWORD PTR [edi+12208+eax], xmm0
	movdqu	xmm1, XMMWORD PTR [esi+12224+eax]
	movdqu	xmm0, XMMWORD PTR [ebx+12224+eax]
	paddb	xmm0, xmm1
	movups	XMMWORD PTR [edi+12224+eax], xmm0
	movdqu	xmm1, XMMWORD PTR [esi+12240+eax]
	movdqu	xmm0, XMMWORD PTR [ebx+12240+eax]
	paddb	xmm0, xmm1
	movups	XMMWORD PTR [edi+12240+eax], xmm0
	movdqu	xmm1, XMMWORD PTR [esi+12256+eax]
	movdqu	xmm0, XMMWORD PTR [ebx+12256+eax]
	paddb	xmm0, xmm1
	movups	XMMWORD PTR [edi+12256+eax], xmm0
	movdqu	xmm1, XMMWORD PTR [esi+12272+eax]
	movdqu	xmm0, XMMWORD PTR [ebx+12272+eax]
	paddb	xmm0, xmm1
	movups	XMMWORD PTR [edi+12272+eax], xmm0
	movdqu	xmm1, XMMWORD PTR [esi+12288+eax]
	movdqu	xmm0, XMMWORD PTR [ebx+12288+eax]
	paddb	xmm0, xmm1
	movups	XMMWORD PTR [edi+12288+eax], xmm0
	movdqu	xmm1, XMMWORD PTR [esi+12304+eax]
	movdqu	xmm0, XMMWORD PTR [ebx+12304+eax]
	paddb	xmm0, xmm1
	movups	XMMWORD PTR [edi+12304+eax], xmm0
	movdqu	xmm1, XMMWORD PTR [esi+12320+eax]
	movdqu	xmm0, XMMWORD PTR [ebx+12320+eax]
	paddb	xmm0, xmm1
	movups	XMMWORD PTR [edi+12320+eax], xmm0
	movdqu	xmm1, XMMWORD PTR [esi+12336+eax]
	movdqu	xmm0, XMMWORD PTR [ebx+12336+eax]
	paddb	xmm0, xmm1
	movups	XMMWORD PTR [edi+12336+eax], xmm0
	movdqu	xmm1, XMMWORD PTR [esi+12352+eax]
	movdqu	xmm0, XMMWORD PTR [ebx+12352+eax]
	paddb	xmm0, xmm1
	movups	XMMWORD PTR [edi+12352+eax], xmm0
	movdqu	xmm1, XMMWORD PTR [esi+12368+eax]
	movdqu	xmm0, XMMWORD PTR [ebx+12368+eax]
	paddb	xmm0, xmm1
	movups	XMMWORD PTR [edi+12368+eax], xmm0
	movdqu	xmm1, XMMWORD PTR [esi+12384+eax]
	movdqu	xmm0, XMMWORD PTR [ebx+12384+eax]
	paddb	xmm0, xmm1
	movups	XMMWORD PTR [edi+12384+eax], xmm0
	movdqu	xmm1, XMMWORD PTR [esi+12400+eax]
	movdqu	xmm0, XMMWORD PTR [ebx+12400+eax]
	paddb	xmm0, xmm1
	movups	XMMWORD PTR [edi+12400+eax], xmm0
	movdqu	xmm1, XMMWORD PTR [esi+12416+eax]
	movdqu	xmm0, XMMWORD PTR [ebx+12416+eax]
	paddb	xmm0, xmm1
	movups	XMMWORD PTR [edi+12416+eax], xmm0
	movdqu	xmm1, XMMWORD PTR [esi+12432+eax]
	movdqu	xmm0, XMMWORD PTR [ebx+12432+eax]
	paddb	xmm0, xmm1
	movups	XMMWORD PTR [edi+12432+eax], xmm0
	movdqu	xmm1, XMMWORD PTR [esi+12448+eax]
	movdqu	xmm0, XMMWORD PTR [ebx+12448+eax]
	paddb	xmm0, xmm1
	movups	XMMWORD PTR [edi+12448+eax], xmm0
	movdqu	xmm1, XMMWORD PTR [esi+12464+eax]
	movdqu	xmm0, XMMWORD PTR [ebx+12464+eax]
	paddb	xmm0, xmm1
	movups	XMMWORD PTR [edi+12464+eax], xmm0
	movdqu	xmm1, XMMWORD PTR [esi+12480+eax]
	movdqu	xmm0, XMMWORD PTR [ebx+12480+eax]
	paddb	xmm0, xmm1
	movups	XMMWORD PTR [edi+12480+eax], xmm0
	movdqu	xmm1, XMMWORD PTR [esi+12496+eax]
	movdqu	xmm0, XMMWORD PTR [ebx+12496+eax]
	paddb	xmm0, xmm1
	movups	XMMWORD PTR [edi+12496+eax], xmm0
	movdqu	xmm1, XMMWORD PTR [esi+12512+eax]
	movdqu	xmm0, XMMWORD PTR [ebx+12512+eax]
	paddb	xmm0, xmm1
	movups	XMMWORD PTR [edi+12512+eax], xmm0
	movdqu	xmm1, XMMWORD PTR [esi+12528+eax]
	movdqu	xmm0, XMMWORD PTR [ebx+12528+eax]
	paddb	xmm0, xmm1
	movups	XMMWORD PTR [edi+12528+eax], xmm0
	movdqu	xmm1, XMMWORD PTR [esi+12544+eax]
	movdqu	xmm0, XMMWORD PTR [ebx+12544+eax]
	paddb	xmm0, xmm1
	movups	XMMWORD PTR [edi+12544+eax], xmm0
	movdqu	xmm1, XMMWORD PTR [esi+12560+eax]
	movdqu	xmm0, XMMWORD PTR [ebx+12560+eax]
	paddb	xmm0, xmm1
	movups	XMMWORD PTR [edi+12560+eax], xmm0
	movdqu	xmm1, XMMWORD PTR [esi+12576+eax]
	movdqu	xmm0, XMMWORD PTR [ebx+12576+eax]
	paddb	xmm0, xmm1
	movups	XMMWORD PTR [edi+12576+eax], xmm0
	movdqu	xmm1, XMMWORD PTR [esi+12592+eax]
	movdqu	xmm0, XMMWORD PTR [ebx+12592+eax]
	paddb	xmm0, xmm1
	movups	XMMWORD PTR [edi+12592+eax], xmm0
	movdqu	xmm1, XMMWORD PTR [esi+12608+eax]
	movdqu	xmm0, XMMWORD PTR [ebx+12608+eax]
	paddb	xmm0, xmm1
	movups	XMMWORD PTR [edi+12608+eax], xmm0
	movdqu	xmm1, XMMWORD PTR [esi+12624+eax]
	movdqu	xmm0, XMMWORD PTR [ebx+12624+eax]
	paddb	xmm0, xmm1
	movups	XMMWORD PTR [edi+12624+eax], xmm0
	movdqu	xmm1, XMMWORD PTR [esi+12640+eax]
	movdqu	xmm0, XMMWORD PTR [ebx+12640+eax]
	paddb	xmm0, xmm1
	movups	XMMWORD PTR [edi+12640+eax], xmm0
	movdqu	xmm1, XMMWORD PTR [esi+12656+eax]
	movdqu	xmm0, XMMWORD PTR [ebx+12656+eax]
	paddb	xmm0, xmm1
	movups	XMMWORD PTR [edi+12656+eax], xmm0
	movdqu	xmm1, XMMWORD PTR [esi+12672+eax]
	movdqu	xmm0, XMMWORD PTR [ebx+12672+eax]
	paddb	xmm0, xmm1
	movups	XMMWORD PTR [edi+12672+eax], xmm0
	movdqu	xmm1, XMMWORD PTR [esi+12688+eax]
	movdqu	xmm0, XMMWORD PTR [ebx+12688+eax]
	paddb	xmm0, xmm1
	movups	XMMWORD PTR [edi+12688+eax], xmm0
	movdqu	xmm1, XMMWORD PTR [esi+12704+eax]
	movdqu	xmm0, XMMWORD PTR [ebx+12704+eax]
	paddb	xmm0, xmm1
	movups	XMMWORD PTR [edi+12704+eax], xmm0
	movdqu	xmm1, XMMWORD PTR [esi+12720+eax]
	movdqu	xmm0, XMMWORD PTR [ebx+12720+eax]
	paddb	xmm0, xmm1
	movups	XMMWORD PTR [edi+12720+eax], xmm0
	movdqu	xmm1, XMMWORD PTR [esi+12736+eax]
	movdqu	xmm0, XMMWORD PTR [ebx+12736+eax]
	paddb	xmm0, xmm1
	movups	XMMWORD PTR [edi+12736+eax], xmm0
	movdqu	xmm1, XMMWORD PTR [esi+12752+eax]
	movdqu	xmm0, XMMWORD PTR [ebx+12752+eax]
	paddb	xmm0, xmm1
	movups	XMMWORD PTR [edi+12752+eax], xmm0
	movdqu	xmm1, XMMWORD PTR [esi+12768+eax]
	movdqu	xmm0, XMMWORD PTR [ebx+12768+eax]
	paddb	xmm0, xmm1
	movups	XMMWORD PTR [edi+12768+eax], xmm0
	movdqu	xmm1, XMMWORD PTR [esi+12784+eax]
	movdqu	xmm0, XMMWORD PTR [ebx+12784+eax]
	paddb	xmm0, xmm1
	movups	XMMWORD PTR [edi+12784+eax], xmm0
	movdqu	xmm1, XMMWORD PTR [esi+12800+eax]
	movdqu	xmm0, XMMWORD PTR [ebx+12800+eax]
	paddb	xmm0, xmm1
	movups	XMMWORD PTR [edi+12800+eax], xmm0
	movdqu	xmm1, XMMWORD PTR [esi+12816+eax]
	movdqu	xmm0, XMMWORD PTR [ebx+12816+eax]
	paddb	xmm0, xmm1
	movups	XMMWORD PTR [edi+12816+eax], xmm0
	movdqu	xmm1, XMMWORD PTR [esi+12832+eax]
	movdqu	xmm0, XMMWORD PTR [ebx+12832+eax]
	paddb	xmm0, xmm1
	movups	XMMWORD PTR [edi+12832+eax], xmm0
	movdqu	xmm1, XMMWORD PTR [esi+12848+eax]
	movdqu	xmm0, XMMWORD PTR [ebx+12848+eax]
	paddb	xmm0, xmm1
	movups	XMMWORD PTR [edi+12848+eax], xmm0
	movdqu	xmm1, XMMWORD PTR [esi+12864+eax]
	movdqu	xmm0, XMMWORD PTR [ebx+12864+eax]
	paddb	xmm0, xmm1
	movups	XMMWORD PTR [edi+12864+eax], xmm0
	movdqu	xmm1, XMMWORD PTR [esi+12880+eax]
	movdqu	xmm0, XMMWORD PTR [ebx+12880+eax]
	paddb	xmm0, xmm1
	movups	XMMWORD PTR [edi+12880+eax], xmm0
	movdqu	xmm1, XMMWORD PTR [esi+12896+eax]
	movdqu	xmm0, XMMWORD PTR [ebx+12896+eax]
	paddb	xmm0, xmm1
	movups	XMMWORD PTR [edi+12896+eax], xmm0
	movdqu	xmm1, XMMWORD PTR [esi+12912+eax]
	movdqu	xmm0, XMMWORD PTR [ebx+12912+eax]
	paddb	xmm0, xmm1
	movups	XMMWORD PTR [edi+12912+eax], xmm0
	movdqu	xmm1, XMMWORD PTR [esi+12928+eax]
	movdqu	xmm0, XMMWORD PTR [ebx+12928+eax]
	paddb	xmm0, xmm1
	movups	XMMWORD PTR [edi+12928+eax], xmm0
	movdqu	xmm1, XMMWORD PTR [esi+12944+eax]
	movdqu	xmm0, XMMWORD PTR [ebx+12944+eax]
	paddb	xmm0, xmm1
	movups	XMMWORD PTR [edi+12944+eax], xmm0
	movdqu	xmm1, XMMWORD PTR [esi+12960+eax]
	movdqu	xmm0, XMMWORD PTR [ebx+12960+eax]
	paddb	xmm0, xmm1
	movups	XMMWORD PTR [edi+12960+eax], xmm0
	movdqu	xmm1, XMMWORD PTR [esi+12976+eax]
	movdqu	xmm0, XMMWORD PTR [ebx+12976+eax]
	paddb	xmm0, xmm1
	movups	XMMWORD PTR [edi+12976+eax], xmm0
	movdqu	xmm1, XMMWORD PTR [esi+12992+eax]
	movdqu	xmm0, XMMWORD PTR [ebx+12992+eax]
	paddb	xmm0, xmm1
	movups	XMMWORD PTR [edi+12992+eax], xmm0
	movdqu	xmm1, XMMWORD PTR [esi+13008+eax]
	movdqu	xmm0, XMMWORD PTR [ebx+13008+eax]
	paddb	xmm0, xmm1
	movups	XMMWORD PTR [edi+13008+eax], xmm0
	movdqu	xmm1, XMMWORD PTR [esi+13024+eax]
	movdqu	xmm0, XMMWORD PTR [ebx+13024+eax]
	paddb	xmm0, xmm1
	movups	XMMWORD PTR [edi+13024+eax], xmm0
	movdqu	xmm1, XMMWORD PTR [esi+13040+eax]
	movdqu	xmm0, XMMWORD PTR [ebx+13040+eax]
	paddb	xmm0, xmm1
	movups	XMMWORD PTR [edi+13040+eax], xmm0
	movdqu	xmm1, XMMWORD PTR [esi+13056+eax]
	movdqu	xmm0, XMMWORD PTR [ebx+13056+eax]
	paddb	xmm0, xmm1
	movups	XMMWORD PTR [edi+13056+eax], xmm0
	movdqu	xmm1, XMMWORD PTR [esi+13072+eax]
	movdqu	xmm0, XMMWORD PTR [ebx+13072+eax]
	paddb	xmm0, xmm1
	movups	XMMWORD PTR [edi+13072+eax], xmm0
	movdqu	xmm1, XMMWORD PTR [esi+13088+eax]
	movdqu	xmm0, XMMWORD PTR [ebx+13088+eax]
	paddb	xmm0, xmm1
	movups	XMMWORD PTR [edi+13088+eax], xmm0
	movdqu	xmm1, XMMWORD PTR [esi+13104+eax]
	movdqu	xmm0, XMMWORD PTR [ebx+13104+eax]
	paddb	xmm0, xmm1
	movups	XMMWORD PTR [edi+13104+eax], xmm0
	movdqu	xmm1, XMMWORD PTR [esi+13120+eax]
	movdqu	xmm0, XMMWORD PTR [ebx+13120+eax]
	paddb	xmm0, xmm1
	movups	XMMWORD PTR [edi+13120+eax], xmm0
	movdqu	xmm1, XMMWORD PTR [esi+13136+eax]
	movdqu	xmm0, XMMWORD PTR [ebx+13136+eax]
	paddb	xmm0, xmm1
	movups	XMMWORD PTR [edi+13136+eax], xmm0
	movdqu	xmm1, XMMWORD PTR [esi+13152+eax]
	movdqu	xmm0, XMMWORD PTR [ebx+13152+eax]
	paddb	xmm0, xmm1
	movups	XMMWORD PTR [edi+13152+eax], xmm0
	movdqu	xmm1, XMMWORD PTR [esi+13168+eax]
	movdqu	xmm0, XMMWORD PTR [ebx+13168+eax]
	paddb	xmm0, xmm1
	movups	XMMWORD PTR [edi+13168+eax], xmm0
	movdqu	xmm1, XMMWORD PTR [esi+13184+eax]
	movdqu	xmm0, XMMWORD PTR [ebx+13184+eax]
	paddb	xmm0, xmm1
	movups	XMMWORD PTR [edi+13184+eax], xmm0
	movdqu	xmm1, XMMWORD PTR [esi+13200+eax]
	movdqu	xmm0, XMMWORD PTR [ebx+13200+eax]
	paddb	xmm0, xmm1
	movups	XMMWORD PTR [edi+13200+eax], xmm0
	movdqu	xmm1, XMMWORD PTR [esi+13216+eax]
	movdqu	xmm0, XMMWORD PTR [ebx+13216+eax]
	paddb	xmm0, xmm1
	movups	XMMWORD PTR [edi+13216+eax], xmm0
	movdqu	xmm1, XMMWORD PTR [esi+13232+eax]
	movdqu	xmm0, XMMWORD PTR [ebx+13232+eax]
	paddb	xmm0, xmm1
	movups	XMMWORD PTR [edi+13232+eax], xmm0
	movdqu	xmm1, XMMWORD PTR [esi+13248+eax]
	movdqu	xmm0, XMMWORD PTR [ebx+13248+eax]
	paddb	xmm0, xmm1
	movups	XMMWORD PTR [edi+13248+eax], xmm0
	movdqu	xmm1, XMMWORD PTR [esi+13264+eax]
	movdqu	xmm0, XMMWORD PTR [ebx+13264+eax]
	paddb	xmm0, xmm1
	movups	XMMWORD PTR [edi+13264+eax], xmm0
	movdqu	xmm1, XMMWORD PTR [esi+13280+eax]
	movdqu	xmm0, XMMWORD PTR [ebx+13280+eax]
	paddb	xmm0, xmm1
	movups	XMMWORD PTR [edi+13280+eax], xmm0
	movdqu	xmm1, XMMWORD PTR [esi+13296+eax]
	movdqu	xmm0, XMMWORD PTR [ebx+13296+eax]
	paddb	xmm0, xmm1
	movups	XMMWORD PTR [edi+13296+eax], xmm0
	movdqu	xmm1, XMMWORD PTR [esi+13312+eax]
	movdqu	xmm0, XMMWORD PTR [ebx+13312+eax]
	paddb	xmm0, xmm1
	movups	XMMWORD PTR [edi+13312+eax], xmm0
	movdqu	xmm1, XMMWORD PTR [esi+13328+eax]
	movdqu	xmm0, XMMWORD PTR [ebx+13328+eax]
	paddb	xmm0, xmm1
	movups	XMMWORD PTR [edi+13328+eax], xmm0
	movdqu	xmm1, XMMWORD PTR [esi+13344+eax]
	movdqu	xmm0, XMMWORD PTR [ebx+13344+eax]
	paddb	xmm0, xmm1
	movups	XMMWORD PTR [edi+13344+eax], xmm0
	movdqu	xmm1, XMMWORD PTR [esi+13360+eax]
	movdqu	xmm0, XMMWORD PTR [ebx+13360+eax]
	paddb	xmm0, xmm1
	movups	XMMWORD PTR [edi+13360+eax], xmm0
	movdqu	xmm1, XMMWORD PTR [esi+13376+eax]
	movdqu	xmm0, XMMWORD PTR [ebx+13376+eax]
	paddb	xmm0, xmm1
	movups	XMMWORD PTR [edi+13376+eax], xmm0
	movdqu	xmm1, XMMWORD PTR [esi+13392+eax]
	movdqu	xmm0, XMMWORD PTR [ebx+13392+eax]
	paddb	xmm0, xmm1
	movups	XMMWORD PTR [edi+13392+eax], xmm0
	movdqu	xmm1, XMMWORD PTR [esi+13408+eax]
	movdqu	xmm0, XMMWORD PTR [ebx+13408+eax]
	paddb	xmm0, xmm1
	movups	XMMWORD PTR [edi+13408+eax], xmm0
	movdqu	xmm1, XMMWORD PTR [esi+13424+eax]
	movdqu	xmm0, XMMWORD PTR [ebx+13424+eax]
	paddb	xmm0, xmm1
	movups	XMMWORD PTR [edi+13424+eax], xmm0
	movdqu	xmm1, XMMWORD PTR [esi+13440+eax]
	movdqu	xmm0, XMMWORD PTR [ebx+13440+eax]
	paddb	xmm0, xmm1
	movups	XMMWORD PTR [edi+13440+eax], xmm0
	movdqu	xmm1, XMMWORD PTR [esi+13456+eax]
	movdqu	xmm0, XMMWORD PTR [ebx+13456+eax]
	paddb	xmm0, xmm1
	movups	XMMWORD PTR [edi+13456+eax], xmm0
	movdqu	xmm1, XMMWORD PTR [esi+13472+eax]
	movdqu	xmm0, XMMWORD PTR [ebx+13472+eax]
	paddb	xmm0, xmm1
	movups	XMMWORD PTR [edi+13472+eax], xmm0
	movdqu	xmm1, XMMWORD PTR [esi+13488+eax]
	movdqu	xmm0, XMMWORD PTR [ebx+13488+eax]
	paddb	xmm0, xmm1
	movups	XMMWORD PTR [edi+13488+eax], xmm0
	movdqu	xmm1, XMMWORD PTR [esi+13504+eax]
	movdqu	xmm0, XMMWORD PTR [ebx+13504+eax]
	paddb	xmm0, xmm1
	movups	XMMWORD PTR [edi+13504+eax], xmm0
	movdqu	xmm1, XMMWORD PTR [esi+13520+eax]
	movdqu	xmm0, XMMWORD PTR [ebx+13520+eax]
	paddb	xmm0, xmm1
	movups	XMMWORD PTR [edi+13520+eax], xmm0
	movdqu	xmm1, XMMWORD PTR [esi+13536+eax]
	movdqu	xmm0, XMMWORD PTR [ebx+13536+eax]
	paddb	xmm0, xmm1
	movups	XMMWORD PTR [edi+13536+eax], xmm0
	movdqu	xmm1, XMMWORD PTR [esi+13552+eax]
	movdqu	xmm0, XMMWORD PTR [ebx+13552+eax]
	paddb	xmm0, xmm1
	movups	XMMWORD PTR [edi+13552+eax], xmm0
	movdqu	xmm1, XMMWORD PTR [esi+13568+eax]
	movdqu	xmm0, XMMWORD PTR [ebx+13568+eax]
	paddb	xmm0, xmm1
	movups	XMMWORD PTR [edi+13568+eax], xmm0
	movdqu	xmm1, XMMWORD PTR [esi+13584+eax]
	movdqu	xmm0, XMMWORD PTR [ebx+13584+eax]
	paddb	xmm0, xmm1
	movups	XMMWORD PTR [edi+13584+eax], xmm0
	movdqu	xmm1, XMMWORD PTR [esi+13600+eax]
	movdqu	xmm0, XMMWORD PTR [ebx+13600+eax]
	paddb	xmm0, xmm1
	movups	XMMWORD PTR [edi+13600+eax], xmm0
	movdqu	xmm1, XMMWORD PTR [esi+13616+eax]
	movdqu	xmm0, XMMWORD PTR [ebx+13616+eax]
	paddb	xmm0, xmm1
	movups	XMMWORD PTR [edi+13616+eax], xmm0
	movdqu	xmm1, XMMWORD PTR [esi+13632+eax]
	movdqu	xmm0, XMMWORD PTR [ebx+13632+eax]
	paddb	xmm0, xmm1
	movups	XMMWORD PTR [edi+13632+eax], xmm0
	movdqu	xmm1, XMMWORD PTR [esi+13648+eax]
	movdqu	xmm0, XMMWORD PTR [ebx+13648+eax]
	paddb	xmm0, xmm1
	movups	XMMWORD PTR [edi+13648+eax], xmm0
	movdqu	xmm1, XMMWORD PTR [esi+13664+eax]
	movdqu	xmm0, XMMWORD PTR [ebx+13664+eax]
	paddb	xmm0, xmm1
	movups	XMMWORD PTR [edi+13664+eax], xmm0
	movdqu	xmm1, XMMWORD PTR [esi+13680+eax]
	movdqu	xmm0, XMMWORD PTR [ebx+13680+eax]
	paddb	xmm0, xmm1
	movups	XMMWORD PTR [edi+13680+eax], xmm0
	movdqu	xmm1, XMMWORD PTR [esi+13696+eax]
	movdqu	xmm0, XMMWORD PTR [ebx+13696+eax]
	paddb	xmm0, xmm1
	movups	XMMWORD PTR [edi+13696+eax], xmm0
	movdqu	xmm1, XMMWORD PTR [esi+13712+eax]
	movdqu	xmm0, XMMWORD PTR [ebx+13712+eax]
	paddb	xmm0, xmm1
	movups	XMMWORD PTR [edi+13712+eax], xmm0
	movdqu	xmm1, XMMWORD PTR [esi+13728+eax]
	movdqu	xmm0, XMMWORD PTR [ebx+13728+eax]
	paddb	xmm0, xmm1
	movups	XMMWORD PTR [edi+13728+eax], xmm0
	movdqu	xmm1, XMMWORD PTR [esi+13744+eax]
	movdqu	xmm0, XMMWORD PTR [ebx+13744+eax]
	paddb	xmm0, xmm1
	movups	XMMWORD PTR [edi+13744+eax], xmm0
	movdqu	xmm1, XMMWORD PTR [esi+13760+eax]
	movdqu	xmm0, XMMWORD PTR [ebx+13760+eax]
	paddb	xmm0, xmm1
	movups	XMMWORD PTR [edi+13760+eax], xmm0
	movdqu	xmm1, XMMWORD PTR [esi+13776+eax]
	movdqu	xmm0, XMMWORD PTR [ebx+13776+eax]
	paddb	xmm0, xmm1
	movups	XMMWORD PTR [edi+13776+eax], xmm0
	movdqu	xmm1, XMMWORD PTR [esi+13792+eax]
	movdqu	xmm0, XMMWORD PTR [ebx+13792+eax]
	paddb	xmm0, xmm1
	movups	XMMWORD PTR [edi+13792+eax], xmm0
	movdqu	xmm1, XMMWORD PTR [esi+13808+eax]
	movdqu	xmm0, XMMWORD PTR [ebx+13808+eax]
	paddb	xmm0, xmm1
	movups	XMMWORD PTR [edi+13808+eax], xmm0
	movdqu	xmm1, XMMWORD PTR [esi+13824+eax]
	movdqu	xmm0, XMMWORD PTR [ebx+13824+eax]
	paddb	xmm0, xmm1
	movups	XMMWORD PTR [edi+13824+eax], xmm0
	movdqu	xmm1, XMMWORD PTR [esi+13840+eax]
	movdqu	xmm0, XMMWORD PTR [ebx+13840+eax]
	paddb	xmm0, xmm1
	movups	XMMWORD PTR [edi+13840+eax], xmm0
	movdqu	xmm1, XMMWORD PTR [esi+13856+eax]
	movdqu	xmm0, XMMWORD PTR [ebx+13856+eax]
	paddb	xmm0, xmm1
	movups	XMMWORD PTR [edi+13856+eax], xmm0
	movdqu	xmm1, XMMWORD PTR [esi+13872+eax]
	movdqu	xmm0, XMMWORD PTR [ebx+13872+eax]
	paddb	xmm0, xmm1
	movups	XMMWORD PTR [edi+13872+eax], xmm0
	movdqu	xmm1, XMMWORD PTR [esi+13888+eax]
	movdqu	xmm0, XMMWORD PTR [ebx+13888+eax]
	paddb	xmm0, xmm1
	movups	XMMWORD PTR [edi+13888+eax], xmm0
	movdqu	xmm1, XMMWORD PTR [esi+13904+eax]
	movdqu	xmm0, XMMWORD PTR [ebx+13904+eax]
	paddb	xmm0, xmm1
	movups	XMMWORD PTR [edi+13904+eax], xmm0
	movdqu	xmm1, XMMWORD PTR [esi+13920+eax]
	movdqu	xmm0, XMMWORD PTR [ebx+13920+eax]
	paddb	xmm0, xmm1
	movups	XMMWORD PTR [edi+13920+eax], xmm0
	movdqu	xmm1, XMMWORD PTR [esi+13936+eax]
	movdqu	xmm0, XMMWORD PTR [ebx+13936+eax]
	paddb	xmm0, xmm1
	movups	XMMWORD PTR [edi+13936+eax], xmm0
	movdqu	xmm1, XMMWORD PTR [esi+13952+eax]
	movdqu	xmm0, XMMWORD PTR [ebx+13952+eax]
	paddb	xmm0, xmm1
	movups	XMMWORD PTR [edi+13952+eax], xmm0
	movdqu	xmm1, XMMWORD PTR [esi+13968+eax]
	movdqu	xmm0, XMMWORD PTR [ebx+13968+eax]
	paddb	xmm0, xmm1
	movups	XMMWORD PTR [edi+13968+eax], xmm0
	movdqu	xmm1, XMMWORD PTR [esi+13984+eax]
	movdqu	xmm0, XMMWORD PTR [ebx+13984+eax]
	paddb	xmm0, xmm1
	movups	XMMWORD PTR [edi+13984+eax], xmm0
	movdqu	xmm1, XMMWORD PTR [esi+14000+eax]
	movdqu	xmm0, XMMWORD PTR [ebx+14000+eax]
	paddb	xmm0, xmm1
	movups	XMMWORD PTR [edi+14000+eax], xmm0
	movdqu	xmm1, XMMWORD PTR [esi+14016+eax]
	movdqu	xmm0, XMMWORD PTR [ebx+14016+eax]
	paddb	xmm0, xmm1
	movups	XMMWORD PTR [edi+14016+eax], xmm0
	movdqu	xmm1, XMMWORD PTR [esi+14032+eax]
	movdqu	xmm0, XMMWORD PTR [ebx+14032+eax]
	paddb	xmm0, xmm1
	movups	XMMWORD PTR [edi+14032+eax], xmm0
	movdqu	xmm1, XMMWORD PTR [esi+14048+eax]
	movdqu	xmm0, XMMWORD PTR [ebx+14048+eax]
	paddb	xmm0, xmm1
	movups	XMMWORD PTR [edi+14048+eax], xmm0
	movdqu	xmm1, XMMWORD PTR [esi+14064+eax]
	movdqu	xmm0, XMMWORD PTR [ebx+14064+eax]
	paddb	xmm0, xmm1
	movups	XMMWORD PTR [edi+14064+eax], xmm0
	movdqu	xmm1, XMMWORD PTR [esi+14080+eax]
	movdqu	xmm0, XMMWORD PTR [ebx+14080+eax]
	paddb	xmm0, xmm1
	movups	XMMWORD PTR [edi+14080+eax], xmm0
	movdqu	xmm1, XMMWORD PTR [esi+14096+eax]
	movdqu	xmm0, XMMWORD PTR [ebx+14096+eax]
	paddb	xmm0, xmm1
	movups	XMMWORD PTR [edi+14096+eax], xmm0
	movdqu	xmm1, XMMWORD PTR [esi+14112+eax]
	movdqu	xmm0, XMMWORD PTR [ebx+14112+eax]
	paddb	xmm0, xmm1
	movups	XMMWORD PTR [edi+14112+eax], xmm0
	movdqu	xmm1, XMMWORD PTR [esi+14128+eax]
	movdqu	xmm0, XMMWORD PTR [ebx+14128+eax]
	paddb	xmm0, xmm1
	movups	XMMWORD PTR [edi+14128+eax], xmm0
	movdqu	xmm1, XMMWORD PTR [esi+14144+eax]
	movdqu	xmm0, XMMWORD PTR [ebx+14144+eax]
	paddb	xmm0, xmm1
	movups	XMMWORD PTR [edi+14144+eax], xmm0
	movdqu	xmm1, XMMWORD PTR [esi+14160+eax]
	movdqu	xmm0, XMMWORD PTR [ebx+14160+eax]
	paddb	xmm0, xmm1
	movups	XMMWORD PTR [edi+14160+eax], xmm0
	movdqu	xmm1, XMMWORD PTR [esi+14176+eax]
	movdqu	xmm0, XMMWORD PTR [ebx+14176+eax]
	paddb	xmm0, xmm1
	movups	XMMWORD PTR [edi+14176+eax], xmm0
	movdqu	xmm1, XMMWORD PTR [esi+14192+eax]
	movdqu	xmm0, XMMWORD PTR [ebx+14192+eax]
	paddb	xmm0, xmm1
	movups	XMMWORD PTR [edi+14192+eax], xmm0
	movdqu	xmm1, XMMWORD PTR [esi+14208+eax]
	movdqu	xmm0, XMMWORD PTR [ebx+14208+eax]
	paddb	xmm0, xmm1
	movups	XMMWORD PTR [edi+14208+eax], xmm0
	movdqu	xmm1, XMMWORD PTR [esi+14224+eax]
	movdqu	xmm0, XMMWORD PTR [ebx+14224+eax]
	paddb	xmm0, xmm1
	movups	XMMWORD PTR [edi+14224+eax], xmm0
	movdqu	xmm1, XMMWORD PTR [esi+14240+eax]
	movdqu	xmm0, XMMWORD PTR [ebx+14240+eax]
	paddb	xmm0, xmm1
	movups	XMMWORD PTR [edi+14240+eax], xmm0
	movdqu	xmm1, XMMWORD PTR [esi+14256+eax]
	movdqu	xmm0, XMMWORD PTR [ebx+14256+eax]
	paddb	xmm0, xmm1
	movups	XMMWORD PTR [edi+14256+eax], xmm0
	movdqu	xmm1, XMMWORD PTR [esi+14272+eax]
	movdqu	xmm0, XMMWORD PTR [ebx+14272+eax]
	paddb	xmm0, xmm1
	movups	XMMWORD PTR [edi+14272+eax], xmm0
	movdqu	xmm1, XMMWORD PTR [esi+14288+eax]
	movdqu	xmm0, XMMWORD PTR [ebx+14288+eax]
	paddb	xmm0, xmm1
	movups	XMMWORD PTR [edi+14288+eax], xmm0
	movdqu	xmm1, XMMWORD PTR [esi+14304+eax]
	movdqu	xmm0, XMMWORD PTR [ebx+14304+eax]
	paddb	xmm0, xmm1
	movups	XMMWORD PTR [edi+14304+eax], xmm0
	movdqu	xmm1, XMMWORD PTR [esi+14320+eax]
	movdqu	xmm0, XMMWORD PTR [ebx+14320+eax]
	paddb	xmm0, xmm1
	movups	XMMWORD PTR [edi+14320+eax], xmm0
	movdqu	xmm1, XMMWORD PTR [esi+14336+eax]
	movdqu	xmm0, XMMWORD PTR [ebx+14336+eax]
	paddb	xmm0, xmm1
	movups	XMMWORD PTR [edi+14336+eax], xmm0
	movdqu	xmm1, XMMWORD PTR [esi+14352+eax]
	movdqu	xmm0, XMMWORD PTR [ebx+14352+eax]
	paddb	xmm0, xmm1
	movups	XMMWORD PTR [edi+14352+eax], xmm0
	movdqu	xmm1, XMMWORD PTR [esi+14368+eax]
	movdqu	xmm0, XMMWORD PTR [ebx+14368+eax]
	paddb	xmm0, xmm1
	movups	XMMWORD PTR [edi+14368+eax], xmm0
	movdqu	xmm1, XMMWORD PTR [esi+14384+eax]
	movdqu	xmm0, XMMWORD PTR [ebx+14384+eax]
	paddb	xmm0, xmm1
	movups	XMMWORD PTR [edi+14384+eax], xmm0
	movdqu	xmm1, XMMWORD PTR [esi+14400+eax]
	movdqu	xmm0, XMMWORD PTR [ebx+14400+eax]
	paddb	xmm0, xmm1
	movups	XMMWORD PTR [edi+14400+eax], xmm0
	movdqu	xmm1, XMMWORD PTR [esi+14416+eax]
	movdqu	xmm0, XMMWORD PTR [ebx+14416+eax]
	paddb	xmm0, xmm1
	movups	XMMWORD PTR [edi+14416+eax], xmm0
	movdqu	xmm1, XMMWORD PTR [esi+14432+eax]
	movdqu	xmm0, XMMWORD PTR [ebx+14432+eax]
	paddb	xmm0, xmm1
	movups	XMMWORD PTR [edi+14432+eax], xmm0
	movdqu	xmm1, XMMWORD PTR [esi+14448+eax]
	movdqu	xmm0, XMMWORD PTR [ebx+14448+eax]
	paddb	xmm0, xmm1
	movups	XMMWORD PTR [edi+14448+eax], xmm0
	movdqu	xmm1, XMMWORD PTR [esi+14464+eax]
	movdqu	xmm0, XMMWORD PTR [ebx+14464+eax]
	paddb	xmm0, xmm1
	movups	XMMWORD PTR [edi+14464+eax], xmm0
	movdqu	xmm1, XMMWORD PTR [esi+14480+eax]
	movdqu	xmm0, XMMWORD PTR [ebx+14480+eax]
	paddb	xmm0, xmm1
	movups	XMMWORD PTR [edi+14480+eax], xmm0
	movdqu	xmm1, XMMWORD PTR [esi+14496+eax]
	movdqu	xmm0, XMMWORD PTR [ebx+14496+eax]
	paddb	xmm0, xmm1
	movups	XMMWORD PTR [edi+14496+eax], xmm0
	movdqu	xmm1, XMMWORD PTR [esi+14512+eax]
	movdqu	xmm0, XMMWORD PTR [ebx+14512+eax]
	paddb	xmm0, xmm1
	movups	XMMWORD PTR [edi+14512+eax], xmm0
	movdqu	xmm1, XMMWORD PTR [esi+14528+eax]
	movdqu	xmm0, XMMWORD PTR [ebx+14528+eax]
	paddb	xmm0, xmm1
	movups	XMMWORD PTR [edi+14528+eax], xmm0
	movdqu	xmm1, XMMWORD PTR [esi+14544+eax]
	movdqu	xmm0, XMMWORD PTR [ebx+14544+eax]
	paddb	xmm0, xmm1
	movups	XMMWORD PTR [edi+14544+eax], xmm0
	movdqu	xmm1, XMMWORD PTR [esi+14560+eax]
	movdqu	xmm0, XMMWORD PTR [ebx+14560+eax]
	paddb	xmm0, xmm1
	movups	XMMWORD PTR [edi+14560+eax], xmm0
	movdqu	xmm1, XMMWORD PTR [esi+14576+eax]
	movdqu	xmm0, XMMWORD PTR [ebx+14576+eax]
	paddb	xmm0, xmm1
	movups	XMMWORD PTR [edi+14576+eax], xmm0
	movdqu	xmm1, XMMWORD PTR [esi+14592+eax]
	movdqu	xmm0, XMMWORD PTR [ebx+14592+eax]
	paddb	xmm0, xmm1
	movups	XMMWORD PTR [edi+14592+eax], xmm0
	movdqu	xmm1, XMMWORD PTR [esi+14608+eax]
	movdqu	xmm0, XMMWORD PTR [ebx+14608+eax]
	paddb	xmm0, xmm1
	movups	XMMWORD PTR [edi+14608+eax], xmm0
	movdqu	xmm1, XMMWORD PTR [esi+14624+eax]
	movdqu	xmm0, XMMWORD PTR [ebx+14624+eax]
	paddb	xmm0, xmm1
	movups	XMMWORD PTR [edi+14624+eax], xmm0
	movdqu	xmm1, XMMWORD PTR [esi+14640+eax]
	movdqu	xmm0, XMMWORD PTR [ebx+14640+eax]
	paddb	xmm0, xmm1
	movups	XMMWORD PTR [edi+14640+eax], xmm0
	movdqu	xmm1, XMMWORD PTR [esi+14656+eax]
	movdqu	xmm0, XMMWORD PTR [ebx+14656+eax]
	paddb	xmm0, xmm1
	movups	XMMWORD PTR [edi+14656+eax], xmm0
	movdqu	xmm1, XMMWORD PTR [esi+14672+eax]
	movdqu	xmm0, XMMWORD PTR [ebx+14672+eax]
	paddb	xmm0, xmm1
	movups	XMMWORD PTR [edi+14672+eax], xmm0
	movdqu	xmm1, XMMWORD PTR [esi+14688+eax]
	movdqu	xmm0, XMMWORD PTR [ebx+14688+eax]
	paddb	xmm0, xmm1
	movups	XMMWORD PTR [edi+14688+eax], xmm0
	movdqu	xmm1, XMMWORD PTR [esi+14704+eax]
	movdqu	xmm0, XMMWORD PTR [ebx+14704+eax]
	paddb	xmm0, xmm1
	movups	XMMWORD PTR [edi+14704+eax], xmm0
	movdqu	xmm1, XMMWORD PTR [esi+14720+eax]
	movdqu	xmm0, XMMWORD PTR [ebx+14720+eax]
	paddb	xmm0, xmm1
	movups	XMMWORD PTR [edi+14720+eax], xmm0
	movdqu	xmm1, XMMWORD PTR [esi+14736+eax]
	movdqu	xmm0, XMMWORD PTR [ebx+14736+eax]
	paddb	xmm0, xmm1
	movups	XMMWORD PTR [edi+14736+eax], xmm0
	movdqu	xmm1, XMMWORD PTR [esi+14752+eax]
	movdqu	xmm0, XMMWORD PTR [ebx+14752+eax]
	paddb	xmm0, xmm1
	movups	XMMWORD PTR [edi+14752+eax], xmm0
	movdqu	xmm1, XMMWORD PTR [esi+14768+eax]
	movdqu	xmm0, XMMWORD PTR [ebx+14768+eax]
	paddb	xmm0, xmm1
	movups	XMMWORD PTR [edi+14768+eax], xmm0
	movdqu	xmm1, XMMWORD PTR [esi+14784+eax]
	movdqu	xmm0, XMMWORD PTR [ebx+14784+eax]
	paddb	xmm0, xmm1
	movups	XMMWORD PTR [edi+14784+eax], xmm0
	movdqu	xmm1, XMMWORD PTR [esi+14800+eax]
	movdqu	xmm0, XMMWORD PTR [ebx+14800+eax]
	paddb	xmm0, xmm1
	movups	XMMWORD PTR [edi+14800+eax], xmm0
	movdqu	xmm1, XMMWORD PTR [esi+14816+eax]
	movdqu	xmm0, XMMWORD PTR [ebx+14816+eax]
	paddb	xmm0, xmm1
	movups	XMMWORD PTR [edi+14816+eax], xmm0
	movdqu	xmm1, XMMWORD PTR [esi+14832+eax]
	movdqu	xmm0, XMMWORD PTR [ebx+14832+eax]
	paddb	xmm0, xmm1
	movups	XMMWORD PTR [edi+14832+eax], xmm0
	movdqu	xmm1, XMMWORD PTR [esi+14848+eax]
	movdqu	xmm0, XMMWORD PTR [ebx+14848+eax]
	paddb	xmm0, xmm1
	movups	XMMWORD PTR [edi+14848+eax], xmm0
	movdqu	xmm1, XMMWORD PTR [esi+14864+eax]
	movdqu	xmm0, XMMWORD PTR [ebx+14864+eax]
	paddb	xmm0, xmm1
	movups	XMMWORD PTR [edi+14864+eax], xmm0
	movdqu	xmm1, XMMWORD PTR [esi+14880+eax]
	movdqu	xmm0, XMMWORD PTR [ebx+14880+eax]
	paddb	xmm0, xmm1
	movups	XMMWORD PTR [edi+14880+eax], xmm0
	movdqu	xmm1, XMMWORD PTR [esi+14896+eax]
	movdqu	xmm0, XMMWORD PTR [ebx+14896+eax]
	paddb	xmm0, xmm1
	movups	XMMWORD PTR [edi+14896+eax], xmm0
	movdqu	xmm1, XMMWORD PTR [esi+14912+eax]
	movdqu	xmm0, XMMWORD PTR [ebx+14912+eax]
	paddb	xmm0, xmm1
	movups	XMMWORD PTR [edi+14912+eax], xmm0
	movdqu	xmm1, XMMWORD PTR [esi+14928+eax]
	movdqu	xmm0, XMMWORD PTR [ebx+14928+eax]
	paddb	xmm0, xmm1
	movups	XMMWORD PTR [edi+14928+eax], xmm0
	movdqu	xmm1, XMMWORD PTR [esi+14944+eax]
	movdqu	xmm0, XMMWORD PTR [ebx+14944+eax]
	paddb	xmm0, xmm1
	movups	XMMWORD PTR [edi+14944+eax], xmm0
	movdqu	xmm1, XMMWORD PTR [esi+14960+eax]
	movdqu	xmm0, XMMWORD PTR [ebx+14960+eax]
	paddb	xmm0, xmm1
	movups	XMMWORD PTR [edi+14960+eax], xmm0
	movdqu	xmm1, XMMWORD PTR [esi+14976+eax]
	movdqu	xmm0, XMMWORD PTR [ebx+14976+eax]
	paddb	xmm0, xmm1
	movups	XMMWORD PTR [edi+14976+eax], xmm0
	movdqu	xmm1, XMMWORD PTR [esi+14992+eax]
	movdqu	xmm0, XMMWORD PTR [ebx+14992+eax]
	paddb	xmm0, xmm1
	movups	XMMWORD PTR [edi+14992+eax], xmm0
	movdqu	xmm1, XMMWORD PTR [esi+15008+eax]
	movdqu	xmm0, XMMWORD PTR [ebx+15008+eax]
	paddb	xmm0, xmm1
	movups	XMMWORD PTR [edi+15008+eax], xmm0
	movdqu	xmm1, XMMWORD PTR [esi+15024+eax]
	movdqu	xmm0, XMMWORD PTR [ebx+15024+eax]
	paddb	xmm0, xmm1
	movups	XMMWORD PTR [edi+15024+eax], xmm0
	movdqu	xmm1, XMMWORD PTR [esi+15040+eax]
	movdqu	xmm0, XMMWORD PTR [ebx+15040+eax]
	paddb	xmm0, xmm1
	movups	XMMWORD PTR [edi+15040+eax], xmm0
	movdqu	xmm1, XMMWORD PTR [esi+15056+eax]
	movdqu	xmm0, XMMWORD PTR [ebx+15056+eax]
	paddb	xmm0, xmm1
	movups	XMMWORD PTR [edi+15056+eax], xmm0
	movdqu	xmm1, XMMWORD PTR [esi+15072+eax]
	movdqu	xmm0, XMMWORD PTR [ebx+15072+eax]
	paddb	xmm0, xmm1
	movups	XMMWORD PTR [edi+15072+eax], xmm0
	movdqu	xmm1, XMMWORD PTR [esi+15088+eax]
	movdqu	xmm0, XMMWORD PTR [ebx+15088+eax]
	paddb	xmm0, xmm1
	movups	XMMWORD PTR [edi+15088+eax], xmm0
	movdqu	xmm1, XMMWORD PTR [esi+15104+eax]
	movdqu	xmm0, XMMWORD PTR [ebx+15104+eax]
	paddb	xmm0, xmm1
	movups	XMMWORD PTR [edi+15104+eax], xmm0
	movdqu	xmm1, XMMWORD PTR [esi+15120+eax]
	movdqu	xmm0, XMMWORD PTR [ebx+15120+eax]
	paddb	xmm0, xmm1
	movups	XMMWORD PTR [edi+15120+eax], xmm0
	movdqu	xmm1, XMMWORD PTR [esi+15136+eax]
	movdqu	xmm0, XMMWORD PTR [ebx+15136+eax]
	paddb	xmm0, xmm1
	movups	XMMWORD PTR [edi+15136+eax], xmm0
	movdqu	xmm1, XMMWORD PTR [esi+15152+eax]
	movdqu	xmm0, XMMWORD PTR [ebx+15152+eax]
	paddb	xmm0, xmm1
	movups	XMMWORD PTR [edi+15152+eax], xmm0
	movdqu	xmm1, XMMWORD PTR [esi+15168+eax]
	movdqu	xmm0, XMMWORD PTR [ebx+15168+eax]
	paddb	xmm0, xmm1
	movups	XMMWORD PTR [edi+15168+eax], xmm0
	movdqu	xmm1, XMMWORD PTR [esi+15184+eax]
	movdqu	xmm0, XMMWORD PTR [ebx+15184+eax]
	paddb	xmm0, xmm1
	movups	XMMWORD PTR [edi+15184+eax], xmm0
	movdqu	xmm1, XMMWORD PTR [esi+15200+eax]
	movdqu	xmm0, XMMWORD PTR [ebx+15200+eax]
	paddb	xmm0, xmm1
	movups	XMMWORD PTR [edi+15200+eax], xmm0
	movdqu	xmm1, XMMWORD PTR [esi+15216+eax]
	movdqu	xmm0, XMMWORD PTR [ebx+15216+eax]
	paddb	xmm0, xmm1
	movups	XMMWORD PTR [edi+15216+eax], xmm0
	movdqu	xmm1, XMMWORD PTR [esi+15232+eax]
	movdqu	xmm0, XMMWORD PTR [ebx+15232+eax]
	paddb	xmm0, xmm1
	movups	XMMWORD PTR [edi+15232+eax], xmm0
	movdqu	xmm1, XMMWORD PTR [esi+15248+eax]
	movdqu	xmm0, XMMWORD PTR [ebx+15248+eax]
	paddb	xmm0, xmm1
	movups	XMMWORD PTR [edi+15248+eax], xmm0
	movdqu	xmm1, XMMWORD PTR [esi+15264+eax]
	movdqu	xmm0, XMMWORD PTR [ebx+15264+eax]
	paddb	xmm0, xmm1
	movups	XMMWORD PTR [edi+15264+eax], xmm0
	movdqu	xmm1, XMMWORD PTR [esi+15280+eax]
	movdqu	xmm0, XMMWORD PTR [ebx+15280+eax]
	paddb	xmm0, xmm1
	movups	XMMWORD PTR [edi+15280+eax], xmm0
	movdqu	xmm1, XMMWORD PTR [esi+15296+eax]
	movdqu	xmm0, XMMWORD PTR [ebx+15296+eax]
	paddb	xmm0, xmm1
	movups	XMMWORD PTR [edi+15296+eax], xmm0
	movdqu	xmm1, XMMWORD PTR [esi+15312+eax]
	movdqu	xmm0, XMMWORD PTR [ebx+15312+eax]
	paddb	xmm0, xmm1
	movups	XMMWORD PTR [edi+15312+eax], xmm0
	movdqu	xmm1, XMMWORD PTR [esi+15328+eax]
	movdqu	xmm0, XMMWORD PTR [ebx+15328+eax]
	paddb	xmm0, xmm1
	movups	XMMWORD PTR [edi+15328+eax], xmm0
	movdqu	xmm1, XMMWORD PTR [esi+15344+eax]
	movdqu	xmm0, XMMWORD PTR [ebx+15344+eax]
	paddb	xmm0, xmm1
	movups	XMMWORD PTR [edi+15344+eax], xmm0
	movdqu	xmm1, XMMWORD PTR [esi+15360+eax]
	movdqu	xmm0, XMMWORD PTR [ebx+15360+eax]
	paddb	xmm0, xmm1
	movups	XMMWORD PTR [edi+15360+eax], xmm0
	movdqu	xmm1, XMMWORD PTR [esi+15376+eax]
	movdqu	xmm0, XMMWORD PTR [ebx+15376+eax]
	paddb	xmm0, xmm1
	movups	XMMWORD PTR [edi+15376+eax], xmm0
	movdqu	xmm1, XMMWORD PTR [esi+15392+eax]
	movdqu	xmm0, XMMWORD PTR [ebx+15392+eax]
	paddb	xmm0, xmm1
	movups	XMMWORD PTR [edi+15392+eax], xmm0
	movdqu	xmm1, XMMWORD PTR [esi+15408+eax]
	movdqu	xmm0, XMMWORD PTR [ebx+15408+eax]
	paddb	xmm0, xmm1
	movups	XMMWORD PTR [edi+15408+eax], xmm0
	movdqu	xmm1, XMMWORD PTR [esi+15424+eax]
	movdqu	xmm0, XMMWORD PTR [ebx+15424+eax]
	paddb	xmm0, xmm1
	movups	XMMWORD PTR [edi+15424+eax], xmm0
	movdqu	xmm1, XMMWORD PTR [esi+15440+eax]
	movdqu	xmm0, XMMWORD PTR [ebx+15440+eax]
	paddb	xmm0, xmm1
	movups	XMMWORD PTR [edi+15440+eax], xmm0
	movdqu	xmm1, XMMWORD PTR [esi+15456+eax]
	movdqu	xmm0, XMMWORD PTR [ebx+15456+eax]
	paddb	xmm0, xmm1
	movups	XMMWORD PTR [edi+15456+eax], xmm0
	movdqu	xmm1, XMMWORD PTR [esi+15472+eax]
	movdqu	xmm0, XMMWORD PTR [ebx+15472+eax]
	paddb	xmm0, xmm1
	movups	XMMWORD PTR [edi+15472+eax], xmm0
	movdqu	xmm1, XMMWORD PTR [esi+15488+eax]
	movdqu	xmm0, XMMWORD PTR [ebx+15488+eax]
	paddb	xmm0, xmm1
	movups	XMMWORD PTR [edi+15488+eax], xmm0
	movdqu	xmm1, XMMWORD PTR [esi+15504+eax]
	movdqu	xmm0, XMMWORD PTR [ebx+15504+eax]
	paddb	xmm0, xmm1
	movups	XMMWORD PTR [edi+15504+eax], xmm0
	movdqu	xmm1, XMMWORD PTR [esi+15520+eax]
	movdqu	xmm0, XMMWORD PTR [ebx+15520+eax]
	paddb	xmm0, xmm1
	movups	XMMWORD PTR [edi+15520+eax], xmm0
	movdqu	xmm1, XMMWORD PTR [esi+15536+eax]
	movdqu	xmm0, XMMWORD PTR [ebx+15536+eax]
	paddb	xmm0, xmm1
	movups	XMMWORD PTR [edi+15536+eax], xmm0
	movdqu	xmm1, XMMWORD PTR [esi+15552+eax]
	movdqu	xmm0, XMMWORD PTR [ebx+15552+eax]
	paddb	xmm0, xmm1
	movups	XMMWORD PTR [edi+15552+eax], xmm0
	movdqu	xmm1, XMMWORD PTR [esi+15568+eax]
	movdqu	xmm0, XMMWORD PTR [ebx+15568+eax]
	paddb	xmm0, xmm1
	movups	XMMWORD PTR [edi+15568+eax], xmm0
	movdqu	xmm1, XMMWORD PTR [esi+15584+eax]
	movdqu	xmm0, XMMWORD PTR [ebx+15584+eax]
	paddb	xmm0, xmm1
	movups	XMMWORD PTR [edi+15584+eax], xmm0
	movdqu	xmm1, XMMWORD PTR [esi+15600+eax]
	movdqu	xmm0, XMMWORD PTR [ebx+15600+eax]
	paddb	xmm0, xmm1
	movups	XMMWORD PTR [edi+15600+eax], xmm0
	movdqu	xmm1, XMMWORD PTR [esi+15616+eax]
	movdqu	xmm0, XMMWORD PTR [ebx+15616+eax]
	paddb	xmm0, xmm1
	movups	XMMWORD PTR [edi+15616+eax], xmm0
	movdqu	xmm1, XMMWORD PTR [esi+15632+eax]
	movdqu	xmm0, XMMWORD PTR [ebx+15632+eax]
	paddb	xmm0, xmm1
	movups	XMMWORD PTR [edi+15632+eax], xmm0
	movdqu	xmm1, XMMWORD PTR [esi+15648+eax]
	movdqu	xmm0, XMMWORD PTR [ebx+15648+eax]
	paddb	xmm0, xmm1
	movups	XMMWORD PTR [edi+15648+eax], xmm0
	movdqu	xmm1, XMMWORD PTR [esi+15664+eax]
	movdqu	xmm0, XMMWORD PTR [ebx+15664+eax]
	paddb	xmm0, xmm1
	movups	XMMWORD PTR [edi+15664+eax], xmm0
	movdqu	xmm1, XMMWORD PTR [esi+15680+eax]
	movdqu	xmm0, XMMWORD PTR [ebx+15680+eax]
	paddb	xmm0, xmm1
	movups	XMMWORD PTR [edi+15680+eax], xmm0
	movdqu	xmm1, XMMWORD PTR [esi+15696+eax]
	movdqu	xmm0, XMMWORD PTR [ebx+15696+eax]
	paddb	xmm0, xmm1
	movups	XMMWORD PTR [edi+15696+eax], xmm0
	movdqu	xmm1, XMMWORD PTR [esi+15712+eax]
	movdqu	xmm0, XMMWORD PTR [ebx+15712+eax]
	paddb	xmm0, xmm1
	movups	XMMWORD PTR [edi+15712+eax], xmm0
	movdqu	xmm1, XMMWORD PTR [esi+15728+eax]
	movdqu	xmm0, XMMWORD PTR [ebx+15728+eax]
	paddb	xmm0, xmm1
	movups	XMMWORD PTR [edi+15728+eax], xmm0
	movdqu	xmm1, XMMWORD PTR [esi+15744+eax]
	movdqu	xmm0, XMMWORD PTR [ebx+15744+eax]
	paddb	xmm0, xmm1
	movups	XMMWORD PTR [edi+15744+eax], xmm0
	movdqu	xmm1, XMMWORD PTR [esi+15760+eax]
	movdqu	xmm0, XMMWORD PTR [ebx+15760+eax]
	paddb	xmm0, xmm1
	movups	XMMWORD PTR [edi+15760+eax], xmm0
	movdqu	xmm1, XMMWORD PTR [esi+15776+eax]
	movdqu	xmm0, XMMWORD PTR [ebx+15776+eax]
	paddb	xmm0, xmm1
	movups	XMMWORD PTR [edi+15776+eax], xmm0
	movdqu	xmm1, XMMWORD PTR [esi+15792+eax]
	movdqu	xmm0, XMMWORD PTR [ebx+15792+eax]
	paddb	xmm0, xmm1
	movups	XMMWORD PTR [edi+15792+eax], xmm0
	movdqu	xmm1, XMMWORD PTR [esi+15808+eax]
	movdqu	xmm0, XMMWORD PTR [ebx+15808+eax]
	paddb	xmm0, xmm1
	movups	XMMWORD PTR [edi+15808+eax], xmm0
	movdqu	xmm1, XMMWORD PTR [esi+15824+eax]
	movdqu	xmm0, XMMWORD PTR [ebx+15824+eax]
	paddb	xmm0, xmm1
	movups	XMMWORD PTR [edi+15824+eax], xmm0
	movdqu	xmm1, XMMWORD PTR [esi+15840+eax]
	movdqu	xmm0, XMMWORD PTR [ebx+15840+eax]
	paddb	xmm0, xmm1
	movups	XMMWORD PTR [edi+15840+eax], xmm0
	movdqu	xmm1, XMMWORD PTR [esi+15856+eax]
	movdqu	xmm0, XMMWORD PTR [ebx+15856+eax]
	paddb	xmm0, xmm1
	movups	XMMWORD PTR [edi+15856+eax], xmm0
	movdqu	xmm1, XMMWORD PTR [esi+15872+eax]
	movdqu	xmm0, XMMWORD PTR [ebx+15872+eax]
	paddb	xmm0, xmm1
	movups	XMMWORD PTR [edi+15872+eax], xmm0
	movdqu	xmm1, XMMWORD PTR [esi+15888+eax]
	movdqu	xmm0, XMMWORD PTR [ebx+15888+eax]
	paddb	xmm0, xmm1
	movups	XMMWORD PTR [edi+15888+eax], xmm0
	movdqu	xmm1, XMMWORD PTR [esi+15904+eax]
	movdqu	xmm0, XMMWORD PTR [ebx+15904+eax]
	paddb	xmm0, xmm1
	movups	XMMWORD PTR [edi+15904+eax], xmm0
	movdqu	xmm1, XMMWORD PTR [esi+15920+eax]
	movdqu	xmm0, XMMWORD PTR [ebx+15920+eax]
	paddb	xmm0, xmm1
	movups	XMMWORD PTR [edi+15920+eax], xmm0
	movdqu	xmm1, XMMWORD PTR [esi+15936+eax]
	movdqu	xmm0, XMMWORD PTR [ebx+15936+eax]
	paddb	xmm0, xmm1
	movups	XMMWORD PTR [edi+15936+eax], xmm0
	movdqu	xmm1, XMMWORD PTR [esi+15952+eax]
	movdqu	xmm0, XMMWORD PTR [ebx+15952+eax]
	paddb	xmm0, xmm1
	movups	XMMWORD PTR [edi+15952+eax], xmm0
	movdqu	xmm1, XMMWORD PTR [esi+15968+eax]
	movdqu	xmm0, XMMWORD PTR [ebx+15968+eax]
	paddb	xmm0, xmm1
	movups	XMMWORD PTR [edi+15968+eax], xmm0
	movdqu	xmm1, XMMWORD PTR [esi+15984+eax]
	movdqu	xmm0, XMMWORD PTR [ebx+15984+eax]
	paddb	xmm0, xmm1
	movups	XMMWORD PTR [edi+15984+eax], xmm0
	movdqu	xmm1, XMMWORD PTR [esi+16000+eax]
	movdqu	xmm0, XMMWORD PTR [ebx+16000+eax]
	paddb	xmm0, xmm1
	movups	XMMWORD PTR [edi+16000+eax], xmm0
	movdqu	xmm1, XMMWORD PTR [esi+16016+eax]
	movdqu	xmm0, XMMWORD PTR [ebx+16016+eax]
	paddb	xmm0, xmm1
	movups	XMMWORD PTR [edi+16016+eax], xmm0
	movdqu	xmm1, XMMWORD PTR [esi+16032+eax]
	movdqu	xmm0, XMMWORD PTR [ebx+16032+eax]
	paddb	xmm0, xmm1
	movups	XMMWORD PTR [edi+16032+eax], xmm0
	movdqu	xmm1, XMMWORD PTR [esi+16048+eax]
	movdqu	xmm0, XMMWORD PTR [ebx+16048+eax]
	paddb	xmm0, xmm1
	movups	XMMWORD PTR [edi+16048+eax], xmm0
	movdqu	xmm1, XMMWORD PTR [esi+16064+eax]
	movdqu	xmm0, XMMWORD PTR [ebx+16064+eax]
	paddb	xmm0, xmm1
	movups	XMMWORD PTR [edi+16064+eax], xmm0
	movdqu	xmm1, XMMWORD PTR [esi+16080+eax]
	movdqu	xmm0, XMMWORD PTR [ebx+16080+eax]
	paddb	xmm0, xmm1
	movups	XMMWORD PTR [edi+16080+eax], xmm0
	movdqu	xmm1, XMMWORD PTR [esi+16096+eax]
	movdqu	xmm0, XMMWORD PTR [ebx+16096+eax]
	paddb	xmm0, xmm1
	movups	XMMWORD PTR [edi+16096+eax], xmm0
	movdqu	xmm1, XMMWORD PTR [esi+16112+eax]
	movdqu	xmm0, XMMWORD PTR [ebx+16112+eax]
	paddb	xmm0, xmm1
	movups	XMMWORD PTR [edi+16112+eax], xmm0
	movdqu	xmm1, XMMWORD PTR [esi+16128+eax]
	movdqu	xmm0, XMMWORD PTR [ebx+16128+eax]
	paddb	xmm0, xmm1
	movups	XMMWORD PTR [edi+16128+eax], xmm0
	movdqu	xmm1, XMMWORD PTR [esi+16144+eax]
	movdqu	xmm0, XMMWORD PTR [ebx+16144+eax]
	paddb	xmm0, xmm1
	movups	XMMWORD PTR [edi+16144+eax], xmm0
	movdqu	xmm1, XMMWORD PTR [esi+16160+eax]
	movdqu	xmm0, XMMWORD PTR [ebx+16160+eax]
	paddb	xmm0, xmm1
	movups	XMMWORD PTR [edi+16160+eax], xmm0
	movdqu	xmm1, XMMWORD PTR [esi+16176+eax]
	movdqu	xmm0, XMMWORD PTR [ebx+16176+eax]
	paddb	xmm0, xmm1
	movups	XMMWORD PTR [edi+16176+eax], xmm0
	movdqu	xmm1, XMMWORD PTR [esi+16192+eax]
	movdqu	xmm0, XMMWORD PTR [ebx+16192+eax]
	paddb	xmm0, xmm1
	movups	XMMWORD PTR [edi+16192+eax], xmm0
	movdqu	xmm1, XMMWORD PTR [esi+16208+eax]
	movdqu	xmm0, XMMWORD PTR [ebx+16208+eax]
	paddb	xmm0, xmm1
	movups	XMMWORD PTR [edi+16208+eax], xmm0
	movdqu	xmm1, XMMWORD PTR [esi+16224+eax]
	movdqu	xmm0, XMMWORD PTR [ebx+16224+eax]
	paddb	xmm0, xmm1
	movups	XMMWORD PTR [edi+16224+eax], xmm0
	movdqu	xmm1, XMMWORD PTR [esi+16240+eax]
	movdqu	xmm0, XMMWORD PTR [ebx+16240+eax]
	paddb	xmm0, xmm1
	movups	XMMWORD PTR [edi+16240+eax], xmm0
	movdqu	xmm1, XMMWORD PTR [esi+16256+eax]
	movdqu	xmm0, XMMWORD PTR [ebx+16256+eax]
	paddb	xmm0, xmm1
	movups	XMMWORD PTR [edi+16256+eax], xmm0
	movdqu	xmm1, XMMWORD PTR [esi+16272+eax]
	movdqu	xmm0, XMMWORD PTR [ebx+16272+eax]
	paddb	xmm0, xmm1
	movups	XMMWORD PTR [edi+16272+eax], xmm0
	movdqu	xmm1, XMMWORD PTR [esi+16288+eax]
	movdqu	xmm0, XMMWORD PTR [ebx+16288+eax]
	paddb	xmm0, xmm1
	movups	XMMWORD PTR [edi+16288+eax], xmm0
	movdqu	xmm1, XMMWORD PTR [esi+16304+eax]
	movdqu	xmm0, XMMWORD PTR [ebx+16304+eax]
	paddb	xmm0, xmm1
	movups	XMMWORD PTR [edi+16304+eax], xmm0
	movdqu	xmm1, XMMWORD PTR [esi+16320+eax]
	movdqu	xmm0, XMMWORD PTR [ebx+16320+eax]
	paddb	xmm0, xmm1
	movups	XMMWORD PTR [edi+16320+eax], xmm0
	movdqu	xmm1, XMMWORD PTR [esi+16336+eax]
	movdqu	xmm0, XMMWORD PTR [ebx+16336+eax]
	paddb	xmm0, xmm1
	movups	XMMWORD PTR [edi+16336+eax], xmm0
	movdqu	xmm0, XMMWORD PTR [ebx+16352+eax]
	movdqu	xmm1, XMMWORD PTR [esi+16352+eax]
	paddb	xmm0, xmm1
	movups	XMMWORD PTR [edi+16352+eax], xmm0
	cmp	edx, 134217728
	jne	L17
	movzx	eax, BYTE PTR [edi]
	mov	DWORD PTR [esp], OFFSET FLAT:LC3
	mov	DWORD PTR [esp+4], eax
	call	_printf
	mov	eax, DWORD PTR [ebp-36]
	test	eax, eax
	je	L18
	mov	DWORD PTR [esp], eax
	call	__ZdlPv
L18:
	mov	eax, DWORD PTR [ebp-48]
	test	eax, eax
	je	L19
	mov	DWORD PTR [esp], eax
	call	__ZdlPv
L19:
	mov	eax, DWORD PTR [ebp-60]
	test	eax, eax
	je	L32
	mov	DWORD PTR [esp], eax
	call	__ZdlPv
L32:
	lea	esp, [ebp-16]
	xor	eax, eax
	pop	ecx
	.cfi_remember_state
	.cfi_restore 1
	.cfi_def_cfa 1, 0
	pop	ebx
	.cfi_restore 3
	pop	esi
	.cfi_restore 6
	pop	edi
	.cfi_restore 7
	pop	ebp
	.cfi_restore 5
	lea	esp, [ecx-4]
	.cfi_def_cfa 4, 4
	ret
L25:
	.cfi_restore_state
	mov	ebx, eax
	jmp	L21
	.def	___gxx_personality_v0;	.scl	2;	.type	32;	.endef
	.section	.gcc_except_table,"w"
LLSDA846:
	.byte	0xff
	.byte	0xff
	.byte	0x1
	.uleb128 LLSDACSE846-LLSDACSB846
LLSDACSB846:
	.uleb128 LEHB0-LFB846
	.uleb128 LEHE0-LEHB0
	.uleb128 L25-LFB846
	.uleb128 0
LLSDACSE846:
	.section	.text.startup,"x"
	.cfi_endproc
	.section	.text.unlikely,"x"
	.cfi_startproc
	.cfi_personality 0,___gxx_personality_v0
	.cfi_lsda 0,LLSDAC846
	.def	_main.cold.22;	.scl	3;	.type	32;	.endef
_main.cold.22:
L21:
	.cfi_escape 0xf,0x3,0x75,0x70,0x6
	.cfi_escape 0x10,0x3,0x2,0x75,0x74
	.cfi_escape 0x10,0x5,0x2,0x75,0
	.cfi_escape 0x10,0x6,0x2,0x75,0x78
	.cfi_escape 0x10,0x7,0x2,0x75,0x7c
	mov	eax, DWORD PTR [ebp-36]
	test	eax, eax
	je	L22
	mov	DWORD PTR [esp], eax
	call	__ZdlPv
L22:
	mov	eax, DWORD PTR [ebp-48]
	test	eax, eax
	je	L23
	mov	DWORD PTR [esp], eax
	call	__ZdlPv
L23:
	mov	eax, DWORD PTR [ebp-60]
	test	eax, eax
	je	L24
	mov	DWORD PTR [esp], eax
	call	__ZdlPv
L24:
	mov	DWORD PTR [esp], ebx
LEHB1:
	call	__Unwind_Resume
LEHE1:
	.cfi_endproc
LFE846:
	.section	.gcc_except_table,"w"
LLSDAC846:
	.byte	0xff
	.byte	0xff
	.byte	0x1
	.uleb128 LLSDACSEC846-LLSDACSBC846
LLSDACSBC846:
	.uleb128 LEHB1-LCOLDB4
	.uleb128 LEHE1-LEHB1
	.uleb128 0
	.uleb128 0
LLSDACSEC846:
	.section	.text.unlikely,"x"
	.section	.text.startup,"x"
	.section	.text.unlikely,"x"
LCOLDE4:
	.section	.text.startup,"x"
LHOTE4:
	.section .rdata,"dr"
	.align 16
LC0:
	.byte	1
	.byte	1
	.byte	1
	.byte	1
	.byte	1
	.byte	1
	.byte	1
	.byte	1
	.byte	1
	.byte	1
	.byte	1
	.byte	1
	.byte	1
	.byte	1
	.byte	1
	.byte	1
	.align 16
LC1:
	.byte	2
	.byte	2
	.byte	2
	.byte	2
	.byte	2
	.byte	2
	.byte	2
	.byte	2
	.byte	2
	.byte	2
	.byte	2
	.byte	2
	.byte	2
	.byte	2
	.byte	2
	.byte	2
	.ident	"GCC: (MinGW.org GCC-8.2.0-3) 8.2.0"
	.def	__Znwj;	.scl	2;	.type	32;	.endef
	.def	__ZdlPv;	.scl	2;	.type	32;	.endef
	.def	_memcpy;	.scl	2;	.type	32;	.endef
	.def	_puts;	.scl	2;	.type	32;	.endef
	.def	_printf;	.scl	2;	.type	32;	.endef
	.def	__Unwind_Resume;	.scl	2;	.type	32;	.endef
