
/usr/bin/sha256sum:     file format elf64-x86-64


Disassembly of section .init:

0000000000002000 <.init>:
    2000:	f3 0f 1e fa          	endbr64 
    2004:	48 83 ec 08          	sub    rsp,0x8
    2008:	48 8b 05 29 8e 00 00 	mov    rax,QWORD PTR [rip+0x8e29]        # ae38 <__gmon_start__>
    200f:	48 85 c0             	test   rax,rax
    2012:	74 02                	je     2016 <__progname@@GLIBC_2.2.5-0x908a>
    2014:	ff d0                	call   rax
    2016:	48 83 c4 08          	add    rsp,0x8
    201a:	c3                   	ret    

Disassembly of section .text:

0000000000002020 <.text>:
    2020:	ff 15 fa 8d 00 00    	call   QWORD PTR [rip+0x8dfa]        # ae20 <abort@GLIBC_2.2.5>
    2026:	ff 15 f4 8d 00 00    	call   QWORD PTR [rip+0x8df4]        # ae20 <abort@GLIBC_2.2.5>
    202c:	ff 15 ee 8d 00 00    	call   QWORD PTR [rip+0x8dee]        # ae20 <abort@GLIBC_2.2.5>
    2032:	ff 15 e8 8d 00 00    	call   QWORD PTR [rip+0x8de8]        # ae20 <abort@GLIBC_2.2.5>
    2038:	ff 15 e2 8d 00 00    	call   QWORD PTR [rip+0x8de2]        # ae20 <abort@GLIBC_2.2.5>
    203e:	66 90                	xchg   ax,ax
    2040:	41 57                	push   r15
    2042:	45 31 ff             	xor    r15d,r15d
    2045:	41 56                	push   r14
    2047:	45 31 f6             	xor    r14d,r14d
    204a:	41 55                	push   r13
    204c:	41 54                	push   r12
    204e:	41 bc ff ff ff ff    	mov    r12d,0xffffffff
    2054:	55                   	push   rbp
    2055:	89 fd                	mov    ebp,edi
    2057:	53                   	push   rbx
    2058:	48 89 f3             	mov    rbx,rsi
    205b:	48 81 ec f8 00 00 00 	sub    rsp,0xf8
    2062:	48 8b 3e             	mov    rdi,QWORD PTR [rsi]
    2065:	64 48 8b 04 25 28 00 	mov    rax,QWORD PTR fs:0x28
    206c:	00 00 
    206e:	48 89 84 24 e8 00 00 	mov    QWORD PTR [rsp+0xe8],rax
    2075:	00 
    2076:	31 c0                	xor    eax,eax
    2078:	67 e8 62 1e 00 00    	addr32 call 3ee0 <__progname@@GLIBC_2.2.5-0x71c0>
    207e:	48 8d 35 9c 62 00 00 	lea    rsi,[rip+0x629c]        # 8321 <__progname@@GLIBC_2.2.5-0x2d7f>
    2085:	bf 06 00 00 00       	mov    edi,0x6
    208a:	ff 15 38 8f 00 00    	call   QWORD PTR [rip+0x8f38]        # afc8 <setlocale@GLIBC_2.2.5>
    2090:	48 8d 35 28 50 00 00 	lea    rsi,[rip+0x5028]        # 70bf <__progname@@GLIBC_2.2.5-0x3fe1>
    2097:	48 8d 3d f8 4f 00 00 	lea    rdi,[rip+0x4ff8]        # 7096 <__progname@@GLIBC_2.2.5-0x400a>
    209e:	ff 15 b4 8d 00 00    	call   QWORD PTR [rip+0x8db4]        # ae58 <bindtextdomain@GLIBC_2.2.5>
    20a4:	48 8d 3d eb 4f 00 00 	lea    rdi,[rip+0x4feb]        # 7096 <__progname@@GLIBC_2.2.5-0x400a>
    20ab:	ff 15 8f 8d 00 00    	call   QWORD PTR [rip+0x8d8f]        # ae40 <textdomain@GLIBC_2.2.5>
    20b1:	48 8d 3d 48 19 00 00 	lea    rdi,[rip+0x1948]        # 3a00 <__progname@@GLIBC_2.2.5-0x76a0>
    20b8:	67 e8 42 4b 00 00    	addr32 call 6c00 <__progname@@GLIBC_2.2.5-0x44a0>
    20be:	31 c9                	xor    ecx,ecx
    20c0:	ba 01 00 00 00       	mov    edx,0x1
    20c5:	31 f6                	xor    esi,esi
    20c7:	48 8b 3d 1a 90 00 00 	mov    rdi,QWORD PTR [rip+0x901a]        # b0e8 <stdout@@GLIBC_2.2.5>
    20ce:	ff 15 8c 8d 00 00    	call   QWORD PTR [rip+0x8d8c]        # ae60 <setvbuf@GLIBC_2.2.5>
    20d4:	0f 1f 40 00          	nop    DWORD PTR [rax+0x0]
    20d8:	45 31 c0             	xor    r8d,r8d
    20db:	48 8d 0d 3e 89 00 00 	lea    rcx,[rip+0x893e]        # aa20 <__progname@@GLIBC_2.2.5-0x680>
    20e2:	48 89 de             	mov    rsi,rbx
    20e5:	89 ef                	mov    edi,ebp
    20e7:	48 8d 15 0c 50 00 00 	lea    rdx,[rip+0x500c]        # 70fa <__progname@@GLIBC_2.2.5-0x3fa6>
    20ee:	ff 15 4c 8e 00 00    	call   QWORD PTR [rip+0x8e4c]        # af40 <getopt_long@GLIBC_2.2.5>
    20f4:	83 f8 ff             	cmp    eax,0xffffffff
    20f7:	0f 84 6d 01 00 00    	je     226a <__progname@@GLIBC_2.2.5-0x8e36>
    20fd:	83 f8 77             	cmp    eax,0x77
    2100:	0f 84 2a 01 00 00    	je     2230 <__progname@@GLIBC_2.2.5-0x8e70>
    2106:	7e 38                	jle    2140 <__progname@@GLIBC_2.2.5-0x8f60>
    2108:	3d 81 00 00 00       	cmp    eax,0x81
    210d:	0f 84 3d 01 00 00    	je     2250 <__progname@@GLIBC_2.2.5-0x8e50>
    2113:	0f 8e c7 00 00 00    	jle    21e0 <__progname@@GLIBC_2.2.5-0x8ec0>
    2119:	3d 83 00 00 00       	cmp    eax,0x83
    211e:	0f 84 fc 00 00 00    	je     2220 <__progname@@GLIBC_2.2.5-0x8e80>
    2124:	7d 32                	jge    2158 <__progname@@GLIBC_2.2.5-0x8f48>
    2126:	c6 05 cf 8f 00 00 00 	mov    BYTE PTR [rip+0x8fcf],0x0        # b0fc <stdout@@GLIBC_2.2.5+0x14>
    212d:	c6 05 c7 8f 00 00 00 	mov    BYTE PTR [rip+0x8fc7],0x0        # b0fb <stdout@@GLIBC_2.2.5+0x13>
    2134:	c6 05 be 8f 00 00 01 	mov    BYTE PTR [rip+0x8fbe],0x1        # b0f9 <stdout@@GLIBC_2.2.5+0x11>
    213b:	eb 9b                	jmp    20d8 <__progname@@GLIBC_2.2.5-0x8fc8>
    213d:	0f 1f 00             	nop    DWORD PTR [rax]
    2140:	83 f8 62             	cmp    eax,0x62
    2143:	74 24                	je     2169 <__progname@@GLIBC_2.2.5-0x8f37>
    2145:	7e 49                	jle    2190 <__progname@@GLIBC_2.2.5-0x8f10>
    2147:	83 f8 63             	cmp    eax,0x63
    214a:	75 2c                	jne    2178 <__progname@@GLIBC_2.2.5-0x8f28>
    214c:	41 bf 01 00 00 00    	mov    r15d,0x1
    2152:	eb 84                	jmp    20d8 <__progname@@GLIBC_2.2.5-0x8fc8>
    2154:	0f 1f 40 00          	nop    DWORD PTR [rax+0x0]
    2158:	3d 84 00 00 00       	cmp    eax,0x84
    215d:	0f 85 cc 01 00 00    	jne    232f <__progname@@GLIBC_2.2.5-0x8d71>
    2163:	41 be 01 00 00 00    	mov    r14d,0x1
    2169:	41 bc 01 00 00 00    	mov    r12d,0x1
    216f:	e9 64 ff ff ff       	jmp    20d8 <__progname@@GLIBC_2.2.5-0x8fc8>
    2174:	0f 1f 40 00          	nop    DWORD PTR [rax+0x0]
    2178:	83 f8 74             	cmp    eax,0x74
    217b:	0f 85 ae 01 00 00    	jne    232f <__progname@@GLIBC_2.2.5-0x8d71>
    2181:	45 31 e4             	xor    r12d,r12d
    2184:	e9 4f ff ff ff       	jmp    20d8 <__progname@@GLIBC_2.2.5-0x8fc8>
    2189:	0f 1f 80 00 00 00 00 	nop    DWORD PTR [rax+0x0]
    2190:	3d 7d ff ff ff       	cmp    eax,0xffffff7d
    2195:	75 5a                	jne    21f1 <__progname@@GLIBC_2.2.5-0x8eaf>
    2197:	48 8d 05 4f 4f 00 00 	lea    rax,[rip+0x4f4f]        # 70ed <__progname@@GLIBC_2.2.5-0x3fb3>
    219e:	6a 00                	push   0x0
    21a0:	48 8b 3d 41 8f 00 00 	mov    rdi,QWORD PTR [rip+0x8f41]        # b0e8 <stdout@@GLIBC_2.2.5>
    21a7:	4c 8d 0d 23 4f 00 00 	lea    r9,[rip+0x4f23]        # 70d1 <__progname@@GLIBC_2.2.5-0x3fcf>
    21ae:	50                   	push   rax
    21af:	4c 8d 05 28 4f 00 00 	lea    r8,[rip+0x4f28]        # 70de <__progname@@GLIBC_2.2.5-0x3fc2>
    21b6:	31 c0                	xor    eax,eax
    21b8:	48 8b 0d 59 8e 00 00 	mov    rcx,QWORD PTR [rip+0x8e59]        # b018 <__progname@@GLIBC_2.2.5-0x88>
    21bf:	48 8d 15 cc 4e 00 00 	lea    rdx,[rip+0x4ecc]        # 7092 <__progname@@GLIBC_2.2.5-0x400e>
    21c6:	48 8d 35 3d 4e 00 00 	lea    rsi,[rip+0x4e3d]        # 700a <__progname@@GLIBC_2.2.5-0x4096>
    21cd:	67 e8 3d 40 00 00    	addr32 call 6210 <__progname@@GLIBC_2.2.5-0x4e90>
    21d3:	31 ff                	xor    edi,edi
    21d5:	ff 15 6d 8c 00 00    	call   QWORD PTR [rip+0x8c6d]        # ae48 <exit@GLIBC_2.2.5>
    21db:	0f 1f 44 00 00       	nop    DWORD PTR [rax+rax*1+0x0]
    21e0:	83 f8 7a             	cmp    eax,0x7a
    21e3:	75 23                	jne    2208 <__progname@@GLIBC_2.2.5-0x8e98>
    21e5:	c6 05 24 8e 00 00 00 	mov    BYTE PTR [rip+0x8e24],0x0        # b010 <__progname@@GLIBC_2.2.5-0x90>
    21ec:	e9 e7 fe ff ff       	jmp    20d8 <__progname@@GLIBC_2.2.5-0x8fc8>
    21f1:	3d 7e ff ff ff       	cmp    eax,0xffffff7e
    21f6:	0f 85 33 01 00 00    	jne    232f <__progname@@GLIBC_2.2.5-0x8d71>
    21fc:	31 ff                	xor    edi,edi
    21fe:	e8 5d 13 00 00       	call   3560 <__progname@@GLIBC_2.2.5-0x7b40>
    2203:	0f 1f 44 00 00       	nop    DWORD PTR [rax+rax*1+0x0]
    2208:	3d 80 00 00 00       	cmp    eax,0x80
    220d:	0f 85 1c 01 00 00    	jne    232f <__progname@@GLIBC_2.2.5-0x8d71>
    2213:	c6 05 e0 8e 00 00 01 	mov    BYTE PTR [rip+0x8ee0],0x1        # b0fa <stdout@@GLIBC_2.2.5+0x12>
    221a:	e9 b9 fe ff ff       	jmp    20d8 <__progname@@GLIBC_2.2.5-0x8fc8>
    221f:	90                   	nop
    2220:	c6 05 d1 8e 00 00 01 	mov    BYTE PTR [rip+0x8ed1],0x1        # b0f8 <stdout@@GLIBC_2.2.5+0x10>
    2227:	e9 ac fe ff ff       	jmp    20d8 <__progname@@GLIBC_2.2.5-0x8fc8>
    222c:	0f 1f 40 00          	nop    DWORD PTR [rax+0x0]
    2230:	c6 05 c5 8e 00 00 00 	mov    BYTE PTR [rip+0x8ec5],0x0        # b0fc <stdout@@GLIBC_2.2.5+0x14>
    2237:	c6 05 bd 8e 00 00 01 	mov    BYTE PTR [rip+0x8ebd],0x1        # b0fb <stdout@@GLIBC_2.2.5+0x13>
    223e:	c6 05 b4 8e 00 00 00 	mov    BYTE PTR [rip+0x8eb4],0x0        # b0f9 <stdout@@GLIBC_2.2.5+0x11>
    2245:	e9 8e fe ff ff       	jmp    20d8 <__progname@@GLIBC_2.2.5-0x8fc8>
    224a:	66 0f 1f 44 00 00    	nop    WORD PTR [rax+rax*1+0x0]
    2250:	c6 05 a5 8e 00 00 01 	mov    BYTE PTR [rip+0x8ea5],0x1        # b0fc <stdout@@GLIBC_2.2.5+0x14>
    2257:	c6 05 9d 8e 00 00 00 	mov    BYTE PTR [rip+0x8e9d],0x0        # b0fb <stdout@@GLIBC_2.2.5+0x13>
    225e:	c6 05 94 8e 00 00 00 	mov    BYTE PTR [rip+0x8e94],0x0        # b0f9 <stdout@@GLIBC_2.2.5+0x11>
    2265:	e9 6e fe ff ff       	jmp    20d8 <__progname@@GLIBC_2.2.5-0x8fc8>
    226a:	48 c7 05 93 8e 00 00 	mov    QWORD PTR [rip+0x8e93],0x42        # b108 <stdout@@GLIBC_2.2.5+0x20>
    2271:	42 00 00 00 
    2275:	45 85 e4             	test   r12d,r12d
    2278:	48 c7 05 7d 8e 00 00 	mov    QWORD PTR [rip+0x8e7d],0x40        # b100 <stdout@@GLIBC_2.2.5+0x18>
    227f:	40 00 00 00 
    2283:	0f 94 c0             	sete   al
    2286:	44 84 f0             	test   al,r14b
    2289:	0f 85 36 0e 00 00    	jne    30c5 <__progname@@GLIBC_2.2.5-0x7fdb>
    228f:	80 3d 7a 8d 00 00 0a 	cmp    BYTE PTR [rip+0x8d7a],0xa        # b010 <__progname@@GLIBC_2.2.5-0x90>
    2296:	74 54                	je     22ec <__progname@@GLIBC_2.2.5-0x8db4>
    2298:	ba 05 00 00 00       	mov    edx,0x5
    229d:	48 8d 35 5c 55 00 00 	lea    rsi,[rip+0x555c]        # 7800 <__progname@@GLIBC_2.2.5-0x38a0>
    22a4:	45 84 ff             	test   r15b,r15b
    22a7:	75 6f                	jne    2318 <__progname@@GLIBC_2.2.5-0x8d88>
    22a9:	80 3d 4a 8e 00 00 00 	cmp    BYTE PTR [rip+0x8e4a],0x0        # b0fa <stdout@@GLIBC_2.2.5+0x12>
    22b0:	0f 85 26 0e 00 00    	jne    30dc <__progname@@GLIBC_2.2.5-0x7fc4>
    22b6:	80 3d 3f 8e 00 00 00 	cmp    BYTE PTR [rip+0x8e3f],0x0        # b0fc <stdout@@GLIBC_2.2.5+0x14>
    22bd:	0f 85 f1 0d 00 00    	jne    30b4 <__progname@@GLIBC_2.2.5-0x7fec>
    22c3:	80 3d 31 8e 00 00 00 	cmp    BYTE PTR [rip+0x8e31],0x0        # b0fb <stdout@@GLIBC_2.2.5+0x13>
    22ca:	0f 85 2a 0c 00 00    	jne    2efa <__progname@@GLIBC_2.2.5-0x81a6>
    22d0:	80 3d 22 8e 00 00 01 	cmp    BYTE PTR [rip+0x8e22],0x1        # b0f9 <stdout@@GLIBC_2.2.5+0x11>
    22d7:	75 7f                	jne    2358 <__progname@@GLIBC_2.2.5-0x8d48>
    22d9:	ba 05 00 00 00       	mov    edx,0x5
    22de:	48 8d 35 b3 56 00 00 	lea    rsi,[rip+0x56b3]        # 7998 <__progname@@GLIBC_2.2.5-0x3708>
    22e5:	45 84 ff             	test   r15b,r15b
    22e8:	75 6e                	jne    2358 <__progname@@GLIBC_2.2.5-0x8d48>
    22ea:	eb 2c                	jmp    2318 <__progname@@GLIBC_2.2.5-0x8d88>
    22ec:	45 84 ff             	test   r15b,r15b
    22ef:	74 11                	je     2302 <__progname@@GLIBC_2.2.5-0x8d9e>
    22f1:	ba 05 00 00 00       	mov    edx,0x5
    22f6:	48 8d 35 43 55 00 00 	lea    rsi,[rip+0x5543]        # 7840 <__progname@@GLIBC_2.2.5-0x3860>
    22fd:	45 84 f6             	test   r14b,r14b
    2300:	75 16                	jne    2318 <__progname@@GLIBC_2.2.5-0x8d88>
    2302:	45 85 e4             	test   r12d,r12d
    2305:	78 32                	js     2339 <__progname@@GLIBC_2.2.5-0x8d67>
    2307:	ba 05 00 00 00       	mov    edx,0x5
    230c:	48 8d 35 6d 55 00 00 	lea    rsi,[rip+0x556d]        # 7880 <__progname@@GLIBC_2.2.5-0x3820>
    2313:	45 84 ff             	test   r15b,r15b
    2316:	74 21                	je     2339 <__progname@@GLIBC_2.2.5-0x8d67>
    2318:	31 ff                	xor    edi,edi
    231a:	ff 15 38 8c 00 00    	call   QWORD PTR [rip+0x8c38]        # af58 <dcgettext@GLIBC_2.2.5>
    2320:	31 f6                	xor    esi,esi
    2322:	31 ff                	xor    edi,edi
    2324:	48 89 c2             	mov    rdx,rax
    2327:	31 c0                	xor    eax,eax
    2329:	ff 15 a1 8c 00 00    	call   QWORD PTR [rip+0x8ca1]        # afd0 <error@GLIBC_2.2.5>
    232f:	bf 01 00 00 00       	mov    edi,0x1
    2334:	e8 27 12 00 00       	call   3560 <__progname@@GLIBC_2.2.5-0x7b40>
    2339:	80 3d ba 8d 00 00 00 	cmp    BYTE PTR [rip+0x8dba],0x0        # b0fa <stdout@@GLIBC_2.2.5+0x12>
    2340:	0f 84 58 0d 00 00    	je     309e <__progname@@GLIBC_2.2.5-0x8002>
    2346:	45 84 ff             	test   r15b,r15b
    2349:	0f 84 8d 0d 00 00    	je     30dc <__progname@@GLIBC_2.2.5-0x7fc4>
    234f:	80 3d a5 8d 00 00 00 	cmp    BYTE PTR [rip+0x8da5],0x0        # b0fb <stdout@@GLIBC_2.2.5+0x13>
    2356:	75 1a                	jne    2372 <__progname@@GLIBC_2.2.5-0x8d2e>
    2358:	80 3d 99 8d 00 00 00 	cmp    BYTE PTR [rip+0x8d99],0x0        # b0f8 <stdout@@GLIBC_2.2.5+0x10>
    235f:	74 11                	je     2372 <__progname@@GLIBC_2.2.5-0x8d2e>
    2361:	ba 05 00 00 00       	mov    edx,0x5
    2366:	48 8d 35 6b 56 00 00 	lea    rsi,[rip+0x566b]        # 79d8 <__progname@@GLIBC_2.2.5-0x36c8>
    236d:	45 84 ff             	test   r15b,r15b
    2370:	74 a6                	je     2318 <__progname@@GLIBC_2.2.5-0x8d88>
    2372:	41 83 fc ff          	cmp    r12d,0xffffffff
    2376:	75 03                	jne    237b <__progname@@GLIBC_2.2.5-0x8d25>
    2378:	45 31 e4             	xor    r12d,r12d
    237b:	48 63 c5             	movsxd rax,ebp
    237e:	48 8d 04 c3          	lea    rax,[rbx+rax*8]
    2382:	48 89 44 24 58       	mov    QWORD PTR [rsp+0x58],rax
    2387:	48 63 05 22 8d 00 00 	movsxd rax,DWORD PTR [rip+0x8d22]        # b0b0 <optind@@GLIBC_2.2.5>
    238e:	39 e8                	cmp    eax,ebp
    2390:	75 18                	jne    23aa <__progname@@GLIBC_2.2.5-0x8cf6>
    2392:	48 8b 74 24 58       	mov    rsi,QWORD PTR [rsp+0x58]
    2397:	48 8d 3d 6c 58 00 00 	lea    rdi,[rip+0x586c]        # 7c0a <__progname@@GLIBC_2.2.5-0x3496>
    239e:	48 89 3e             	mov    QWORD PTR [rsi],rdi
    23a1:	48 83 c6 08          	add    rsi,0x8
    23a5:	48 89 74 24 58       	mov    QWORD PTR [rsp+0x58],rsi
    23aa:	48 8d 04 c3          	lea    rax,[rbx+rax*8]
    23ae:	48 89 44 24 18       	mov    QWORD PTR [rsp+0x18],rax
    23b3:	48 39 44 24 58       	cmp    QWORD PTR [rsp+0x58],rax
    23b8:	0f 86 59 0c 00 00    	jbe    3017 <__progname@@GLIBC_2.2.5-0x8089>
    23be:	41 83 fc 01          	cmp    r12d,0x1
    23c2:	c6 44 24 68 01       	mov    BYTE PTR [rsp+0x68],0x1
    23c7:	19 c0                	sbb    eax,eax
    23c9:	44 88 7c 24 33       	mov    BYTE PTR [rsp+0x33],r15b
    23ce:	83 e0 f6             	and    eax,0xfffffff6
    23d1:	44 88 74 24 6a       	mov    BYTE PTR [rsp+0x6a],r14b
    23d6:	83 c0 2a             	add    eax,0x2a
    23d9:	89 44 24 6c          	mov    DWORD PTR [rsp+0x6c],eax
    23dd:	88 44 24 6b          	mov    BYTE PTR [rsp+0x6b],al
    23e1:	48 8d 84 24 88 00 00 	lea    rax,[rsp+0x88]
    23e8:	00 
    23e9:	48 89 44 24 08       	mov    QWORD PTR [rsp+0x8],rax
    23ee:	66 90                	xchg   ax,ax
    23f0:	48 8b 44 24 18       	mov    rax,QWORD PTR [rsp+0x18]
    23f5:	80 7c 24 33 00       	cmp    BYTE PTR [rsp+0x33],0x0
    23fa:	48 8b 38             	mov    rdi,QWORD PTR [rax]
    23fd:	48 89 7c 24 20       	mov    QWORD PTR [rsp+0x20],rdi
    2402:	0f 84 7d 05 00 00    	je     2985 <__progname@@GLIBC_2.2.5-0x871b>
    2408:	48 8d 35 fb 57 00 00 	lea    rsi,[rip+0x57fb]        # 7c0a <__progname@@GLIBC_2.2.5-0x3496>
    240f:	ff 15 53 8b 00 00    	call   QWORD PTR [rip+0x8b53]        # af68 <strcmp@GLIBC_2.2.5>
    2415:	89 44 24 34          	mov    DWORD PTR [rsp+0x34],eax
    2419:	85 c0                	test   eax,eax
    241b:	0f 85 35 06 00 00    	jne    2a56 <__progname@@GLIBC_2.2.5-0x864a>
    2421:	c6 05 e8 8c 00 00 01 	mov    BYTE PTR [rip+0x8ce8],0x1        # b110 <stdout@@GLIBC_2.2.5+0x28>
    2428:	ba 05 00 00 00       	mov    edx,0x5
    242d:	48 8d 35 cc 4c 00 00 	lea    rsi,[rip+0x4ccc]        # 7100 <__progname@@GLIBC_2.2.5-0x3fa0>
    2434:	31 ff                	xor    edi,edi
    2436:	ff 15 1c 8b 00 00    	call   QWORD PTR [rip+0x8b1c]        # af58 <dcgettext@GLIBC_2.2.5>
    243c:	4c 8b 25 7d 8c 00 00 	mov    r12,QWORD PTR [rip+0x8c7d]        # b0c0 <stdin@@GLIBC_2.2.5>
    2443:	48 89 44 24 20       	mov    QWORD PTR [rsp+0x20],rax
    2448:	c6 44 24 69 00       	mov    BYTE PTR [rsp+0x69],0x0
    244d:	45 31 ff             	xor    r15d,r15d
    2450:	45 31 ed             	xor    r13d,r13d
    2453:	bd 01 00 00 00       	mov    ebp,0x1
    2458:	48 8d 84 24 80 00 00 	lea    rax,[rsp+0x80]
    245f:	00 
    2460:	48 c7 84 24 80 00 00 	mov    QWORD PTR [rsp+0x80],0x0
    2467:	00 00 00 00 00 
    246c:	48 89 44 24 10       	mov    QWORD PTR [rsp+0x10],rax
    2471:	48 8d 44 24 7f       	lea    rax,[rsp+0x7f]
    2476:	48 c7 84 24 88 00 00 	mov    QWORD PTR [rsp+0x88],0x0
    247d:	00 00 00 00 00 
    2482:	48 c7 44 24 60 00 00 	mov    QWORD PTR [rsp+0x60],0x0
    2489:	00 00 
    248b:	48 c7 44 24 40 00 00 	mov    QWORD PTR [rsp+0x40],0x0
    2492:	00 00 
    2494:	48 89 44 24 38       	mov    QWORD PTR [rsp+0x38],rax
    2499:	0f 1f 80 00 00 00 00 	nop    DWORD PTR [rax+0x0]
    24a0:	4c 89 e1             	mov    rcx,r12
    24a3:	ba 0a 00 00 00       	mov    edx,0xa
    24a8:	48 8b 74 24 08       	mov    rsi,QWORD PTR [rsp+0x8]
    24ad:	48 8b 7c 24 10       	mov    rdi,QWORD PTR [rsp+0x10]
    24b2:	ff 15 40 89 00 00    	call   QWORD PTR [rip+0x8940]        # adf8 <__getdelim@GLIBC_2.2.5>
    24b8:	48 85 c0             	test   rax,rax
    24bb:	0f 8e c2 02 00 00    	jle    2783 <__progname@@GLIBC_2.2.5-0x891d>
    24c1:	4c 8b b4 24 80 00 00 	mov    r14,QWORD PTR [rsp+0x80]
    24c8:	00 
    24c9:	41 0f b6 0e          	movzx  ecx,BYTE PTR [r14]
    24cd:	80 f9 23             	cmp    cl,0x23
    24d0:	0f 84 aa 00 00 00    	je     2580 <__progname@@GLIBC_2.2.5-0x8b20>
    24d6:	41 80 7c 06 ff 0a    	cmp    BYTE PTR [r14+rax*1-0x1],0xa
    24dc:	49 89 c1             	mov    r9,rax
    24df:	75 15                	jne    24f6 <__progname@@GLIBC_2.2.5-0x8baa>
    24e1:	49 83 e9 01          	sub    r9,0x1
    24e5:	43 c6 04 0e 00       	mov    BYTE PTR [r14+r9*1],0x0
    24ea:	4c 8b b4 24 80 00 00 	mov    r14,QWORD PTR [rsp+0x80]
    24f1:	00 
    24f2:	41 0f b6 0e          	movzx  ecx,BYTE PTR [r14]
    24f6:	31 d2                	xor    edx,edx
    24f8:	80 f9 09             	cmp    cl,0x9
    24fb:	74 0b                	je     2508 <__progname@@GLIBC_2.2.5-0x8b98>
    24fd:	80 f9 20             	cmp    cl,0x20
    2500:	75 19                	jne    251b <__progname@@GLIBC_2.2.5-0x8b85>
    2502:	66 0f 1f 44 00 00    	nop    WORD PTR [rax+rax*1+0x0]
    2508:	48 83 c2 01          	add    rdx,0x1
    250c:	41 0f b6 0c 16       	movzx  ecx,BYTE PTR [r14+rdx*1]
    2511:	80 f9 20             	cmp    cl,0x20
    2514:	74 f2                	je     2508 <__progname@@GLIBC_2.2.5-0x8b98>
    2516:	80 f9 09             	cmp    cl,0x9
    2519:	74 ed                	je     2508 <__progname@@GLIBC_2.2.5-0x8b98>
    251b:	45 31 d2             	xor    r10d,r10d
    251e:	80 f9 5c             	cmp    cl,0x5c
    2521:	75 0a                	jne    252d <__progname@@GLIBC_2.2.5-0x8b73>
    2523:	44 0f b6 54 24 33    	movzx  r10d,BYTE PTR [rsp+0x33]
    2529:	48 83 c2 01          	add    rdx,0x1
    252d:	49 8d 1c 16          	lea    rbx,[r14+rdx*1]
    2531:	b9 06 00 00 00       	mov    ecx,0x6
    2536:	48 8d 3d d7 4a 00 00 	lea    rdi,[rip+0x4ad7]        # 7014 <__progname@@GLIBC_2.2.5-0x408c>
    253d:	48 89 de             	mov    rsi,rbx
    2540:	f3 a6                	repz cmps BYTE PTR ds:[rsi],BYTE PTR es:[rdi]
    2542:	0f 97 c0             	seta   al
    2545:	1c 00                	sbb    al,0x0
    2547:	84 c0                	test   al,al
    2549:	0f 85 89 00 00 00    	jne    25d8 <__progname@@GLIBC_2.2.5-0x8ac8>
    254f:	41 0f b6 44 16 06    	movzx  eax,BYTE PTR [r14+rdx*1+0x6]
    2555:	48 8d 4a 06          	lea    rcx,[rdx+0x6]
    2559:	3c 20                	cmp    al,0x20
    255b:	75 0a                	jne    2567 <__progname@@GLIBC_2.2.5-0x8b39>
    255d:	41 0f b6 44 16 07    	movzx  eax,BYTE PTR [r14+rdx*1+0x7]
    2563:	48 8d 4a 07          	lea    rcx,[rdx+0x7]
    2567:	3c 28                	cmp    al,0x28
    2569:	0f 84 94 04 00 00    	je     2a03 <__progname@@GLIBC_2.2.5-0x869d>
    256f:	49 83 c5 01          	add    r13,0x1
    2573:	80 3d 81 8b 00 00 00 	cmp    BYTE PTR [rip+0x8b81],0x0        # b0fb <stdout@@GLIBC_2.2.5+0x13>
    257a:	0f 85 b0 02 00 00    	jne    2830 <__progname@@GLIBC_2.2.5-0x8870>
    2580:	41 f6 04 24 30       	test   BYTE PTR [r12],0x30
    2585:	0f 85 f8 01 00 00    	jne    2783 <__progname@@GLIBC_2.2.5-0x891d>
    258b:	48 83 c5 01          	add    rbp,0x1
    258f:	0f 85 0b ff ff ff    	jne    24a0 <__progname@@GLIBC_2.2.5-0x8c00>
    2595:	48 8b 54 24 20       	mov    rdx,QWORD PTR [rsp+0x20]
    259a:	be 03 00 00 00       	mov    esi,0x3
    259f:	31 ff                	xor    edi,edi
    25a1:	67 e8 79 35 00 00    	addr32 call 5b20 <__progname@@GLIBC_2.2.5-0x5580>
    25a7:	ba 05 00 00 00       	mov    edx,0x5
    25ac:	48 8d 35 5c 4b 00 00 	lea    rsi,[rip+0x4b5c]        # 710f <__progname@@GLIBC_2.2.5-0x3f91>
    25b3:	31 ff                	xor    edi,edi
    25b5:	48 89 c3             	mov    rbx,rax
    25b8:	ff 15 9a 89 00 00    	call   QWORD PTR [rip+0x899a]        # af58 <dcgettext@GLIBC_2.2.5>
    25be:	48 89 d9             	mov    rcx,rbx
    25c1:	31 f6                	xor    esi,esi
    25c3:	bf 01 00 00 00       	mov    edi,0x1
    25c8:	48 89 c2             	mov    rdx,rax
    25cb:	31 c0                	xor    eax,eax
    25cd:	ff 15 fd 89 00 00    	call   QWORD PTR [rip+0x89fd]        # afd0 <error@GLIBC_2.2.5>
    25d3:	0f 1f 44 00 00       	nop    DWORD PTR [rax+rax*1+0x0]
    25d8:	4c 89 c9             	mov    rcx,r9
    25db:	31 c0                	xor    eax,eax
    25dd:	48 29 d1             	sub    rcx,rdx
    25e0:	80 3b 5c             	cmp    BYTE PTR [rbx],0x5c
    25e3:	0f 94 c0             	sete   al
    25e6:	48 03 05 1b 8b 00 00 	add    rax,QWORD PTR [rip+0x8b1b]        # b108 <stdout@@GLIBC_2.2.5+0x20>
    25ed:	48 39 c1             	cmp    rcx,rax
    25f0:	0f 82 79 ff ff ff    	jb     256f <__progname@@GLIBC_2.2.5-0x8b31>
    25f6:	48 03 15 03 8b 00 00 	add    rdx,QWORD PTR [rip+0x8b03]        # b100 <stdout@@GLIBC_2.2.5+0x18>
    25fd:	49 8d 0c 16          	lea    rcx,[r14+rdx*1]
    2601:	0f b6 01             	movzx  eax,BYTE PTR [rcx]
    2604:	3c 20                	cmp    al,0x20
    2606:	74 08                	je     2610 <__progname@@GLIBC_2.2.5-0x8a90>
    2608:	3c 09                	cmp    al,0x9
    260a:	0f 85 5f ff ff ff    	jne    256f <__progname@@GLIBC_2.2.5-0x8b31>
    2610:	c6 01 00             	mov    BYTE PTR [rcx],0x0
    2613:	48 89 df             	mov    rdi,rbx
    2616:	48 89 54 24 50       	mov    QWORD PTR [rsp+0x50],rdx
    261b:	44 88 54 24 48       	mov    BYTE PTR [rsp+0x48],r10b
    2620:	4c 89 4c 24 28       	mov    QWORD PTR [rsp+0x28],r9
    2625:	e8 c6 0b 00 00       	call   31f0 <__progname@@GLIBC_2.2.5-0x7eb0>
    262a:	84 c0                	test   al,al
    262c:	0f 84 3d ff ff ff    	je     256f <__progname@@GLIBC_2.2.5-0x8b31>
    2632:	48 8b 54 24 50       	mov    rdx,QWORD PTR [rsp+0x50]
    2637:	4c 8b 4c 24 28       	mov    r9,QWORD PTR [rsp+0x28]
    263c:	8b 0d d2 89 00 00    	mov    ecx,DWORD PTR [rip+0x89d2]        # b014 <__progname@@GLIBC_2.2.5-0x8c>
    2642:	44 0f b6 54 24 48    	movzx  r10d,BYTE PTR [rsp+0x48]
    2648:	48 8d 42 01          	lea    rax,[rdx+0x1]
    264c:	4c 89 ce             	mov    rsi,r9
    264f:	48 29 c6             	sub    rsi,rax
    2652:	48 83 fe 01          	cmp    rsi,0x1
    2656:	74 1a                	je     2672 <__progname@@GLIBC_2.2.5-0x8a2e>
    2658:	41 0f b6 74 16 01    	movzx  esi,BYTE PTR [r14+rdx*1+0x1]
    265e:	40 80 fe 20          	cmp    sil,0x20
    2662:	0f 84 44 04 00 00    	je     2aac <__progname@@GLIBC_2.2.5-0x85f4>
    2668:	40 80 fe 2a          	cmp    sil,0x2a
    266c:	0f 84 3a 04 00 00    	je     2aac <__progname@@GLIBC_2.2.5-0x85f4>
    2672:	85 c9                	test   ecx,ecx
    2674:	0f 84 f5 fe ff ff    	je     256f <__progname@@GLIBC_2.2.5-0x8b31>
    267a:	c7 05 90 89 00 00 01 	mov    DWORD PTR [rip+0x8990],0x1        # b014 <__progname@@GLIBC_2.2.5-0x8c>
    2681:	00 00 00 
    2684:	49 01 c6             	add    r14,rax
    2687:	45 84 d2             	test   r10b,r10b
    268a:	0f 85 1c 06 00 00    	jne    2cac <__progname@@GLIBC_2.2.5-0x83f4>
    2690:	8b 44 24 34          	mov    eax,DWORD PTR [rsp+0x34]
    2694:	85 c0                	test   eax,eax
    2696:	75 1e                	jne    26b6 <__progname@@GLIBC_2.2.5-0x89ea>
    2698:	b9 02 00 00 00       	mov    ecx,0x2
    269d:	4c 89 f6             	mov    rsi,r14
    26a0:	48 8d 3d 63 55 00 00 	lea    rdi,[rip+0x5563]        # 7c0a <__progname@@GLIBC_2.2.5-0x3496>
    26a7:	f3 a6                	repz cmps BYTE PTR ds:[rsi],BYTE PTR es:[rdi]
    26a9:	0f 97 c0             	seta   al
    26ac:	1c 00                	sbb    al,0x0
    26ae:	84 c0                	test   al,al
    26b0:	0f 84 b9 fe ff ff    	je     256f <__progname@@GLIBC_2.2.5-0x8b31>
    26b6:	80 3d 3f 8a 00 00 00 	cmp    BYTE PTR [rip+0x8a3f],0x0        # b0fc <stdout@@GLIBC_2.2.5+0x14>
    26bd:	c7 44 24 28 00 00 00 	mov    DWORD PTR [rsp+0x28],0x0
    26c4:	00 
    26c5:	75 1b                	jne    26e2 <__progname@@GLIBC_2.2.5-0x89be>
    26c7:	be 0a 00 00 00       	mov    esi,0xa
    26cc:	4c 89 f7             	mov    rdi,r14
    26cf:	ff 15 63 88 00 00    	call   QWORD PTR [rip+0x8863]        # af38 <strchr@GLIBC_2.2.5>
    26d5:	48 85 c0             	test   rax,rax
    26d8:	0f 95 c0             	setne  al
    26db:	0f b6 c0             	movzx  eax,al
    26de:	89 44 24 28          	mov    DWORD PTR [rsp+0x28],eax
    26e2:	4c 8d bc 24 c0 00 00 	lea    r15,[rsp+0xc0]
    26e9:	00 
    26ea:	48 8b 54 24 38       	mov    rdx,QWORD PTR [rsp+0x38]
    26ef:	4c 89 f7             	mov    rdi,r14
    26f2:	4c 89 fe             	mov    rsi,r15
    26f5:	e8 b6 0c 00 00       	call   33b0 <__progname@@GLIBC_2.2.5-0x7cf0>
    26fa:	41 89 c2             	mov    r10d,eax
    26fd:	84 c0                	test   al,al
    26ff:	0f 85 7b 01 00 00    	jne    2880 <__progname@@GLIBC_2.2.5-0x8820>
    2705:	48 83 44 24 40 01    	add    QWORD PTR [rsp+0x40],0x1
    270b:	80 3d ea 89 00 00 00 	cmp    BYTE PTR [rip+0x89ea],0x0        # b0fc <stdout@@GLIBC_2.2.5+0x14>
    2712:	75 5e                	jne    2772 <__progname@@GLIBC_2.2.5-0x892e>
    2714:	83 7c 24 28 00       	cmp    DWORD PTR [rsp+0x28],0x0
    2719:	74 20                	je     273b <__progname@@GLIBC_2.2.5-0x8965>
    271b:	48 8b 3d c6 89 00 00 	mov    rdi,QWORD PTR [rip+0x89c6]        # b0e8 <stdout@@GLIBC_2.2.5>
    2722:	48 8b 47 28          	mov    rax,QWORD PTR [rdi+0x28]
    2726:	48 3b 47 30          	cmp    rax,QWORD PTR [rdi+0x30]
    272a:	0f 83 d7 08 00 00    	jae    3007 <__progname@@GLIBC_2.2.5-0x8099>
    2730:	48 8d 50 01          	lea    rdx,[rax+0x1]
    2734:	48 89 57 28          	mov    QWORD PTR [rdi+0x28],rdx
    2738:	c6 00 5c             	mov    BYTE PTR [rax],0x5c
    273b:	8b 74 24 28          	mov    esi,DWORD PTR [rsp+0x28]
    273f:	4c 89 f7             	mov    rdi,r14
    2742:	e8 99 0b 00 00       	call   32e0 <__progname@@GLIBC_2.2.5-0x7dc0>
    2747:	ba 05 00 00 00       	mov    edx,0x5
    274c:	48 8d 35 d8 49 00 00 	lea    rsi,[rip+0x49d8]        # 712b <__progname@@GLIBC_2.2.5-0x3f75>
    2753:	31 ff                	xor    edi,edi
    2755:	ff 15 fd 87 00 00    	call   QWORD PTR [rip+0x87fd]        # af58 <dcgettext@GLIBC_2.2.5>
    275b:	48 8d 35 cf 5b 00 00 	lea    rsi,[rip+0x5bcf]        # 8331 <__progname@@GLIBC_2.2.5-0x2d6f>
    2762:	bf 01 00 00 00       	mov    edi,0x1
    2767:	48 89 c2             	mov    rdx,rax
    276a:	31 c0                	xor    eax,eax
    276c:	ff 15 de 86 00 00    	call   QWORD PTR [rip+0x86de]        # ae50 <__printf_chk@GLIBC_2.3.4>
    2772:	44 0f b6 7c 24 33    	movzx  r15d,BYTE PTR [rsp+0x33]
    2778:	41 f6 04 24 30       	test   BYTE PTR [r12],0x30
    277d:	0f 84 08 fe ff ff    	je     258b <__progname@@GLIBC_2.2.5-0x8b15>
    2783:	48 8b bc 24 80 00 00 	mov    rdi,QWORD PTR [rsp+0x80]
    278a:	00 
    278b:	ff 15 1f 87 00 00    	call   QWORD PTR [rip+0x871f]        # aeb0 <free@GLIBC_2.2.5>
    2791:	41 8b 1c 24          	mov    ebx,DWORD PTR [r12]
    2795:	83 e3 20             	and    ebx,0x20
    2798:	0f 85 27 05 00 00    	jne    2cc5 <__progname@@GLIBC_2.2.5-0x83db>
    279e:	83 7c 24 34 00       	cmp    DWORD PTR [rsp+0x34],0x0
    27a3:	0f 85 a6 04 00 00    	jne    2c4f <__progname@@GLIBC_2.2.5-0x8451>
    27a9:	45 84 ff             	test   r15b,r15b
    27ac:	0f 84 b3 04 00 00    	je     2c65 <__progname@@GLIBC_2.2.5-0x843b>
    27b2:	80 3d 43 89 00 00 00 	cmp    BYTE PTR [rip+0x8943],0x0        # b0fc <stdout@@GLIBC_2.2.5+0x14>
    27b9:	0f 85 09 03 00 00    	jne    2ac8 <__progname@@GLIBC_2.2.5-0x85d8>
    27bf:	4d 85 ed             	test   r13,r13
    27c2:	0f 85 02 08 00 00    	jne    2fca <__progname@@GLIBC_2.2.5-0x80d6>
    27c8:	48 83 7c 24 40 00    	cmp    QWORD PTR [rsp+0x40],0x0
    27ce:	0f 85 bb 07 00 00    	jne    2f8f <__progname@@GLIBC_2.2.5-0x8111>
    27d4:	48 83 7c 24 60 00    	cmp    QWORD PTR [rsp+0x60],0x0
    27da:	0f 85 74 07 00 00    	jne    2f54 <__progname@@GLIBC_2.2.5-0x814c>
    27e0:	80 3d 13 89 00 00 00 	cmp    BYTE PTR [rip+0x8913],0x0        # b0fa <stdout@@GLIBC_2.2.5+0x12>
    27e7:	0f 84 db 02 00 00    	je     2ac8 <__progname@@GLIBC_2.2.5-0x85d8>
    27ed:	80 7c 24 69 00       	cmp    BYTE PTR [rsp+0x69],0x0
    27f2:	0f 84 1c 07 00 00    	je     2f14 <__progname@@GLIBC_2.2.5-0x818c>
    27f8:	48 8b 44 24 40       	mov    rax,QWORD PTR [rsp+0x40]
    27fd:	48 0b 44 24 60       	or     rax,QWORD PTR [rsp+0x60]
    2802:	75 15                	jne    2819 <__progname@@GLIBC_2.2.5-0x8887>
    2804:	0f b6 05 ed 88 00 00 	movzx  eax,BYTE PTR [rip+0x88ed]        # b0f8 <stdout@@GLIBC_2.2.5+0x10>
    280b:	83 f0 01             	xor    eax,0x1
    280e:	4d 85 ed             	test   r13,r13
    2811:	0f 94 c3             	sete   bl
    2814:	09 d8                	or     eax,ebx
    2816:	0f b6 d8             	movzx  ebx,al
    2819:	89 d8                	mov    eax,ebx
    281b:	83 e0 01             	and    eax,0x1
    281e:	20 44 24 68          	and    BYTE PTR [rsp+0x68],al
    2822:	e9 85 01 00 00       	jmp    29ac <__progname@@GLIBC_2.2.5-0x86f4>
    2827:	66 0f 1f 84 00 00 00 	nop    WORD PTR [rax+rax*1+0x0]
    282e:	00 00 
    2830:	48 8b 54 24 20       	mov    rdx,QWORD PTR [rsp+0x20]
    2835:	31 ff                	xor    edi,edi
    2837:	be 03 00 00 00       	mov    esi,0x3
    283c:	67 e8 de 32 00 00    	addr32 call 5b20 <__progname@@GLIBC_2.2.5-0x5580>
    2842:	31 ff                	xor    edi,edi
    2844:	ba 05 00 00 00       	mov    edx,0x5
    2849:	48 8d 35 c8 51 00 00 	lea    rsi,[rip+0x51c8]        # 7a18 <__progname@@GLIBC_2.2.5-0x3688>
    2850:	49 89 c6             	mov    r14,rax
    2853:	ff 15 ff 86 00 00    	call   QWORD PTR [rip+0x86ff]        # af58 <dcgettext@GLIBC_2.2.5>
    2859:	4c 8d 0d b4 47 00 00 	lea    r9,[rip+0x47b4]        # 7014 <__progname@@GLIBC_2.2.5-0x408c>
    2860:	31 f6                	xor    esi,esi
    2862:	31 ff                	xor    edi,edi
    2864:	48 89 c2             	mov    rdx,rax
    2867:	49 89 e8             	mov    r8,rbp
    286a:	4c 89 f1             	mov    rcx,r14
    286d:	31 c0                	xor    eax,eax
    286f:	ff 15 5b 87 00 00    	call   QWORD PTR [rip+0x875b]        # afd0 <error@GLIBC_2.2.5>
    2875:	e9 06 fd ff ff       	jmp    2580 <__progname@@GLIBC_2.2.5-0x8b20>
    287a:	66 0f 1f 44 00 00    	nop    WORD PTR [rax+rax*1+0x0]
    2880:	80 3d 73 88 00 00 00 	cmp    BYTE PTR [rip+0x8873],0x0        # b0fa <stdout@@GLIBC_2.2.5+0x12>
    2887:	74 0b                	je     2894 <__progname@@GLIBC_2.2.5-0x880c>
    2889:	80 7c 24 7f 00       	cmp    BYTE PTR [rsp+0x7f],0x0
    288e:	0f 85 de fe ff ff    	jne    2772 <__progname@@GLIBC_2.2.5-0x892e>
    2894:	4c 8b 0d 65 88 00 00 	mov    r9,QWORD PTR [rip+0x8865]        # b100 <stdout@@GLIBC_2.2.5+0x18>
    289b:	49 d1 e9             	shr    r9,1
    289e:	0f 84 8b 07 00 00    	je     302f <__progname@@GLIBC_2.2.5-0x8071>
    28a4:	4c 89 4c 24 50       	mov    QWORD PTR [rsp+0x50],r9
    28a9:	44 88 54 24 48       	mov    BYTE PTR [rsp+0x48],r10b
    28ae:	ff 15 c4 86 00 00    	call   QWORD PTR [rip+0x86c4]        # af78 <__ctype_tolower_loc@GLIBC_2.3>
    28b4:	31 d2                	xor    edx,edx
    28b6:	44 0f b6 54 24 48    	movzx  r10d,BYTE PTR [rsp+0x48]
    28bc:	4c 8b 4c 24 50       	mov    r9,QWORD PTR [rsp+0x50]
    28c1:	48 8b 38             	mov    rdi,QWORD PTR [rax]
    28c4:	eb 29                	jmp    28ef <__progname@@GLIBC_2.2.5-0x87b1>
    28c6:	66 2e 0f 1f 84 00 00 	nop    WORD PTR cs:[rax+rax*1+0x0]
    28cd:	00 00 00 
    28d0:	0f b6 4c 53 01       	movzx  ecx,BYTE PTR [rbx+rdx*2+0x1]
    28d5:	83 e0 0f             	and    eax,0xf
    28d8:	41 0f be 04 03       	movsx  eax,BYTE PTR [r11+rax*1]
    28dd:	39 04 8f             	cmp    DWORD PTR [rdi+rcx*4],eax
    28e0:	75 2f                	jne    2911 <__progname@@GLIBC_2.2.5-0x878f>
    28e2:	48 83 c2 01          	add    rdx,0x1
    28e6:	49 39 d1             	cmp    r9,rdx
    28e9:	0f 84 22 03 00 00    	je     2c11 <__progname@@GLIBC_2.2.5-0x848f>
    28ef:	41 0f b6 04 17       	movzx  eax,BYTE PTR [r15+rdx*1]
    28f4:	0f b6 34 53          	movzx  esi,BYTE PTR [rbx+rdx*2]
    28f8:	4c 8d 1d a1 52 00 00 	lea    r11,[rip+0x52a1]        # 7ba0 <__progname@@GLIBC_2.2.5-0x3500>
    28ff:	89 c1                	mov    ecx,eax
    2901:	c0 e9 04             	shr    cl,0x4
    2904:	83 e1 0f             	and    ecx,0xf
    2907:	41 0f be 0c 0b       	movsx  ecx,BYTE PTR [r11+rcx*1]
    290c:	39 0c b7             	cmp    DWORD PTR [rdi+rsi*4],ecx
    290f:	74 bf                	je     28d0 <__progname@@GLIBC_2.2.5-0x87d0>
    2911:	48 83 44 24 60 01    	add    QWORD PTR [rsp+0x60],0x1
    2917:	80 3d de 87 00 00 00 	cmp    BYTE PTR [rip+0x87de],0x0        # b0fc <stdout@@GLIBC_2.2.5+0x14>
    291e:	0f 85 4e fe ff ff    	jne    2772 <__progname@@GLIBC_2.2.5-0x892e>
    2924:	83 7c 24 28 00       	cmp    DWORD PTR [rsp+0x28],0x0
    2929:	74 20                	je     294b <__progname@@GLIBC_2.2.5-0x8755>
    292b:	48 8b 3d b6 87 00 00 	mov    rdi,QWORD PTR [rip+0x87b6]        # b0e8 <stdout@@GLIBC_2.2.5>
    2932:	48 8b 47 28          	mov    rax,QWORD PTR [rdi+0x28]
    2936:	48 3b 47 30          	cmp    rax,QWORD PTR [rdi+0x30]
    293a:	0f 83 f6 06 00 00    	jae    3036 <__progname@@GLIBC_2.2.5-0x806a>
    2940:	48 8d 48 01          	lea    rcx,[rax+0x1]
    2944:	48 89 4f 28          	mov    QWORD PTR [rdi+0x28],rcx
    2948:	c6 00 5c             	mov    BYTE PTR [rax],0x5c
    294b:	8b 74 24 28          	mov    esi,DWORD PTR [rsp+0x28]
    294f:	4c 89 f7             	mov    rdi,r14
    2952:	48 89 54 24 50       	mov    QWORD PTR [rsp+0x50],rdx
    2957:	4c 89 4c 24 48       	mov    QWORD PTR [rsp+0x48],r9
    295c:	e8 7f 09 00 00       	call   32e0 <__progname@@GLIBC_2.2.5-0x7dc0>
    2961:	4c 8b 4c 24 48       	mov    r9,QWORD PTR [rsp+0x48]
    2966:	48 8b 54 24 50       	mov    rdx,QWORD PTR [rsp+0x50]
    296b:	49 39 d1             	cmp    r9,rdx
    296e:	0f 84 42 04 00 00    	je     2db6 <__progname@@GLIBC_2.2.5-0x82ea>
    2974:	ba 05 00 00 00       	mov    edx,0x5
    2979:	48 8d 35 bf 47 00 00 	lea    rsi,[rip+0x47bf]        # 713f <__progname@@GLIBC_2.2.5-0x3f61>
    2980:	e9 ce fd ff ff       	jmp    2753 <__progname@@GLIBC_2.2.5-0x894d>
    2985:	48 8d 9c 24 90 00 00 	lea    rbx,[rsp+0x90]
    298c:	00 
    298d:	48 8b 54 24 08       	mov    rdx,QWORD PTR [rsp+0x8]
    2992:	48 8b 7c 24 20       	mov    rdi,QWORD PTR [rsp+0x20]
    2997:	48 89 de             	mov    rsi,rbx
    299a:	e8 11 0a 00 00       	call   33b0 <__progname@@GLIBC_2.2.5-0x7cf0>
    299f:	84 c0                	test   al,al
    29a1:	0f 85 31 01 00 00    	jne    2ad8 <__progname@@GLIBC_2.2.5-0x85c8>
    29a7:	c6 44 24 68 00       	mov    BYTE PTR [rsp+0x68],0x0
    29ac:	48 83 44 24 18 08    	add    QWORD PTR [rsp+0x18],0x8
    29b2:	48 8b 44 24 18       	mov    rax,QWORD PTR [rsp+0x18]
    29b7:	48 39 44 24 58       	cmp    QWORD PTR [rsp+0x58],rax
    29bc:	0f 87 2e fa ff ff    	ja     23f0 <__progname@@GLIBC_2.2.5-0x8cb0>
    29c2:	80 3d 47 87 00 00 00 	cmp    BYTE PTR [rip+0x8747],0x0        # b110 <stdout@@GLIBC_2.2.5+0x28>
    29c9:	0f 85 28 04 00 00    	jne    2df7 <__progname@@GLIBC_2.2.5-0x82a9>
    29cf:	0f b6 44 24 68       	movzx  eax,BYTE PTR [rsp+0x68]
    29d4:	83 f0 01             	xor    eax,0x1
    29d7:	48 8b 9c 24 e8 00 00 	mov    rbx,QWORD PTR [rsp+0xe8]
    29de:	00 
    29df:	64 48 33 1c 25 28 00 	xor    rbx,QWORD PTR fs:0x28
    29e6:	00 00 
    29e8:	0f b6 c0             	movzx  eax,al
    29eb:	0f 85 e5 06 00 00    	jne    30d6 <__progname@@GLIBC_2.2.5-0x7fca>
    29f1:	48 81 c4 f8 00 00 00 	add    rsp,0xf8
    29f8:	5b                   	pop    rbx
    29f9:	5d                   	pop    rbp
    29fa:	41 5c                	pop    r12
    29fc:	41 5d                	pop    r13
    29fe:	41 5e                	pop    r14
    2a00:	41 5f                	pop    r15
    2a02:	c3                   	ret    
    2a03:	48 83 c1 01          	add    rcx,0x1
    2a07:	49 29 c9             	sub    r9,rcx
    2a0a:	0f 84 5f fb ff ff    	je     256f <__progname@@GLIBC_2.2.5-0x8b31>
    2a10:	4d 89 cb             	mov    r11,r9
    2a13:	49 01 ce             	add    r14,rcx
    2a16:	49 83 eb 01          	sub    r11,0x1
    2a1a:	74 25                	je     2a41 <__progname@@GLIBC_2.2.5-0x865f>
    2a1c:	43 80 7c 0e ff 29    	cmp    BYTE PTR [r14+r9*1-0x1],0x29
    2a22:	75 17                	jne    2a3b <__progname@@GLIBC_2.2.5-0x8665>
    2a24:	e9 59 01 00 00       	jmp    2b82 <__progname@@GLIBC_2.2.5-0x851e>
    2a29:	0f 1f 80 00 00 00 00 	nop    DWORD PTR [rax+0x0]
    2a30:	43 80 3c 1e 29       	cmp    BYTE PTR [r14+r11*1],0x29
    2a35:	0f 84 47 01 00 00    	je     2b82 <__progname@@GLIBC_2.2.5-0x851e>
    2a3b:	49 83 eb 01          	sub    r11,0x1
    2a3f:	75 ef                	jne    2a30 <__progname@@GLIBC_2.2.5-0x8670>
    2a41:	41 80 3e 29          	cmp    BYTE PTR [r14],0x29
    2a45:	0f 85 24 fb ff ff    	jne    256f <__progname@@GLIBC_2.2.5-0x8b31>
    2a4b:	4c 89 f2             	mov    rdx,r14
    2a4e:	45 31 db             	xor    r11d,r11d
    2a51:	e9 30 01 00 00       	jmp    2b86 <__progname@@GLIBC_2.2.5-0x851a>
    2a56:	48 8d 35 7f 46 00 00 	lea    rsi,[rip+0x467f]        # 70dc <__progname@@GLIBC_2.2.5-0x3fc4>
    2a5d:	48 8b 7c 24 20       	mov    rdi,QWORD PTR [rsp+0x20]
    2a62:	67 e8 d8 13 00 00    	addr32 call 3e40 <__progname@@GLIBC_2.2.5-0x7260>
    2a68:	49 89 c4             	mov    r12,rax
    2a6b:	48 85 c0             	test   rax,rax
    2a6e:	0f 85 d4 f9 ff ff    	jne    2448 <__progname@@GLIBC_2.2.5-0x8c58>
    2a74:	48 8b 54 24 20       	mov    rdx,QWORD PTR [rsp+0x20]
    2a79:	be 03 00 00 00       	mov    esi,0x3
    2a7e:	31 ff                	xor    edi,edi
    2a80:	67 e8 9a 30 00 00    	addr32 call 5b20 <__progname@@GLIBC_2.2.5-0x5580>
    2a86:	48 89 c3             	mov    rbx,rax
    2a89:	ff 15 c1 84 00 00    	call   QWORD PTR [rip+0x84c1]        # af50 <__errno_location@GLIBC_2.2.5>
    2a8f:	48 89 d9             	mov    rcx,rbx
    2a92:	48 8d 15 2c 51 00 00 	lea    rdx,[rip+0x512c]        # 7bc5 <__progname@@GLIBC_2.2.5-0x34db>
    2a99:	31 ff                	xor    edi,edi
    2a9b:	8b 30                	mov    esi,DWORD PTR [rax]
    2a9d:	31 c0                	xor    eax,eax
    2a9f:	ff 15 2b 85 00 00    	call   QWORD PTR [rip+0x852b]        # afd0 <error@GLIBC_2.2.5>
    2aa5:	31 c0                	xor    eax,eax
    2aa7:	e9 72 fd ff ff       	jmp    281e <__progname@@GLIBC_2.2.5-0x8882>
    2aac:	83 e9 01             	sub    ecx,0x1
    2aaf:	0f 84 cf fb ff ff    	je     2684 <__progname@@GLIBC_2.2.5-0x8a1c>
    2ab5:	c7 05 55 85 00 00 00 	mov    DWORD PTR [rip+0x8555],0x0        # b014 <__progname@@GLIBC_2.2.5-0x8c>
    2abc:	00 00 00 
    2abf:	48 8d 42 02          	lea    rax,[rdx+0x2]
    2ac3:	e9 bc fb ff ff       	jmp    2684 <__progname@@GLIBC_2.2.5-0x8a1c>
    2ac8:	80 7c 24 69 00       	cmp    BYTE PTR [rsp+0x69],0x0
    2acd:	0f 85 25 fd ff ff    	jne    27f8 <__progname@@GLIBC_2.2.5-0x88a8>
    2ad3:	e9 41 fd ff ff       	jmp    2819 <__progname@@GLIBC_2.2.5-0x8887>
    2ad8:	be 5c 00 00 00       	mov    esi,0x5c
    2add:	48 8b 7c 24 20       	mov    rdi,QWORD PTR [rsp+0x20]
    2ae2:	ff 15 50 84 00 00    	call   QWORD PTR [rip+0x8450]        # af38 <strchr@GLIBC_2.2.5>
    2ae8:	48 85 c0             	test   rax,rax
    2aeb:	0f 84 4b 03 00 00    	je     2e3c <__progname@@GLIBC_2.2.5-0x8264>
    2af1:	80 3d 18 85 00 00 0a 	cmp    BYTE PTR [rip+0x8518],0xa        # b010 <__progname@@GLIBC_2.2.5-0x90>
    2af8:	0f 84 09 02 00 00    	je     2d07 <__progname@@GLIBC_2.2.5-0x8399>
    2afe:	80 7c 24 6a 00       	cmp    BYTE PTR [rsp+0x6a],0x0
    2b03:	0f 85 f7 04 00 00    	jne    3000 <__progname@@GLIBC_2.2.5-0x80a0>
    2b09:	48 8b 05 f0 85 00 00 	mov    rax,QWORD PTR [rip+0x85f0]        # b100 <stdout@@GLIBC_2.2.5+0x18>
    2b10:	31 ed                	xor    ebp,ebp
    2b12:	48 d1 e8             	shr    rax,1
    2b15:	0f 84 2c 02 00 00    	je     2d47 <__progname@@GLIBC_2.2.5-0x8359>
    2b1b:	45 31 e4             	xor    r12d,r12d
    2b1e:	66 90                	xchg   ax,ax
    2b20:	42 0f b6 14 23       	movzx  edx,BYTE PTR [rbx+r12*1]
    2b25:	48 8d 35 45 46 00 00 	lea    rsi,[rip+0x4645]        # 7171 <__progname@@GLIBC_2.2.5-0x3f2f>
    2b2c:	bf 01 00 00 00       	mov    edi,0x1
    2b31:	31 c0                	xor    eax,eax
    2b33:	ff 15 17 83 00 00    	call   QWORD PTR [rip+0x8317]        # ae50 <__printf_chk@GLIBC_2.3.4>
    2b39:	48 8b 05 c0 85 00 00 	mov    rax,QWORD PTR [rip+0x85c0]        # b100 <stdout@@GLIBC_2.2.5+0x18>
    2b40:	49 83 c4 01          	add    r12,0x1
    2b44:	48 d1 e8             	shr    rax,1
    2b47:	4c 39 e0             	cmp    rax,r12
    2b4a:	77 d4                	ja     2b20 <__progname@@GLIBC_2.2.5-0x8580>
    2b4c:	80 7c 24 6a 00       	cmp    BYTE PTR [rsp+0x6a],0x0
    2b51:	0f 84 f0 01 00 00    	je     2d47 <__progname@@GLIBC_2.2.5-0x8359>
    2b57:	48 8b 3d 8a 85 00 00 	mov    rdi,QWORD PTR [rip+0x858a]        # b0e8 <stdout@@GLIBC_2.2.5>
    2b5e:	0f b6 15 ab 84 00 00 	movzx  edx,BYTE PTR [rip+0x84ab]        # b010 <__progname@@GLIBC_2.2.5-0x90>
    2b65:	48 8b 47 28          	mov    rax,QWORD PTR [rdi+0x28]
    2b69:	48 3b 47 30          	cmp    rax,QWORD PTR [rdi+0x30]
    2b6d:	0f 83 ae 04 00 00    	jae    3021 <__progname@@GLIBC_2.2.5-0x807f>
    2b73:	48 8d 48 01          	lea    rcx,[rax+0x1]
    2b77:	48 89 4f 28          	mov    QWORD PTR [rdi+0x28],rcx
    2b7b:	88 10                	mov    BYTE PTR [rax],dl
    2b7d:	e9 2a fe ff ff       	jmp    29ac <__progname@@GLIBC_2.2.5-0x86f4>
    2b82:	4b 8d 14 1e          	lea    rdx,[r14+r11*1]
    2b86:	45 84 d2             	test   r10b,r10b
    2b89:	0f 85 45 02 00 00    	jne    2dd4 <__progname@@GLIBC_2.2.5-0x82cc>
    2b8f:	c6 02 00             	mov    BYTE PTR [rdx],0x0
    2b92:	43 0f b6 54 1e 01    	movzx  edx,BYTE PTR [r14+r11*1+0x1]
    2b98:	49 8d 43 01          	lea    rax,[r11+0x1]
    2b9c:	80 fa 09             	cmp    dl,0x9
    2b9f:	74 0f                	je     2bb0 <__progname@@GLIBC_2.2.5-0x84f0>
    2ba1:	80 fa 20             	cmp    dl,0x20
    2ba4:	75 1d                	jne    2bc3 <__progname@@GLIBC_2.2.5-0x84dd>
    2ba6:	66 2e 0f 1f 84 00 00 	nop    WORD PTR cs:[rax+rax*1+0x0]
    2bad:	00 00 00 
    2bb0:	48 83 c0 01          	add    rax,0x1
    2bb4:	41 0f b6 14 06       	movzx  edx,BYTE PTR [r14+rax*1]
    2bb9:	80 fa 20             	cmp    dl,0x20
    2bbc:	74 f2                	je     2bb0 <__progname@@GLIBC_2.2.5-0x84f0>
    2bbe:	80 fa 09             	cmp    dl,0x9
    2bc1:	74 ed                	je     2bb0 <__progname@@GLIBC_2.2.5-0x84f0>
    2bc3:	80 fa 3d             	cmp    dl,0x3d
    2bc6:	0f 85 a3 f9 ff ff    	jne    256f <__progname@@GLIBC_2.2.5-0x8b31>
    2bcc:	49 8d 5c 06 01       	lea    rbx,[r14+rax*1+0x1]
    2bd1:	0f b6 13             	movzx  edx,BYTE PTR [rbx]
    2bd4:	80 fa 20             	cmp    dl,0x20
    2bd7:	74 05                	je     2bde <__progname@@GLIBC_2.2.5-0x84c2>
    2bd9:	80 fa 09             	cmp    dl,0x9
    2bdc:	75 1e                	jne    2bfc <__progname@@GLIBC_2.2.5-0x84a4>
    2bde:	49 8d 44 06 02       	lea    rax,[r14+rax*1+0x2]
    2be3:	0f 1f 44 00 00       	nop    DWORD PTR [rax+rax*1+0x0]
    2be8:	0f b6 10             	movzx  edx,BYTE PTR [rax]
    2beb:	48 89 c3             	mov    rbx,rax
    2bee:	48 83 c0 01          	add    rax,0x1
    2bf2:	80 fa 20             	cmp    dl,0x20
    2bf5:	74 f1                	je     2be8 <__progname@@GLIBC_2.2.5-0x84b8>
    2bf7:	80 fa 09             	cmp    dl,0x9
    2bfa:	74 ec                	je     2be8 <__progname@@GLIBC_2.2.5-0x84b8>
    2bfc:	48 89 df             	mov    rdi,rbx
    2bff:	e8 ec 05 00 00       	call   31f0 <__progname@@GLIBC_2.2.5-0x7eb0>
    2c04:	84 c0                	test   al,al
    2c06:	0f 85 84 fa ff ff    	jne    2690 <__progname@@GLIBC_2.2.5-0x8a10>
    2c0c:	e9 5e f9 ff ff       	jmp    256f <__progname@@GLIBC_2.2.5-0x8b31>
    2c11:	4c 89 ca             	mov    rdx,r9
    2c14:	0f b6 05 e1 84 00 00 	movzx  eax,BYTE PTR [rip+0x84e1]        # b0fc <stdout@@GLIBC_2.2.5+0x14>
    2c1b:	88 44 24 69          	mov    BYTE PTR [rsp+0x69],al
    2c1f:	84 c0                	test   al,al
    2c21:	0f 85 4b fb ff ff    	jne    2772 <__progname@@GLIBC_2.2.5-0x892e>
    2c27:	0f b6 05 cb 84 00 00 	movzx  eax,BYTE PTR [rip+0x84cb]        # b0f9 <stdout@@GLIBC_2.2.5+0x11>
    2c2e:	88 44 24 69          	mov    BYTE PTR [rsp+0x69],al
    2c32:	84 c0                	test   al,al
    2c34:	0f 85 38 fb ff ff    	jne    2772 <__progname@@GLIBC_2.2.5-0x892e>
    2c3a:	83 7c 24 28 00       	cmp    DWORD PTR [rsp+0x28],0x0
    2c3f:	0f 84 57 01 00 00    	je     2d9c <__progname@@GLIBC_2.2.5-0x8304>
    2c45:	44 88 54 24 69       	mov    BYTE PTR [rsp+0x69],r10b
    2c4a:	e9 dc fc ff ff       	jmp    292b <__progname@@GLIBC_2.2.5-0x8775>
    2c4f:	4c 89 e7             	mov    rdi,r12
    2c52:	67 e8 c8 39 00 00    	addr32 call 6620 <__progname@@GLIBC_2.2.5-0x4a80>
    2c58:	85 c0                	test   eax,eax
    2c5a:	0f 84 49 fb ff ff    	je     27a9 <__progname@@GLIBC_2.2.5-0x88f7>
    2c60:	e9 0f fe ff ff       	jmp    2a74 <__progname@@GLIBC_2.2.5-0x862c>
    2c65:	48 8b 54 24 20       	mov    rdx,QWORD PTR [rsp+0x20]
    2c6a:	31 ff                	xor    edi,edi
    2c6c:	be 03 00 00 00       	mov    esi,0x3
    2c71:	67 e8 a9 2e 00 00    	addr32 call 5b20 <__progname@@GLIBC_2.2.5-0x5580>
    2c77:	31 ff                	xor    edi,edi
    2c79:	ba 05 00 00 00       	mov    edx,0x5
    2c7e:	48 8d 35 c3 4d 00 00 	lea    rsi,[rip+0x4dc3]        # 7a48 <__progname@@GLIBC_2.2.5-0x3658>
    2c85:	48 89 c5             	mov    rbp,rax
    2c88:	ff 15 ca 82 00 00    	call   QWORD PTR [rip+0x82ca]        # af58 <dcgettext@GLIBC_2.2.5>
    2c8e:	4c 8d 05 7f 43 00 00 	lea    r8,[rip+0x437f]        # 7014 <__progname@@GLIBC_2.2.5-0x408c>
    2c95:	31 f6                	xor    esi,esi
    2c97:	31 ff                	xor    edi,edi
    2c99:	48 89 c2             	mov    rdx,rax
    2c9c:	48 89 e9             	mov    rcx,rbp
    2c9f:	31 c0                	xor    eax,eax
    2ca1:	ff 15 29 83 00 00    	call   QWORD PTR [rip+0x8329]        # afd0 <error@GLIBC_2.2.5>
    2ca7:	e9 6d fb ff ff       	jmp    2819 <__progname@@GLIBC_2.2.5-0x8887>
    2cac:	4c 89 ce             	mov    rsi,r9
    2caf:	4c 89 f7             	mov    rdi,r14
    2cb2:	48 29 c6             	sub    rsi,rax
    2cb5:	e8 96 05 00 00       	call   3250 <__progname@@GLIBC_2.2.5-0x7e50>
    2cba:	48 85 c0             	test   rax,rax
    2cbd:	0f 95 c0             	setne  al
    2cc0:	e9 3f ff ff ff       	jmp    2c04 <__progname@@GLIBC_2.2.5-0x849c>
    2cc5:	48 8b 54 24 20       	mov    rdx,QWORD PTR [rsp+0x20]
    2cca:	be 03 00 00 00       	mov    esi,0x3
    2ccf:	31 ff                	xor    edi,edi
    2cd1:	67 e8 49 2e 00 00    	addr32 call 5b20 <__progname@@GLIBC_2.2.5-0x5580>
    2cd7:	ba 05 00 00 00       	mov    edx,0x5
    2cdc:	48 8d 35 66 44 00 00 	lea    rsi,[rip+0x4466]        # 7149 <__progname@@GLIBC_2.2.5-0x3f57>
    2ce3:	31 ff                	xor    edi,edi
    2ce5:	48 89 c3             	mov    rbx,rax
    2ce8:	ff 15 6a 82 00 00    	call   QWORD PTR [rip+0x826a]        # af58 <dcgettext@GLIBC_2.2.5>
    2cee:	48 89 d9             	mov    rcx,rbx
    2cf1:	31 f6                	xor    esi,esi
    2cf3:	31 ff                	xor    edi,edi
    2cf5:	48 89 c2             	mov    rdx,rax
    2cf8:	31 c0                	xor    eax,eax
    2cfa:	ff 15 d0 82 00 00    	call   QWORD PTR [rip+0x82d0]        # afd0 <error@GLIBC_2.2.5>
    2d00:	31 c0                	xor    eax,eax
    2d02:	e9 17 fb ff ff       	jmp    281e <__progname@@GLIBC_2.2.5-0x8882>
    2d07:	80 7c 24 6a 00       	cmp    BYTE PTR [rsp+0x6a],0x0
    2d0c:	0f 85 48 01 00 00    	jne    2e5a <__progname@@GLIBC_2.2.5-0x8246>
    2d12:	48 8b 3d cf 83 00 00 	mov    rdi,QWORD PTR [rip+0x83cf]        # b0e8 <stdout@@GLIBC_2.2.5>
    2d19:	48 8b 47 28          	mov    rax,QWORD PTR [rdi+0x28]
    2d1d:	48 3b 47 30          	cmp    rax,QWORD PTR [rdi+0x30]
    2d21:	0f 83 43 03 00 00    	jae    306a <__progname@@GLIBC_2.2.5-0x8036>
    2d27:	48 8d 50 01          	lea    rdx,[rax+0x1]
    2d2b:	48 89 57 28          	mov    QWORD PTR [rdi+0x28],rdx
    2d2f:	c6 00 5c             	mov    BYTE PTR [rax],0x5c
    2d32:	48 8b 05 c7 83 00 00 	mov    rax,QWORD PTR [rip+0x83c7]        # b100 <stdout@@GLIBC_2.2.5+0x18>
    2d39:	bd 01 00 00 00       	mov    ebp,0x1
    2d3e:	48 d1 e8             	shr    rax,1
    2d41:	0f 85 d4 fd ff ff    	jne    2b1b <__progname@@GLIBC_2.2.5-0x8585>
    2d47:	48 8b 3d 9a 83 00 00 	mov    rdi,QWORD PTR [rip+0x839a]        # b0e8 <stdout@@GLIBC_2.2.5>
    2d4e:	48 8b 47 28          	mov    rax,QWORD PTR [rdi+0x28]
    2d52:	48 3b 47 30          	cmp    rax,QWORD PTR [rdi+0x30]
    2d56:	0f 83 fe 02 00 00    	jae    305a <__progname@@GLIBC_2.2.5-0x8046>
    2d5c:	48 8d 50 01          	lea    rdx,[rax+0x1]
    2d60:	48 89 57 28          	mov    QWORD PTR [rdi+0x28],rdx
    2d64:	c6 00 20             	mov    BYTE PTR [rax],0x20
    2d67:	48 8b 3d 7a 83 00 00 	mov    rdi,QWORD PTR [rip+0x837a]        # b0e8 <stdout@@GLIBC_2.2.5>
    2d6e:	48 8b 47 28          	mov    rax,QWORD PTR [rdi+0x28]
    2d72:	48 3b 47 30          	cmp    rax,QWORD PTR [rdi+0x30]
    2d76:	0f 83 fe 02 00 00    	jae    307a <__progname@@GLIBC_2.2.5-0x8026>
    2d7c:	0f b6 5c 24 6b       	movzx  ebx,BYTE PTR [rsp+0x6b]
    2d81:	48 8d 50 01          	lea    rdx,[rax+0x1]
    2d85:	48 89 57 28          	mov    QWORD PTR [rdi+0x28],rdx
    2d89:	88 18                	mov    BYTE PTR [rax],bl
    2d8b:	48 8b 7c 24 20       	mov    rdi,QWORD PTR [rsp+0x20]
    2d90:	89 ee                	mov    esi,ebp
    2d92:	e8 49 05 00 00       	call   32e0 <__progname@@GLIBC_2.2.5-0x7dc0>
    2d97:	e9 bb fd ff ff       	jmp    2b57 <__progname@@GLIBC_2.2.5-0x8549>
    2d9c:	31 f6                	xor    esi,esi
    2d9e:	4c 89 f7             	mov    rdi,r14
    2da1:	44 88 54 24 28       	mov    BYTE PTR [rsp+0x28],r10b
    2da6:	e8 35 05 00 00       	call   32e0 <__progname@@GLIBC_2.2.5-0x7dc0>
    2dab:	44 0f b6 54 24 28    	movzx  r10d,BYTE PTR [rsp+0x28]
    2db1:	44 88 54 24 69       	mov    BYTE PTR [rsp+0x69],r10b
    2db6:	80 3d 3c 83 00 00 00 	cmp    BYTE PTR [rip+0x833c],0x0        # b0f9 <stdout@@GLIBC_2.2.5+0x11>
    2dbd:	0f 85 af f9 ff ff    	jne    2772 <__progname@@GLIBC_2.2.5-0x892e>
    2dc3:	ba 05 00 00 00       	mov    edx,0x5
    2dc8:	48 8d 35 77 43 00 00 	lea    rsi,[rip+0x4377]        # 7146 <__progname@@GLIBC_2.2.5-0x3f5a>
    2dcf:	e9 7f f9 ff ff       	jmp    2753 <__progname@@GLIBC_2.2.5-0x894d>
    2dd4:	4c 89 de             	mov    rsi,r11
    2dd7:	4c 89 f7             	mov    rdi,r14
    2dda:	48 89 54 24 28       	mov    QWORD PTR [rsp+0x28],rdx
    2ddf:	e8 6c 04 00 00       	call   3250 <__progname@@GLIBC_2.2.5-0x7e50>
    2de4:	48 8b 54 24 28       	mov    rdx,QWORD PTR [rsp+0x28]
    2de9:	48 85 c0             	test   rax,rax
    2dec:	0f 85 9d fd ff ff    	jne    2b8f <__progname@@GLIBC_2.2.5-0x8511>
    2df2:	e9 78 f7 ff ff       	jmp    256f <__progname@@GLIBC_2.2.5-0x8b31>
    2df7:	48 8b 3d c2 82 00 00 	mov    rdi,QWORD PTR [rip+0x82c2]        # b0c0 <stdin@@GLIBC_2.2.5>
    2dfe:	67 e8 1c 38 00 00    	addr32 call 6620 <__progname@@GLIBC_2.2.5-0x4a80>
    2e04:	83 c0 01             	add    eax,0x1
    2e07:	0f 85 c2 fb ff ff    	jne    29cf <__progname@@GLIBC_2.2.5-0x86d1>
    2e0d:	ba 05 00 00 00       	mov    edx,0x5
    2e12:	48 8d 35 e7 42 00 00 	lea    rsi,[rip+0x42e7]        # 7100 <__progname@@GLIBC_2.2.5-0x3fa0>
    2e19:	31 ff                	xor    edi,edi
    2e1b:	ff 15 37 81 00 00    	call   QWORD PTR [rip+0x8137]        # af58 <dcgettext@GLIBC_2.2.5>
    2e21:	48 89 c3             	mov    rbx,rax
    2e24:	ff 15 26 81 00 00    	call   QWORD PTR [rip+0x8126]        # af50 <__errno_location@GLIBC_2.2.5>
    2e2a:	48 89 da             	mov    rdx,rbx
    2e2d:	bf 01 00 00 00       	mov    edi,0x1
    2e32:	8b 30                	mov    esi,DWORD PTR [rax]
    2e34:	31 c0                	xor    eax,eax
    2e36:	ff 15 94 81 00 00    	call   QWORD PTR [rip+0x8194]        # afd0 <error@GLIBC_2.2.5>
    2e3c:	be 0a 00 00 00       	mov    esi,0xa
    2e41:	48 8b 7c 24 20       	mov    rdi,QWORD PTR [rsp+0x20]
    2e46:	ff 15 ec 80 00 00    	call   QWORD PTR [rip+0x80ec]        # af38 <strchr@GLIBC_2.2.5>
    2e4c:	48 85 c0             	test   rax,rax
    2e4f:	0f 85 9c fc ff ff    	jne    2af1 <__progname@@GLIBC_2.2.5-0x85af>
    2e55:	e9 a4 fc ff ff       	jmp    2afe <__progname@@GLIBC_2.2.5-0x85a2>
    2e5a:	48 8b 3d 87 82 00 00 	mov    rdi,QWORD PTR [rip+0x8287]        # b0e8 <stdout@@GLIBC_2.2.5>
    2e61:	48 8b 47 28          	mov    rax,QWORD PTR [rdi+0x28]
    2e65:	48 39 47 30          	cmp    QWORD PTR [rdi+0x30],rax
    2e69:	0f 86 1a 02 00 00    	jbe    3089 <__progname@@GLIBC_2.2.5-0x8017>
    2e6f:	48 8d 50 01          	lea    rdx,[rax+0x1]
    2e73:	bd 01 00 00 00       	mov    ebp,0x1
    2e78:	48 89 57 28          	mov    QWORD PTR [rdi+0x28],rdx
    2e7c:	c6 00 5c             	mov    BYTE PTR [rax],0x5c
    2e7f:	48 8b 0d 62 82 00 00 	mov    rcx,QWORD PTR [rip+0x8262]        # b0e8 <stdout@@GLIBC_2.2.5>
    2e86:	ba 06 00 00 00       	mov    edx,0x6
    2e8b:	be 01 00 00 00       	mov    esi,0x1
    2e90:	48 8d 3d 7d 41 00 00 	lea    rdi,[rip+0x417d]        # 7014 <__progname@@GLIBC_2.2.5-0x408c>
    2e97:	ff 15 7b 80 00 00    	call   QWORD PTR [rip+0x807b]        # af18 <fwrite_unlocked@GLIBC_2.2.5>
    2e9d:	ba 02 00 00 00       	mov    edx,0x2
    2ea2:	48 8b 0d 3f 82 00 00 	mov    rcx,QWORD PTR [rip+0x823f]        # b0e8 <stdout@@GLIBC_2.2.5>
    2ea9:	be 01 00 00 00       	mov    esi,0x1
    2eae:	48 8d 3d c1 42 00 00 	lea    rdi,[rip+0x42c1]        # 7176 <__progname@@GLIBC_2.2.5-0x3f2a>
    2eb5:	ff 15 5d 80 00 00    	call   QWORD PTR [rip+0x805d]        # af18 <fwrite_unlocked@GLIBC_2.2.5>
    2ebb:	48 8b 7c 24 20       	mov    rdi,QWORD PTR [rsp+0x20]
    2ec0:	89 ee                	mov    esi,ebp
    2ec2:	e8 19 04 00 00       	call   32e0 <__progname@@GLIBC_2.2.5-0x7dc0>
    2ec7:	ba 04 00 00 00       	mov    edx,0x4
    2ecc:	48 8b 0d 15 82 00 00 	mov    rcx,QWORD PTR [rip+0x8215]        # b0e8 <stdout@@GLIBC_2.2.5>
    2ed3:	be 01 00 00 00       	mov    esi,0x1
    2ed8:	48 8d 3d 9a 42 00 00 	lea    rdi,[rip+0x429a]        # 7179 <__progname@@GLIBC_2.2.5-0x3f27>
    2edf:	ff 15 33 80 00 00    	call   QWORD PTR [rip+0x8033]        # af18 <fwrite_unlocked@GLIBC_2.2.5>
    2ee5:	48 8b 05 14 82 00 00 	mov    rax,QWORD PTR [rip+0x8214]        # b100 <stdout@@GLIBC_2.2.5+0x18>
    2eec:	48 d1 e8             	shr    rax,1
    2eef:	0f 85 26 fc ff ff    	jne    2b1b <__progname@@GLIBC_2.2.5-0x8585>
    2ef5:	e9 52 fc ff ff       	jmp    2b4c <__progname@@GLIBC_2.2.5-0x8554>
    2efa:	ba 05 00 00 00       	mov    edx,0x5
    2eff:	48 8d 35 52 4a 00 00 	lea    rsi,[rip+0x4a52]        # 7958 <__progname@@GLIBC_2.2.5-0x3748>
    2f06:	45 84 ff             	test   r15b,r15b
    2f09:	0f 85 63 f4 ff ff    	jne    2372 <__progname@@GLIBC_2.2.5-0x8d2e>
    2f0f:	e9 04 f4 ff ff       	jmp    2318 <__progname@@GLIBC_2.2.5-0x8d88>
    2f14:	48 8b 54 24 20       	mov    rdx,QWORD PTR [rsp+0x20]
    2f19:	31 ff                	xor    edi,edi
    2f1b:	be 03 00 00 00       	mov    esi,0x3
    2f20:	67 e8 fa 2b 00 00    	addr32 call 5b20 <__progname@@GLIBC_2.2.5-0x5580>
    2f26:	31 ff                	xor    edi,edi
    2f28:	ba 05 00 00 00       	mov    edx,0x5
    2f2d:	48 8d 35 24 42 00 00 	lea    rsi,[rip+0x4224]        # 7158 <__progname@@GLIBC_2.2.5-0x3f48>
    2f34:	48 89 c5             	mov    rbp,rax
    2f37:	ff 15 1b 80 00 00    	call   QWORD PTR [rip+0x801b]        # af58 <dcgettext@GLIBC_2.2.5>
    2f3d:	48 89 e9             	mov    rcx,rbp
    2f40:	31 f6                	xor    esi,esi
    2f42:	31 ff                	xor    edi,edi
    2f44:	48 89 c2             	mov    rdx,rax
    2f47:	31 c0                	xor    eax,eax
    2f49:	ff 15 81 80 00 00    	call   QWORD PTR [rip+0x8081]        # afd0 <error@GLIBC_2.2.5>
    2f4f:	e9 c5 f8 ff ff       	jmp    2819 <__progname@@GLIBC_2.2.5-0x8887>
    2f54:	4c 8b 7c 24 60       	mov    r15,QWORD PTR [rsp+0x60]
    2f59:	31 ff                	xor    edi,edi
    2f5b:	41 b8 05 00 00 00    	mov    r8d,0x5
    2f61:	48 8d 15 d8 4b 00 00 	lea    rdx,[rip+0x4bd8]        # 7b40 <__progname@@GLIBC_2.2.5-0x3560>
    2f68:	48 8d 35 01 4c 00 00 	lea    rsi,[rip+0x4c01]        # 7b70 <__progname@@GLIBC_2.2.5-0x3530>
    2f6f:	4c 89 f9             	mov    rcx,r15
    2f72:	ff 15 98 7e 00 00    	call   QWORD PTR [rip+0x7e98]        # ae10 <dcngettext@GLIBC_2.2.5>
    2f78:	4c 89 f9             	mov    rcx,r15
    2f7b:	31 f6                	xor    esi,esi
    2f7d:	31 ff                	xor    edi,edi
    2f7f:	48 89 c2             	mov    rdx,rax
    2f82:	31 c0                	xor    eax,eax
    2f84:	ff 15 46 80 00 00    	call   QWORD PTR [rip+0x8046]        # afd0 <error@GLIBC_2.2.5>
    2f8a:	e9 51 f8 ff ff       	jmp    27e0 <__progname@@GLIBC_2.2.5-0x88c0>
    2f8f:	4c 8b 7c 24 40       	mov    r15,QWORD PTR [rsp+0x40]
    2f94:	31 ff                	xor    edi,edi
    2f96:	41 b8 05 00 00 00    	mov    r8d,0x5
    2f9c:	48 8d 15 3d 4b 00 00 	lea    rdx,[rip+0x4b3d]        # 7ae0 <__progname@@GLIBC_2.2.5-0x35c0>
    2fa3:	48 8d 35 66 4b 00 00 	lea    rsi,[rip+0x4b66]        # 7b10 <__progname@@GLIBC_2.2.5-0x3590>
    2faa:	4c 89 f9             	mov    rcx,r15
    2fad:	ff 15 5d 7e 00 00    	call   QWORD PTR [rip+0x7e5d]        # ae10 <dcngettext@GLIBC_2.2.5>
    2fb3:	4c 89 f9             	mov    rcx,r15
    2fb6:	31 f6                	xor    esi,esi
    2fb8:	31 ff                	xor    edi,edi
    2fba:	48 89 c2             	mov    rdx,rax
    2fbd:	31 c0                	xor    eax,eax
    2fbf:	ff 15 0b 80 00 00    	call   QWORD PTR [rip+0x800b]        # afd0 <error@GLIBC_2.2.5>
    2fc5:	e9 0a f8 ff ff       	jmp    27d4 <__progname@@GLIBC_2.2.5-0x88cc>
    2fca:	4c 89 e9             	mov    rcx,r13
    2fcd:	31 ff                	xor    edi,edi
    2fcf:	41 b8 05 00 00 00    	mov    r8d,0x5
    2fd5:	48 8d 15 a4 4a 00 00 	lea    rdx,[rip+0x4aa4]        # 7a80 <__progname@@GLIBC_2.2.5-0x3620>
    2fdc:	48 8d 35 cd 4a 00 00 	lea    rsi,[rip+0x4acd]        # 7ab0 <__progname@@GLIBC_2.2.5-0x35f0>
    2fe3:	ff 15 27 7e 00 00    	call   QWORD PTR [rip+0x7e27]        # ae10 <dcngettext@GLIBC_2.2.5>
    2fe9:	4c 89 e9             	mov    rcx,r13
    2fec:	31 f6                	xor    esi,esi
    2fee:	31 ff                	xor    edi,edi
    2ff0:	48 89 c2             	mov    rdx,rax
    2ff3:	31 c0                	xor    eax,eax
    2ff5:	ff 15 d5 7f 00 00    	call   QWORD PTR [rip+0x7fd5]        # afd0 <error@GLIBC_2.2.5>
    2ffb:	e9 c8 f7 ff ff       	jmp    27c8 <__progname@@GLIBC_2.2.5-0x88d8>
    3000:	31 ed                	xor    ebp,ebp
    3002:	e9 78 fe ff ff       	jmp    2e7f <__progname@@GLIBC_2.2.5-0x8221>
    3007:	be 5c 00 00 00       	mov    esi,0x5c
    300c:	ff 15 5e 7f 00 00    	call   QWORD PTR [rip+0x7f5e]        # af70 <__overflow@GLIBC_2.2.5>
    3012:	e9 24 f7 ff ff       	jmp    273b <__progname@@GLIBC_2.2.5-0x8965>
    3017:	c6 44 24 68 01       	mov    BYTE PTR [rsp+0x68],0x1
    301c:	e9 a1 f9 ff ff       	jmp    29c2 <__progname@@GLIBC_2.2.5-0x86de>
    3021:	0f b6 f2             	movzx  esi,dl
    3024:	ff 15 46 7f 00 00    	call   QWORD PTR [rip+0x7f46]        # af70 <__overflow@GLIBC_2.2.5>
    302a:	e9 7d f9 ff ff       	jmp    29ac <__progname@@GLIBC_2.2.5-0x86f4>
    302f:	31 d2                	xor    edx,edx
    3031:	e9 de fb ff ff       	jmp    2c14 <__progname@@GLIBC_2.2.5-0x848c>
    3036:	48 89 54 24 50       	mov    QWORD PTR [rsp+0x50],rdx
    303b:	be 5c 00 00 00       	mov    esi,0x5c
    3040:	4c 89 4c 24 48       	mov    QWORD PTR [rsp+0x48],r9
    3045:	ff 15 25 7f 00 00    	call   QWORD PTR [rip+0x7f25]        # af70 <__overflow@GLIBC_2.2.5>
    304b:	4c 8b 4c 24 48       	mov    r9,QWORD PTR [rsp+0x48]
    3050:	48 8b 54 24 50       	mov    rdx,QWORD PTR [rsp+0x50]
    3055:	e9 f1 f8 ff ff       	jmp    294b <__progname@@GLIBC_2.2.5-0x8755>
    305a:	be 20 00 00 00       	mov    esi,0x20
    305f:	ff 15 0b 7f 00 00    	call   QWORD PTR [rip+0x7f0b]        # af70 <__overflow@GLIBC_2.2.5>
    3065:	e9 fd fc ff ff       	jmp    2d67 <__progname@@GLIBC_2.2.5-0x8339>
    306a:	be 5c 00 00 00       	mov    esi,0x5c
    306f:	ff 15 fb 7e 00 00    	call   QWORD PTR [rip+0x7efb]        # af70 <__overflow@GLIBC_2.2.5>
    3075:	e9 b8 fc ff ff       	jmp    2d32 <__progname@@GLIBC_2.2.5-0x836e>
    307a:	8b 74 24 6c          	mov    esi,DWORD PTR [rsp+0x6c]
    307e:	ff 15 ec 7e 00 00    	call   QWORD PTR [rip+0x7eec]        # af70 <__overflow@GLIBC_2.2.5>
    3084:	e9 02 fd ff ff       	jmp    2d8b <__progname@@GLIBC_2.2.5-0x8315>
    3089:	be 5c 00 00 00       	mov    esi,0x5c
    308e:	bd 01 00 00 00       	mov    ebp,0x1
    3093:	ff 15 d7 7e 00 00    	call   QWORD PTR [rip+0x7ed7]        # af70 <__overflow@GLIBC_2.2.5>
    3099:	e9 e1 fd ff ff       	jmp    2e7f <__progname@@GLIBC_2.2.5-0x8221>
    309e:	80 3d 57 80 00 00 00 	cmp    BYTE PTR [rip+0x8057],0x0        # b0fc <stdout@@GLIBC_2.2.5+0x14>
    30a5:	0f 84 18 f2 ff ff    	je     22c3 <__progname@@GLIBC_2.2.5-0x8ddd>
    30ab:	45 84 ff             	test   r15b,r15b
    30ae:	0f 85 9b f2 ff ff    	jne    234f <__progname@@GLIBC_2.2.5-0x8d51>
    30b4:	ba 05 00 00 00       	mov    edx,0x5
    30b9:	48 8d 35 58 48 00 00 	lea    rsi,[rip+0x4858]        # 7918 <__progname@@GLIBC_2.2.5-0x3788>
    30c0:	e9 53 f2 ff ff       	jmp    2318 <__progname@@GLIBC_2.2.5-0x8d88>
    30c5:	ba 05 00 00 00       	mov    edx,0x5
    30ca:	48 8d 35 07 47 00 00 	lea    rsi,[rip+0x4707]        # 77d8 <__progname@@GLIBC_2.2.5-0x38c8>
    30d1:	e9 42 f2 ff ff       	jmp    2318 <__progname@@GLIBC_2.2.5-0x8d88>
    30d6:	ff 15 84 7e 00 00    	call   QWORD PTR [rip+0x7e84]        # af60 <__stack_chk_fail@GLIBC_2.4>
    30dc:	ba 05 00 00 00       	mov    edx,0x5
    30e1:	48 8d 35 e8 47 00 00 	lea    rsi,[rip+0x47e8]        # 78d0 <__progname@@GLIBC_2.2.5-0x37d0>
    30e8:	e9 2b f2 ff ff       	jmp    2318 <__progname@@GLIBC_2.2.5-0x8d88>
    30ed:	0f 1f 00             	nop    DWORD PTR [rax]
    30f0:	f3 0f 1e fa          	endbr64 
    30f4:	31 ed                	xor    ebp,ebp
    30f6:	49 89 d1             	mov    r9,rdx
    30f9:	5e                   	pop    rsi
    30fa:	48 89 e2             	mov    rdx,rsp
    30fd:	48 83 e4 f0          	and    rsp,0xfffffffffffffff0
    3101:	50                   	push   rax
    3102:	54                   	push   rsp
    3103:	4c 8d 05 e6 3a 00 00 	lea    r8,[rip+0x3ae6]        # 6bf0 <__progname@@GLIBC_2.2.5-0x44b0>
    310a:	48 8d 0d 6f 3a 00 00 	lea    rcx,[rip+0x3a6f]        # 6b80 <__progname@@GLIBC_2.2.5-0x4520>
    3111:	48 8d 3d 28 ef ff ff 	lea    rdi,[rip+0xffffffffffffef28]        # 2040 <__progname@@GLIBC_2.2.5-0x9060>
    3118:	ff 15 62 7d 00 00    	call   QWORD PTR [rip+0x7d62]        # ae80 <__libc_start_main@GLIBC_2.2.5>
    311e:	f4                   	hlt    
    311f:	90                   	nop
    3120:	48 8d 3d 79 7f 00 00 	lea    rdi,[rip+0x7f79]        # b0a0 <__progname@@GLIBC_2.2.5>
    3127:	48 8d 05 72 7f 00 00 	lea    rax,[rip+0x7f72]        # b0a0 <__progname@@GLIBC_2.2.5>
    312e:	48 39 f8             	cmp    rax,rdi
    3131:	74 15                	je     3148 <__progname@@GLIBC_2.2.5-0x7f58>
    3133:	48 8b 05 6e 7d 00 00 	mov    rax,QWORD PTR [rip+0x7d6e]        # aea8 <_ITM_deregisterTMCloneTable>
    313a:	48 85 c0             	test   rax,rax
    313d:	74 09                	je     3148 <__progname@@GLIBC_2.2.5-0x7f58>
    313f:	ff e0                	jmp    rax
    3141:	0f 1f 80 00 00 00 00 	nop    DWORD PTR [rax+0x0]
    3148:	c3                   	ret    
    3149:	0f 1f 80 00 00 00 00 	nop    DWORD PTR [rax+0x0]
    3150:	48 8d 3d 49 7f 00 00 	lea    rdi,[rip+0x7f49]        # b0a0 <__progname@@GLIBC_2.2.5>
    3157:	48 8d 35 42 7f 00 00 	lea    rsi,[rip+0x7f42]        # b0a0 <__progname@@GLIBC_2.2.5>
    315e:	48 29 fe             	sub    rsi,rdi
    3161:	48 c1 fe 03          	sar    rsi,0x3
    3165:	48 89 f0             	mov    rax,rsi
    3168:	48 c1 e8 3f          	shr    rax,0x3f
    316c:	48 01 c6             	add    rsi,rax
    316f:	48 d1 fe             	sar    rsi,1
    3172:	74 14                	je     3188 <__progname@@GLIBC_2.2.5-0x7f18>
    3174:	48 8b 05 4d 7d 00 00 	mov    rax,QWORD PTR [rip+0x7d4d]        # aec8 <_ITM_registerTMCloneTable>
    317b:	48 85 c0             	test   rax,rax
    317e:	74 08                	je     3188 <__progname@@GLIBC_2.2.5-0x7f18>
    3180:	ff e0                	jmp    rax
    3182:	66 0f 1f 44 00 00    	nop    WORD PTR [rax+rax*1+0x0]
    3188:	c3                   	ret    
    3189:	0f 1f 80 00 00 00 00 	nop    DWORD PTR [rax+0x0]
    3190:	f3 0f 1e fa          	endbr64 
    3194:	80 3d 55 7f 00 00 00 	cmp    BYTE PTR [rip+0x7f55],0x0        # b0f0 <stdout@@GLIBC_2.2.5+0x8>
    319b:	75 33                	jne    31d0 <__progname@@GLIBC_2.2.5-0x7ed0>
    319d:	55                   	push   rbp
    319e:	48 83 3d 4a 7d 00 00 	cmp    QWORD PTR [rip+0x7d4a],0x0        # aef0 <__cxa_finalize@GLIBC_2.2.5>
    31a5:	00 
    31a6:	48 89 e5             	mov    rbp,rsp
    31a9:	74 0d                	je     31b8 <__progname@@GLIBC_2.2.5-0x7ee8>
    31ab:	48 8b 3d 56 7e 00 00 	mov    rdi,QWORD PTR [rip+0x7e56]        # b008 <__progname@@GLIBC_2.2.5-0x98>
    31b2:	ff 15 38 7d 00 00    	call   QWORD PTR [rip+0x7d38]        # aef0 <__cxa_finalize@GLIBC_2.2.5>
    31b8:	e8 63 ff ff ff       	call   3120 <__progname@@GLIBC_2.2.5-0x7f80>
    31bd:	c6 05 2c 7f 00 00 01 	mov    BYTE PTR [rip+0x7f2c],0x1        # b0f0 <stdout@@GLIBC_2.2.5+0x8>
    31c4:	5d                   	pop    rbp
    31c5:	c3                   	ret    
    31c6:	66 2e 0f 1f 84 00 00 	nop    WORD PTR cs:[rax+rax*1+0x0]
    31cd:	00 00 00 
    31d0:	c3                   	ret    
    31d1:	66 66 2e 0f 1f 84 00 	data16 nop WORD PTR cs:[rax+rax*1+0x0]
    31d8:	00 00 00 00 
    31dc:	0f 1f 40 00          	nop    DWORD PTR [rax+0x0]
    31e0:	f3 0f 1e fa          	endbr64 
    31e4:	e9 67 ff ff ff       	jmp    3150 <__progname@@GLIBC_2.2.5-0x7f50>
    31e9:	0f 1f 80 00 00 00 00 	nop    DWORD PTR [rax+0x0]
    31f0:	55                   	push   rbp
    31f1:	53                   	push   rbx
    31f2:	48 89 fb             	mov    rbx,rdi
    31f5:	48 83 ec 08          	sub    rsp,0x8
    31f9:	48 8b 2d 00 7f 00 00 	mov    rbp,QWORD PTR [rip+0x7f00]        # b100 <stdout@@GLIBC_2.2.5+0x18>
    3200:	48 85 ed             	test   rbp,rbp
    3203:	74 3b                	je     3240 <__progname@@GLIBC_2.2.5-0x7e60>
    3205:	ff 15 dd 7c 00 00    	call   QWORD PTR [rip+0x7cdd]        # aee8 <__ctype_b_loc@GLIBC_2.3>
    320b:	48 8b 08             	mov    rcx,QWORD PTR [rax]
    320e:	31 c0                	xor    eax,eax
    3210:	eb 15                	jmp    3227 <__progname@@GLIBC_2.2.5-0x7e79>
    3212:	66 0f 1f 44 00 00    	nop    WORD PTR [rax+rax*1+0x0]
    3218:	8d 50 01             	lea    edx,[rax+0x1]
    321b:	48 83 c3 01          	add    rbx,0x1
    321f:	48 89 d0             	mov    rax,rdx
    3222:	48 39 ea             	cmp    rdx,rbp
    3225:	73 19                	jae    3240 <__progname@@GLIBC_2.2.5-0x7e60>
    3227:	0f b6 13             	movzx  edx,BYTE PTR [rbx]
    322a:	f6 44 51 01 10       	test   BYTE PTR [rcx+rdx*2+0x1],0x10
    322f:	75 e7                	jne    3218 <__progname@@GLIBC_2.2.5-0x7e88>
    3231:	48 83 c4 08          	add    rsp,0x8
    3235:	31 c0                	xor    eax,eax
    3237:	5b                   	pop    rbx
    3238:	5d                   	pop    rbp
    3239:	c3                   	ret    
    323a:	66 0f 1f 44 00 00    	nop    WORD PTR [rax+rax*1+0x0]
    3240:	80 3b 00             	cmp    BYTE PTR [rbx],0x0
    3243:	0f 94 c0             	sete   al
    3246:	48 83 c4 08          	add    rsp,0x8
    324a:	5b                   	pop    rbx
    324b:	5d                   	pop    rbp
    324c:	c3                   	ret    
    324d:	0f 1f 00             	nop    DWORD PTR [rax]
    3250:	48 8d 47 01          	lea    rax,[rdi+0x1]
    3254:	31 d2                	xor    edx,edx
    3256:	4c 8d 46 ff          	lea    r8,[rsi-0x1]
    325a:	48 85 f6             	test   rsi,rsi
    325d:	74 50                	je     32af <__progname@@GLIBC_2.2.5-0x7df1>
    325f:	0f b6 0c 17          	movzx  ecx,BYTE PTR [rdi+rdx*1]
    3263:	84 c9                	test   cl,cl
    3265:	74 1c                	je     3283 <__progname@@GLIBC_2.2.5-0x7e1d>
    3267:	80 f9 5c             	cmp    cl,0x5c
    326a:	75 24                	jne    3290 <__progname@@GLIBC_2.2.5-0x7e10>
    326c:	49 39 d0             	cmp    r8,rdx
    326f:	74 12                	je     3283 <__progname@@GLIBC_2.2.5-0x7e1d>
    3271:	48 83 c2 01          	add    rdx,0x1
    3275:	0f b6 0c 17          	movzx  ecx,BYTE PTR [rdi+rdx*1]
    3279:	80 f9 5c             	cmp    cl,0x5c
    327c:	74 4a                	je     32c8 <__progname@@GLIBC_2.2.5-0x7dd8>
    327e:	80 f9 6e             	cmp    cl,0x6e
    3281:	74 35                	je     32b8 <__progname@@GLIBC_2.2.5-0x7de8>
    3283:	31 c0                	xor    eax,eax
    3285:	c3                   	ret    
    3286:	66 2e 0f 1f 84 00 00 	nop    WORD PTR cs:[rax+rax*1+0x0]
    328d:	00 00 00 
    3290:	88 48 ff             	mov    BYTE PTR [rax-0x1],cl
    3293:	49 89 c1             	mov    r9,rax
    3296:	48 83 c2 01          	add    rdx,0x1
    329a:	48 83 c0 01          	add    rax,0x1
    329e:	48 39 d6             	cmp    rsi,rdx
    32a1:	77 bc                	ja     325f <__progname@@GLIBC_2.2.5-0x7e41>
    32a3:	48 01 fe             	add    rsi,rdi
    32a6:	49 39 f1             	cmp    r9,rsi
    32a9:	73 04                	jae    32af <__progname@@GLIBC_2.2.5-0x7df1>
    32ab:	41 c6 01 00          	mov    BYTE PTR [r9],0x0
    32af:	48 89 f8             	mov    rax,rdi
    32b2:	c3                   	ret    
    32b3:	0f 1f 44 00 00       	nop    DWORD PTR [rax+rax*1+0x0]
    32b8:	49 89 c1             	mov    r9,rax
    32bb:	c6 40 ff 0a          	mov    BYTE PTR [rax-0x1],0xa
    32bf:	eb d5                	jmp    3296 <__progname@@GLIBC_2.2.5-0x7e0a>
    32c1:	0f 1f 80 00 00 00 00 	nop    DWORD PTR [rax+0x0]
    32c8:	49 89 c1             	mov    r9,rax
    32cb:	c6 40 ff 5c          	mov    BYTE PTR [rax-0x1],0x5c
    32cf:	eb c5                	jmp    3296 <__progname@@GLIBC_2.2.5-0x7e0a>
    32d1:	66 66 2e 0f 1f 84 00 	data16 nop WORD PTR cs:[rax+rax*1+0x0]
    32d8:	00 00 00 00 
    32dc:	0f 1f 40 00          	nop    DWORD PTR [rax+0x0]
    32e0:	55                   	push   rbp
    32e1:	53                   	push   rbx
    32e2:	48 89 fb             	mov    rbx,rdi
    32e5:	48 83 ec 08          	sub    rsp,0x8
    32e9:	40 84 f6             	test   sil,sil
    32ec:	0f 84 a6 00 00 00    	je     3398 <__progname@@GLIBC_2.2.5-0x7d08>
    32f2:	0f b6 37             	movzx  esi,BYTE PTR [rdi]
    32f5:	48 8d 2d 08 3d 00 00 	lea    rbp,[rip+0x3d08]        # 7004 <__progname@@GLIBC_2.2.5-0x409c>
    32fc:	40 84 f6             	test   sil,sil
    32ff:	75 28                	jne    3329 <__progname@@GLIBC_2.2.5-0x7d77>
    3301:	eb 5c                	jmp    335f <__progname@@GLIBC_2.2.5-0x7d41>
    3303:	0f 1f 44 00 00       	nop    DWORD PTR [rax+rax*1+0x0]
    3308:	48 8b 41 28          	mov    rax,QWORD PTR [rcx+0x28]
    330c:	48 3b 41 30          	cmp    rax,QWORD PTR [rcx+0x30]
    3310:	73 76                	jae    3388 <__progname@@GLIBC_2.2.5-0x7d18>
    3312:	48 8d 50 01          	lea    rdx,[rax+0x1]
    3316:	48 89 51 28          	mov    QWORD PTR [rcx+0x28],rdx
    331a:	40 88 30             	mov    BYTE PTR [rax],sil
    331d:	48 83 c3 01          	add    rbx,0x1
    3321:	0f b6 33             	movzx  esi,BYTE PTR [rbx]
    3324:	40 84 f6             	test   sil,sil
    3327:	74 36                	je     335f <__progname@@GLIBC_2.2.5-0x7d41>
    3329:	48 8b 0d b8 7d 00 00 	mov    rcx,QWORD PTR [rip+0x7db8]        # b0e8 <stdout@@GLIBC_2.2.5>
    3330:	40 80 fe 0a          	cmp    sil,0xa
    3334:	74 3a                	je     3370 <__progname@@GLIBC_2.2.5-0x7d30>
    3336:	40 80 fe 5c          	cmp    sil,0x5c
    333a:	75 cc                	jne    3308 <__progname@@GLIBC_2.2.5-0x7d98>
    333c:	48 83 c3 01          	add    rbx,0x1
    3340:	be 01 00 00 00       	mov    esi,0x1
    3345:	ba 02 00 00 00       	mov    edx,0x2
    334a:	48 8d 3d b6 3c 00 00 	lea    rdi,[rip+0x3cb6]        # 7007 <__progname@@GLIBC_2.2.5-0x4099>
    3351:	ff 15 c1 7b 00 00    	call   QWORD PTR [rip+0x7bc1]        # af18 <fwrite_unlocked@GLIBC_2.2.5>
    3357:	0f b6 33             	movzx  esi,BYTE PTR [rbx]
    335a:	40 84 f6             	test   sil,sil
    335d:	75 ca                	jne    3329 <__progname@@GLIBC_2.2.5-0x7d77>
    335f:	48 83 c4 08          	add    rsp,0x8
    3363:	5b                   	pop    rbx
    3364:	5d                   	pop    rbp
    3365:	c3                   	ret    
    3366:	66 2e 0f 1f 84 00 00 	nop    WORD PTR cs:[rax+rax*1+0x0]
    336d:	00 00 00 
    3370:	ba 02 00 00 00       	mov    edx,0x2
    3375:	be 01 00 00 00       	mov    esi,0x1
    337a:	48 89 ef             	mov    rdi,rbp
    337d:	ff 15 95 7b 00 00    	call   QWORD PTR [rip+0x7b95]        # af18 <fwrite_unlocked@GLIBC_2.2.5>
    3383:	eb 98                	jmp    331d <__progname@@GLIBC_2.2.5-0x7d83>
    3385:	0f 1f 00             	nop    DWORD PTR [rax]
    3388:	48 89 cf             	mov    rdi,rcx
    338b:	ff 15 df 7b 00 00    	call   QWORD PTR [rip+0x7bdf]        # af70 <__overflow@GLIBC_2.2.5>
    3391:	eb 8a                	jmp    331d <__progname@@GLIBC_2.2.5-0x7d83>
    3393:	0f 1f 44 00 00       	nop    DWORD PTR [rax+rax*1+0x0]
    3398:	48 8b 35 49 7d 00 00 	mov    rsi,QWORD PTR [rip+0x7d49]        # b0e8 <stdout@@GLIBC_2.2.5>
    339f:	48 83 c4 08          	add    rsp,0x8
    33a3:	5b                   	pop    rbx
    33a4:	5d                   	pop    rbp
    33a5:	ff 25 2d 7b 00 00    	jmp    QWORD PTR [rip+0x7b2d]        # aed8 <fputs_unlocked@GLIBC_2.2.5>
    33ab:	0f 1f 44 00 00       	nop    DWORD PTR [rax+rax*1+0x0]
    33b0:	41 55                	push   r13
    33b2:	b9 02 00 00 00       	mov    ecx,0x2
    33b7:	41 54                	push   r12
    33b9:	49 89 f4             	mov    r12,rsi
    33bc:	55                   	push   rbp
    33bd:	48 89 fd             	mov    rbp,rdi
    33c0:	48 8d 3d 43 48 00 00 	lea    rdi,[rip+0x4843]        # 7c0a <__progname@@GLIBC_2.2.5-0x3496>
    33c7:	53                   	push   rbx
    33c8:	48 89 ee             	mov    rsi,rbp
    33cb:	48 83 ec 08          	sub    rsp,0x8
    33cf:	f3 a6                	repz cmps BYTE PTR ds:[rsi],BYTE PTR es:[rdi]
    33d1:	c6 02 00             	mov    BYTE PTR [rdx],0x0
    33d4:	0f 97 c0             	seta   al
    33d7:	1c 00                	sbb    al,0x0
    33d9:	84 c0                	test   al,al
    33db:	75 4b                	jne    3428 <__progname@@GLIBC_2.2.5-0x7c78>
    33dd:	48 8b 1d dc 7c 00 00 	mov    rbx,QWORD PTR [rip+0x7cdc]        # b0c0 <stdin@@GLIBC_2.2.5>
    33e4:	be 02 00 00 00       	mov    esi,0x2
    33e9:	c6 05 20 7d 00 00 01 	mov    BYTE PTR [rip+0x7d20],0x1        # b110 <stdout@@GLIBC_2.2.5+0x28>
    33f0:	48 89 df             	mov    rdi,rbx
    33f3:	67 e8 17 0a 00 00    	addr32 call 3e10 <__progname@@GLIBC_2.2.5-0x7290>
    33f9:	4c 89 e6             	mov    rsi,r12
    33fc:	48 89 df             	mov    rdi,rbx
    33ff:	67 e8 bb 09 00 00    	addr32 call 3dc0 <__progname@@GLIBC_2.2.5-0x72e0>
    3405:	85 c0                	test   eax,eax
    3407:	0f 85 a3 00 00 00    	jne    34b0 <__progname@@GLIBC_2.2.5-0x7bf0>
    340d:	41 bc 01 00 00 00    	mov    r12d,0x1
    3413:	48 83 c4 08          	add    rsp,0x8
    3417:	44 89 e0             	mov    eax,r12d
    341a:	5b                   	pop    rbx
    341b:	5d                   	pop    rbp
    341c:	41 5c                	pop    r12
    341e:	41 5d                	pop    r13
    3420:	c3                   	ret    
    3421:	0f 1f 80 00 00 00 00 	nop    DWORD PTR [rax+0x0]
    3428:	49 89 d5             	mov    r13,rdx
    342b:	48 8d 35 aa 3c 00 00 	lea    rsi,[rip+0x3caa]        # 70dc <__progname@@GLIBC_2.2.5-0x3fc4>
    3432:	48 89 ef             	mov    rdi,rbp
    3435:	67 e8 05 0a 00 00    	addr32 call 3e40 <__progname@@GLIBC_2.2.5-0x7260>
    343b:	48 89 c3             	mov    rbx,rax
    343e:	48 85 c0             	test   rax,rax
    3441:	0f 84 b9 00 00 00    	je     3500 <__progname@@GLIBC_2.2.5-0x7ba0>
    3447:	be 02 00 00 00       	mov    esi,0x2
    344c:	48 89 c7             	mov    rdi,rax
    344f:	67 e8 bb 09 00 00    	addr32 call 3e10 <__progname@@GLIBC_2.2.5-0x7290>
    3455:	4c 89 e6             	mov    rsi,r12
    3458:	48 89 df             	mov    rdi,rbx
    345b:	67 e8 5f 09 00 00    	addr32 call 3dc0 <__progname@@GLIBC_2.2.5-0x72e0>
    3461:	85 c0                	test   eax,eax
    3463:	75 4b                	jne    34b0 <__progname@@GLIBC_2.2.5-0x7bf0>
    3465:	48 89 df             	mov    rdi,rbx
    3468:	67 e8 b2 31 00 00    	addr32 call 6620 <__progname@@GLIBC_2.2.5-0x4a80>
    346e:	85 c0                	test   eax,eax
    3470:	74 9b                	je     340d <__progname@@GLIBC_2.2.5-0x7c93>
    3472:	48 89 ea             	mov    rdx,rbp
    3475:	be 03 00 00 00       	mov    esi,0x3
    347a:	31 ff                	xor    edi,edi
    347c:	45 31 e4             	xor    r12d,r12d
    347f:	67 e8 9b 26 00 00    	addr32 call 5b20 <__progname@@GLIBC_2.2.5-0x5580>
    3485:	48 89 c3             	mov    rbx,rax
    3488:	ff 15 c2 7a 00 00    	call   QWORD PTR [rip+0x7ac2]        # af50 <__errno_location@GLIBC_2.2.5>
    348e:	48 89 d9             	mov    rcx,rbx
    3491:	48 8d 15 2d 47 00 00 	lea    rdx,[rip+0x472d]        # 7bc5 <__progname@@GLIBC_2.2.5-0x34db>
    3498:	31 ff                	xor    edi,edi
    349a:	8b 30                	mov    esi,DWORD PTR [rax]
    349c:	31 c0                	xor    eax,eax
    349e:	ff 15 2c 7b 00 00    	call   QWORD PTR [rip+0x7b2c]        # afd0 <error@GLIBC_2.2.5>
    34a4:	e9 6a ff ff ff       	jmp    3413 <__progname@@GLIBC_2.2.5-0x7c8d>
    34a9:	0f 1f 80 00 00 00 00 	nop    DWORD PTR [rax+0x0]
    34b0:	48 89 ea             	mov    rdx,rbp
    34b3:	31 ff                	xor    edi,edi
    34b5:	be 03 00 00 00       	mov    esi,0x3
    34ba:	45 31 e4             	xor    r12d,r12d
    34bd:	67 e8 5d 26 00 00    	addr32 call 5b20 <__progname@@GLIBC_2.2.5-0x5580>
    34c3:	48 89 c5             	mov    rbp,rax
    34c6:	ff 15 84 7a 00 00    	call   QWORD PTR [rip+0x7a84]        # af50 <__errno_location@GLIBC_2.2.5>
    34cc:	31 ff                	xor    edi,edi
    34ce:	48 89 e9             	mov    rcx,rbp
    34d1:	48 8d 15 ed 46 00 00 	lea    rdx,[rip+0x46ed]        # 7bc5 <__progname@@GLIBC_2.2.5-0x34db>
    34d8:	8b 30                	mov    esi,DWORD PTR [rax]
    34da:	31 c0                	xor    eax,eax
    34dc:	ff 15 ee 7a 00 00    	call   QWORD PTR [rip+0x7aee]        # afd0 <error@GLIBC_2.2.5>
    34e2:	48 39 1d d7 7b 00 00 	cmp    QWORD PTR [rip+0x7bd7],rbx        # b0c0 <stdin@@GLIBC_2.2.5>
    34e9:	0f 84 24 ff ff ff    	je     3413 <__progname@@GLIBC_2.2.5-0x7c8d>
    34ef:	48 89 df             	mov    rdi,rbx
    34f2:	67 e8 28 31 00 00    	addr32 call 6620 <__progname@@GLIBC_2.2.5-0x4a80>
    34f8:	e9 16 ff ff ff       	jmp    3413 <__progname@@GLIBC_2.2.5-0x7c8d>
    34fd:	0f 1f 00             	nop    DWORD PTR [rax]
    3500:	ff 15 4a 7a 00 00    	call   QWORD PTR [rip+0x7a4a]        # af50 <__errno_location@GLIBC_2.2.5>
    3506:	44 0f b6 25 ec 7b 00 	movzx  r12d,BYTE PTR [rip+0x7bec]        # b0fa <stdout@@GLIBC_2.2.5+0x12>
    350d:	00 
    350e:	48 89 c3             	mov    rbx,rax
    3511:	45 84 e4             	test   r12b,r12b
    3514:	74 05                	je     351b <__progname@@GLIBC_2.2.5-0x7b85>
    3516:	83 38 02             	cmp    DWORD PTR [rax],0x2
    3519:	74 35                	je     3550 <__progname@@GLIBC_2.2.5-0x7b50>
    351b:	48 89 ea             	mov    rdx,rbp
    351e:	be 03 00 00 00       	mov    esi,0x3
    3523:	31 ff                	xor    edi,edi
    3525:	45 31 e4             	xor    r12d,r12d
    3528:	67 e8 f2 25 00 00    	addr32 call 5b20 <__progname@@GLIBC_2.2.5-0x5580>
    352e:	48 8d 15 90 46 00 00 	lea    rdx,[rip+0x4690]        # 7bc5 <__progname@@GLIBC_2.2.5-0x34db>
    3535:	8b 33                	mov    esi,DWORD PTR [rbx]
    3537:	31 ff                	xor    edi,edi
    3539:	48 89 c1             	mov    rcx,rax
    353c:	31 c0                	xor    eax,eax
    353e:	ff 15 8c 7a 00 00    	call   QWORD PTR [rip+0x7a8c]        # afd0 <error@GLIBC_2.2.5>
    3544:	e9 ca fe ff ff       	jmp    3413 <__progname@@GLIBC_2.2.5-0x7c8d>
    3549:	0f 1f 80 00 00 00 00 	nop    DWORD PTR [rax+0x0]
    3550:	41 c6 45 00 01       	mov    BYTE PTR [r13+0x0],0x1
    3555:	e9 b9 fe ff ff       	jmp    3413 <__progname@@GLIBC_2.2.5-0x7c8d>
    355a:	66 0f 1f 44 00 00    	nop    WORD PTR [rax+rax*1+0x0]
    3560:	41 55                	push   r13
    3562:	ba 05 00 00 00       	mov    edx,0x5
    3567:	41 54                	push   r12
    3569:	55                   	push   rbp
    356a:	53                   	push   rbx
    356b:	89 fb                	mov    ebx,edi
    356d:	48 81 ec 88 00 00 00 	sub    rsp,0x88
    3574:	48 8b 2d ad 7b 00 00 	mov    rbp,QWORD PTR [rip+0x7bad]        # b128 <stdout@@GLIBC_2.2.5+0x40>
    357b:	64 48 8b 04 25 28 00 	mov    rax,QWORD PTR fs:0x28
    3582:	00 00 
    3584:	48 89 44 24 78       	mov    QWORD PTR [rsp+0x78],rax
    3589:	31 c0                	xor    eax,eax
    358b:	85 ff                	test   edi,edi
    358d:	74 31                	je     35c0 <__progname@@GLIBC_2.2.5-0x7ae0>
    358f:	48 8d 35 3a 3c 00 00 	lea    rsi,[rip+0x3c3a]        # 71d0 <__progname@@GLIBC_2.2.5-0x3ed0>
    3596:	31 ff                	xor    edi,edi
    3598:	ff 15 ba 79 00 00    	call   QWORD PTR [rip+0x79ba]        # af58 <dcgettext@GLIBC_2.2.5>
    359e:	48 89 e9             	mov    rcx,rbp
    35a1:	be 01 00 00 00       	mov    esi,0x1
    35a6:	48 8b 3d 33 7b 00 00 	mov    rdi,QWORD PTR [rip+0x7b33]        # b0e0 <stderr@@GLIBC_2.2.5>
    35ad:	48 89 c2             	mov    rdx,rax
    35b0:	31 c0                	xor    eax,eax
    35b2:	ff 15 78 78 00 00    	call   QWORD PTR [rip+0x7878]        # ae30 <__fprintf_chk@GLIBC_2.3.4>
    35b8:	89 df                	mov    edi,ebx
    35ba:	ff 15 88 78 00 00    	call   QWORD PTR [rip+0x7888]        # ae48 <exit@GLIBC_2.2.5>
    35c0:	31 ff                	xor    edi,edi
    35c2:	48 8d 35 2f 3c 00 00 	lea    rsi,[rip+0x3c2f]        # 71f8 <__progname@@GLIBC_2.2.5-0x3ea8>
    35c9:	ff 15 89 79 00 00    	call   QWORD PTR [rip+0x7989]        # af58 <dcgettext@GLIBC_2.2.5>
    35cf:	48 8d 0d 3e 3a 00 00 	lea    rcx,[rip+0x3a3e]        # 7014 <__progname@@GLIBC_2.2.5-0x408c>
    35d6:	41 b8 00 01 00 00    	mov    r8d,0x100
    35dc:	48 89 ea             	mov    rdx,rbp
    35df:	48 89 c6             	mov    rsi,rax
    35e2:	bf 01 00 00 00       	mov    edi,0x1
    35e7:	31 c0                	xor    eax,eax
    35e9:	ff 15 61 78 00 00    	call   QWORD PTR [rip+0x7861]        # ae50 <__printf_chk@GLIBC_2.3.4>
    35ef:	48 8b 2d f2 7a 00 00 	mov    rbp,QWORD PTR [rip+0x7af2]        # b0e8 <stdout@@GLIBC_2.2.5>
    35f6:	31 ff                	xor    edi,edi
    35f8:	ba 05 00 00 00       	mov    edx,0x5
    35fd:	48 8d 35 3c 3c 00 00 	lea    rsi,[rip+0x3c3c]        # 7240 <__progname@@GLIBC_2.2.5-0x3e60>
    3604:	ff 15 4e 79 00 00    	call   QWORD PTR [rip+0x794e]        # af58 <dcgettext@GLIBC_2.2.5>
    360a:	48 89 ee             	mov    rsi,rbp
    360d:	48 89 c7             	mov    rdi,rax
    3610:	ff 15 c2 78 00 00    	call   QWORD PTR [rip+0x78c2]        # aed8 <fputs_unlocked@GLIBC_2.2.5>
    3616:	48 8b 2d cb 7a 00 00 	mov    rbp,QWORD PTR [rip+0x7acb]        # b0e8 <stdout@@GLIBC_2.2.5>
    361d:	31 ff                	xor    edi,edi
    361f:	ba 05 00 00 00       	mov    edx,0x5
    3624:	48 8d 35 4d 3c 00 00 	lea    rsi,[rip+0x3c4d]        # 7278 <__progname@@GLIBC_2.2.5-0x3e28>
    362b:	ff 15 27 79 00 00    	call   QWORD PTR [rip+0x7927]        # af58 <dcgettext@GLIBC_2.2.5>
    3631:	48 89 ee             	mov    rsi,rbp
    3634:	48 89 c7             	mov    rdi,rax
    3637:	ff 15 9b 78 00 00    	call   QWORD PTR [rip+0x789b]        # aed8 <fputs_unlocked@GLIBC_2.2.5>
    363d:	31 ff                	xor    edi,edi
    363f:	ba 05 00 00 00       	mov    edx,0x5
    3644:	48 8d 35 5d 3c 00 00 	lea    rsi,[rip+0x3c5d]        # 72a8 <__progname@@GLIBC_2.2.5-0x3df8>
    364b:	ff 15 07 79 00 00    	call   QWORD PTR [rip+0x7907]        # af58 <dcgettext@GLIBC_2.2.5>
    3651:	48 8d 15 bc 39 00 00 	lea    rdx,[rip+0x39bc]        # 7014 <__progname@@GLIBC_2.2.5-0x408c>
    3658:	bf 01 00 00 00       	mov    edi,0x1
    365d:	48 89 c6             	mov    rsi,rax
    3660:	31 c0                	xor    eax,eax
    3662:	ff 15 e8 77 00 00    	call   QWORD PTR [rip+0x77e8]        # ae50 <__printf_chk@GLIBC_2.3.4>
    3668:	48 8b 2d 79 7a 00 00 	mov    rbp,QWORD PTR [rip+0x7a79]        # b0e8 <stdout@@GLIBC_2.2.5>
    366f:	31 ff                	xor    edi,edi
    3671:	ba 05 00 00 00       	mov    edx,0x5
    3676:	48 8d 35 73 3c 00 00 	lea    rsi,[rip+0x3c73]        # 72f0 <__progname@@GLIBC_2.2.5-0x3db0>
    367d:	ff 15 d5 78 00 00    	call   QWORD PTR [rip+0x78d5]        # af58 <dcgettext@GLIBC_2.2.5>
    3683:	48 89 ee             	mov    rsi,rbp
    3686:	48 89 c7             	mov    rdi,rax
    3689:	ff 15 49 78 00 00    	call   QWORD PTR [rip+0x7849]        # aed8 <fputs_unlocked@GLIBC_2.2.5>
    368f:	48 8b 2d 52 7a 00 00 	mov    rbp,QWORD PTR [rip+0x7a52]        # b0e8 <stdout@@GLIBC_2.2.5>
    3696:	31 ff                	xor    edi,edi
    3698:	ba 05 00 00 00       	mov    edx,0x5
    369d:	48 8d 35 84 3c 00 00 	lea    rsi,[rip+0x3c84]        # 7328 <__progname@@GLIBC_2.2.5-0x3d78>
    36a4:	ff 15 ae 78 00 00    	call   QWORD PTR [rip+0x78ae]        # af58 <dcgettext@GLIBC_2.2.5>
    36aa:	48 89 ee             	mov    rsi,rbp
    36ad:	48 89 c7             	mov    rdi,rax
    36b0:	ff 15 22 78 00 00    	call   QWORD PTR [rip+0x7822]        # aed8 <fputs_unlocked@GLIBC_2.2.5>
    36b6:	48 8b 2d 2b 7a 00 00 	mov    rbp,QWORD PTR [rip+0x7a2b]        # b0e8 <stdout@@GLIBC_2.2.5>
    36bd:	31 ff                	xor    edi,edi
    36bf:	ba 05 00 00 00       	mov    edx,0x5
    36c4:	48 8d 35 95 3c 00 00 	lea    rsi,[rip+0x3c95]        # 7360 <__progname@@GLIBC_2.2.5-0x3d40>
    36cb:	ff 15 87 78 00 00    	call   QWORD PTR [rip+0x7887]        # af58 <dcgettext@GLIBC_2.2.5>
    36d1:	48 89 ee             	mov    rsi,rbp
    36d4:	48 89 c7             	mov    rdi,rax
    36d7:	ff 15 fb 77 00 00    	call   QWORD PTR [rip+0x77fb]        # aed8 <fputs_unlocked@GLIBC_2.2.5>
    36dd:	48 8b 2d 04 7a 00 00 	mov    rbp,QWORD PTR [rip+0x7a04]        # b0e8 <stdout@@GLIBC_2.2.5>
    36e4:	31 ff                	xor    edi,edi
    36e6:	ba 05 00 00 00       	mov    edx,0x5
    36eb:	48 8d 35 ee 3c 00 00 	lea    rsi,[rip+0x3cee]        # 73e0 <__progname@@GLIBC_2.2.5-0x3cc0>
    36f2:	ff 15 60 78 00 00    	call   QWORD PTR [rip+0x7860]        # af58 <dcgettext@GLIBC_2.2.5>
    36f8:	48 89 ee             	mov    rsi,rbp
    36fb:	48 89 c7             	mov    rdi,rax
    36fe:	ff 15 d4 77 00 00    	call   QWORD PTR [rip+0x77d4]        # aed8 <fputs_unlocked@GLIBC_2.2.5>
    3704:	48 8b 2d dd 79 00 00 	mov    rbp,QWORD PTR [rip+0x79dd]        # b0e8 <stdout@@GLIBC_2.2.5>
    370b:	31 ff                	xor    edi,edi
    370d:	ba 05 00 00 00       	mov    edx,0x5
    3712:	48 8d 35 7f 3e 00 00 	lea    rsi,[rip+0x3e7f]        # 7598 <__progname@@GLIBC_2.2.5-0x3b08>
    3719:	ff 15 39 78 00 00    	call   QWORD PTR [rip+0x7839]        # af58 <dcgettext@GLIBC_2.2.5>
    371f:	48 89 ee             	mov    rsi,rbp
    3722:	48 89 c7             	mov    rdi,rax
    3725:	ff 15 ad 77 00 00    	call   QWORD PTR [rip+0x77ad]        # aed8 <fputs_unlocked@GLIBC_2.2.5>
    372b:	48 8b 2d b6 79 00 00 	mov    rbp,QWORD PTR [rip+0x79b6]        # b0e8 <stdout@@GLIBC_2.2.5>
    3732:	31 ff                	xor    edi,edi
    3734:	ba 05 00 00 00       	mov    edx,0x5
    3739:	48 8d 35 88 3e 00 00 	lea    rsi,[rip+0x3e88]        # 75c8 <__progname@@GLIBC_2.2.5-0x3ad8>
    3740:	ff 15 12 78 00 00    	call   QWORD PTR [rip+0x7812]        # af58 <dcgettext@GLIBC_2.2.5>
    3746:	48 89 ee             	mov    rsi,rbp
    3749:	48 8d 2d ba 38 00 00 	lea    rbp,[rip+0x38ba]        # 700a <__progname@@GLIBC_2.2.5-0x4096>
    3750:	48 89 c7             	mov    rdi,rax
    3753:	ff 15 7f 77 00 00    	call   QWORD PTR [rip+0x777f]        # aed8 <fputs_unlocked@GLIBC_2.2.5>
    3759:	31 ff                	xor    edi,edi
    375b:	ba 05 00 00 00       	mov    edx,0x5
    3760:	48 8d 35 99 3e 00 00 	lea    rsi,[rip+0x3e99]        # 7600 <__progname@@GLIBC_2.2.5-0x3aa0>
    3767:	ff 15 eb 77 00 00    	call   QWORD PTR [rip+0x77eb]        # af58 <dcgettext@GLIBC_2.2.5>
    376d:	48 8d 15 a7 38 00 00 	lea    rdx,[rip+0x38a7]        # 701b <__progname@@GLIBC_2.2.5-0x4085>
    3774:	bf 01 00 00 00       	mov    edi,0x1
    3779:	48 89 c6             	mov    rsi,rax
    377c:	31 c0                	xor    eax,eax
    377e:	ff 15 cc 76 00 00    	call   QWORD PTR [rip+0x76cc]        # ae50 <__printf_chk@GLIBC_2.3.4>
    3784:	48 8d 05 9b 38 00 00 	lea    rax,[rip+0x389b]        # 7026 <__progname@@GLIBC_2.2.5-0x407a>
    378b:	48 89 6c 24 30       	mov    QWORD PTR [rsp+0x30],rbp
    3790:	48 8d 0d d0 38 00 00 	lea    rcx,[rip+0x38d0]        # 7067 <__progname@@GLIBC_2.2.5-0x4039>
    3797:	48 89 04 24          	mov    QWORD PTR [rsp],rax
    379b:	48 8d 05 86 38 00 00 	lea    rax,[rip+0x3886]        # 7028 <__progname@@GLIBC_2.2.5-0x4078>
    37a2:	48 89 44 24 08       	mov    QWORD PTR [rsp+0x8],rax
    37a7:	48 8d 05 e8 38 00 00 	lea    rax,[rip+0x38e8]        # 7096 <__progname@@GLIBC_2.2.5-0x400a>
    37ae:	48 89 44 24 10       	mov    QWORD PTR [rsp+0x10],rax
    37b3:	48 8d 05 7e 38 00 00 	lea    rax,[rip+0x387e]        # 7038 <__progname@@GLIBC_2.2.5-0x4068>
    37ba:	48 89 4c 24 40       	mov    QWORD PTR [rsp+0x40],rcx
    37bf:	48 8d 0d ab 38 00 00 	lea    rcx,[rip+0x38ab]        # 7071 <__progname@@GLIBC_2.2.5-0x402f>
    37c6:	48 89 44 24 18       	mov    QWORD PTR [rsp+0x18],rax
    37cb:	48 8d 05 7c 38 00 00 	lea    rax,[rip+0x387c]        # 704e <__progname@@GLIBC_2.2.5-0x4052>
    37d2:	48 89 4c 24 50       	mov    QWORD PTR [rsp+0x50],rcx
    37d7:	48 c7 44 24 60 00 00 	mov    QWORD PTR [rsp+0x60],0x0
    37de:	00 00 
    37e0:	48 c7 44 24 68 00 00 	mov    QWORD PTR [rsp+0x68],0x0
    37e7:	00 00 
    37e9:	48 89 44 24 20       	mov    QWORD PTR [rsp+0x20],rax
    37ee:	48 8d 05 63 38 00 00 	lea    rax,[rip+0x3863]        # 7058 <__progname@@GLIBC_2.2.5-0x4048>
    37f5:	48 89 44 24 28       	mov    QWORD PTR [rsp+0x28],rax
    37fa:	48 89 44 24 38       	mov    QWORD PTR [rsp+0x38],rax
    37ff:	48 89 44 24 48       	mov    QWORD PTR [rsp+0x48],rax
    3804:	48 89 44 24 58       	mov    QWORD PTR [rsp+0x58],rax
    3809:	48 89 e0             	mov    rax,rsp
    380c:	0f 1f 40 00          	nop    DWORD PTR [rax+0x0]
    3810:	48 83 c0 10          	add    rax,0x10
    3814:	48 8b 38             	mov    rdi,QWORD PTR [rax]
    3817:	48 85 ff             	test   rdi,rdi
    381a:	74 14                	je     3830 <__progname@@GLIBC_2.2.5-0x7870>
    381c:	b9 0a 00 00 00       	mov    ecx,0xa
    3821:	48 89 ee             	mov    rsi,rbp
    3824:	f3 a6                	repz cmps BYTE PTR ds:[rsi],BYTE PTR es:[rdi]
    3826:	0f 97 c2             	seta   dl
    3829:	80 da 00             	sbb    dl,0x0
    382c:	84 d2                	test   dl,dl
    382e:	75 e0                	jne    3810 <__progname@@GLIBC_2.2.5-0x7890>
    3830:	4c 8b 60 08          	mov    r12,QWORD PTR [rax+0x8]
    3834:	ba 05 00 00 00       	mov    edx,0x5
    3839:	48 8d 35 3b 38 00 00 	lea    rsi,[rip+0x383b]        # 707b <__progname@@GLIBC_2.2.5-0x4025>
    3840:	31 ff                	xor    edi,edi
    3842:	4d 85 e4             	test   r12,r12
    3845:	0f 84 c9 00 00 00    	je     3914 <__progname@@GLIBC_2.2.5-0x778c>
    384b:	ff 15 07 77 00 00    	call   QWORD PTR [rip+0x7707]        # af58 <dcgettext@GLIBC_2.2.5>
    3851:	bf 01 00 00 00       	mov    edi,0x1
    3856:	48 8d 0d d3 3e 00 00 	lea    rcx,[rip+0x3ed3]        # 7730 <__progname@@GLIBC_2.2.5-0x3970>
    385d:	48 8d 15 2e 38 00 00 	lea    rdx,[rip+0x382e]        # 7092 <__progname@@GLIBC_2.2.5-0x400e>
    3864:	48 89 c6             	mov    rsi,rax
    3867:	31 c0                	xor    eax,eax
    3869:	ff 15 e1 75 00 00    	call   QWORD PTR [rip+0x75e1]        # ae50 <__printf_chk@GLIBC_2.3.4>
    386f:	31 f6                	xor    esi,esi
    3871:	bf 05 00 00 00       	mov    edi,0x5
    3876:	ff 15 4c 77 00 00    	call   QWORD PTR [rip+0x774c]        # afc8 <setlocale@GLIBC_2.2.5>
    387c:	48 85 c0             	test   rax,rax
    387f:	74 1d                	je     389e <__progname@@GLIBC_2.2.5-0x7802>
    3881:	ba 03 00 00 00       	mov    edx,0x3
    3886:	48 8d 35 13 38 00 00 	lea    rsi,[rip+0x3813]        # 70a0 <__progname@@GLIBC_2.2.5-0x4000>
    388d:	48 89 c7             	mov    rdi,rax
    3890:	ff 15 d2 75 00 00    	call   QWORD PTR [rip+0x75d2]        # ae68 <strncmp@GLIBC_2.2.5>
    3896:	85 c0                	test   eax,eax
    3898:	0f 85 11 01 00 00    	jne    39af <__progname@@GLIBC_2.2.5-0x76f1>
    389e:	31 ff                	xor    edi,edi
    38a0:	ba 05 00 00 00       	mov    edx,0x5
    38a5:	48 8d 35 f8 37 00 00 	lea    rsi,[rip+0x37f8]        # 70a4 <__progname@@GLIBC_2.2.5-0x3ffc>
    38ac:	ff 15 a6 76 00 00    	call   QWORD PTR [rip+0x76a6]        # af58 <dcgettext@GLIBC_2.2.5>
    38b2:	48 8d 0d 51 37 00 00 	lea    rcx,[rip+0x3751]        # 700a <__progname@@GLIBC_2.2.5-0x4096>
    38b9:	bf 01 00 00 00       	mov    edi,0x1
    38be:	48 8d 15 6b 3e 00 00 	lea    rdx,[rip+0x3e6b]        # 7730 <__progname@@GLIBC_2.2.5-0x3970>
    38c5:	48 89 c6             	mov    rsi,rax
    38c8:	31 c0                	xor    eax,eax
    38ca:	ff 15 80 75 00 00    	call   QWORD PTR [rip+0x7580]        # ae50 <__printf_chk@GLIBC_2.3.4>
    38d0:	49 39 ec             	cmp    r12,rbp
    38d3:	48 8d 0d 47 4a 00 00 	lea    rcx,[rip+0x4a47]        # 8321 <__progname@@GLIBC_2.2.5-0x2d7f>
    38da:	48 8d 2d 61 37 00 00 	lea    rbp,[rip+0x3761]        # 7042 <__progname@@GLIBC_2.2.5-0x405e>
    38e1:	48 0f 45 e9          	cmovne rbp,rcx
    38e5:	31 ff                	xor    edi,edi
    38e7:	48 8d 35 b2 3e 00 00 	lea    rsi,[rip+0x3eb2]        # 77a0 <__progname@@GLIBC_2.2.5-0x3900>
    38ee:	ba 05 00 00 00       	mov    edx,0x5
    38f3:	ff 15 5f 76 00 00    	call   QWORD PTR [rip+0x765f]        # af58 <dcgettext@GLIBC_2.2.5>
    38f9:	48 89 e9             	mov    rcx,rbp
    38fc:	4c 89 e2             	mov    rdx,r12
    38ff:	bf 01 00 00 00       	mov    edi,0x1
    3904:	48 89 c6             	mov    rsi,rax
    3907:	31 c0                	xor    eax,eax
    3909:	ff 15 41 75 00 00    	call   QWORD PTR [rip+0x7541]        # ae50 <__printf_chk@GLIBC_2.3.4>
    390f:	e9 a4 fc ff ff       	jmp    35b8 <__progname@@GLIBC_2.2.5-0x7ae8>
    3914:	ff 15 3e 76 00 00    	call   QWORD PTR [rip+0x763e]        # af58 <dcgettext@GLIBC_2.2.5>
    391a:	bf 01 00 00 00       	mov    edi,0x1
    391f:	48 8d 0d 0a 3e 00 00 	lea    rcx,[rip+0x3e0a]        # 7730 <__progname@@GLIBC_2.2.5-0x3970>
    3926:	48 8d 15 65 37 00 00 	lea    rdx,[rip+0x3765]        # 7092 <__progname@@GLIBC_2.2.5-0x400e>
    392d:	48 89 c6             	mov    rsi,rax
    3930:	31 c0                	xor    eax,eax
    3932:	ff 15 18 75 00 00    	call   QWORD PTR [rip+0x7518]        # ae50 <__printf_chk@GLIBC_2.3.4>
    3938:	31 f6                	xor    esi,esi
    393a:	bf 05 00 00 00       	mov    edi,0x5
    393f:	ff 15 83 76 00 00    	call   QWORD PTR [rip+0x7683]        # afc8 <setlocale@GLIBC_2.2.5>
    3945:	48 85 c0             	test   rax,rax
    3948:	74 19                	je     3963 <__progname@@GLIBC_2.2.5-0x773d>
    394a:	ba 03 00 00 00       	mov    edx,0x3
    394f:	48 8d 35 4a 37 00 00 	lea    rsi,[rip+0x374a]        # 70a0 <__progname@@GLIBC_2.2.5-0x4000>
    3956:	48 89 c7             	mov    rdi,rax
    3959:	ff 15 09 75 00 00    	call   QWORD PTR [rip+0x7509]        # ae68 <strncmp@GLIBC_2.2.5>
    395f:	85 c0                	test   eax,eax
    3961:	75 45                	jne    39a8 <__progname@@GLIBC_2.2.5-0x76f8>
    3963:	ba 05 00 00 00       	mov    edx,0x5
    3968:	48 8d 35 35 37 00 00 	lea    rsi,[rip+0x3735]        # 70a4 <__progname@@GLIBC_2.2.5-0x3ffc>
    396f:	31 ff                	xor    edi,edi
    3971:	ff 15 e1 75 00 00    	call   QWORD PTR [rip+0x75e1]        # af58 <dcgettext@GLIBC_2.2.5>
    3977:	4c 8d 25 8c 36 00 00 	lea    r12,[rip+0x368c]        # 700a <__progname@@GLIBC_2.2.5-0x4096>
    397e:	48 8d 0d 85 36 00 00 	lea    rcx,[rip+0x3685]        # 700a <__progname@@GLIBC_2.2.5-0x4096>
    3985:	bf 01 00 00 00       	mov    edi,0x1
    398a:	48 89 c6             	mov    rsi,rax
    398d:	48 8d 15 9c 3d 00 00 	lea    rdx,[rip+0x3d9c]        # 7730 <__progname@@GLIBC_2.2.5-0x3970>
    3994:	31 c0                	xor    eax,eax
    3996:	ff 15 b4 74 00 00    	call   QWORD PTR [rip+0x74b4]        # ae50 <__printf_chk@GLIBC_2.3.4>
    399c:	48 8d 2d 9f 36 00 00 	lea    rbp,[rip+0x369f]        # 7042 <__progname@@GLIBC_2.2.5-0x405e>
    39a3:	e9 3d ff ff ff       	jmp    38e5 <__progname@@GLIBC_2.2.5-0x77bb>
    39a8:	4c 8d 25 5b 36 00 00 	lea    r12,[rip+0x365b]        # 700a <__progname@@GLIBC_2.2.5-0x4096>
    39af:	4c 8b 2d 32 77 00 00 	mov    r13,QWORD PTR [rip+0x7732]        # b0e8 <stdout@@GLIBC_2.2.5>
    39b6:	31 ff                	xor    edi,edi
    39b8:	ba 05 00 00 00       	mov    edx,0x5
    39bd:	48 8d 35 94 3d 00 00 	lea    rsi,[rip+0x3d94]        # 7758 <__progname@@GLIBC_2.2.5-0x3948>
    39c4:	ff 15 8e 75 00 00    	call   QWORD PTR [rip+0x758e]        # af58 <dcgettext@GLIBC_2.2.5>
    39ca:	48 89 c7             	mov    rdi,rax
    39cd:	4c 89 ee             	mov    rsi,r13
    39d0:	ff 15 02 75 00 00    	call   QWORD PTR [rip+0x7502]        # aed8 <fputs_unlocked@GLIBC_2.2.5>
    39d6:	e9 c3 fe ff ff       	jmp    389e <__progname@@GLIBC_2.2.5-0x7802>
    39db:	0f 1f 44 00 00       	nop    DWORD PTR [rax+rax*1+0x0]
    39e0:	48 89 3d 39 77 00 00 	mov    QWORD PTR [rip+0x7739],rdi        # b120 <stdout@@GLIBC_2.2.5+0x38>
    39e7:	c3                   	ret    
    39e8:	0f 1f 84 00 00 00 00 	nop    DWORD PTR [rax+rax*1+0x0]
    39ef:	00 
    39f0:	40 88 3d 21 77 00 00 	mov    BYTE PTR [rip+0x7721],dil        # b118 <stdout@@GLIBC_2.2.5+0x30>
    39f7:	c3                   	ret    
    39f8:	0f 1f 84 00 00 00 00 	nop    DWORD PTR [rax+rax*1+0x0]
    39ff:	00 
    3a00:	55                   	push   rbp
    3a01:	53                   	push   rbx
    3a02:	48 83 ec 08          	sub    rsp,0x8
    3a06:	48 8b 3d db 76 00 00 	mov    rdi,QWORD PTR [rip+0x76db]        # b0e8 <stdout@@GLIBC_2.2.5>
    3a0d:	67 e8 5d 30 00 00    	addr32 call 6a70 <__progname@@GLIBC_2.2.5-0x4630>
    3a13:	85 c0                	test   eax,eax
    3a15:	74 17                	je     3a2e <__progname@@GLIBC_2.2.5-0x7672>
    3a17:	ff 15 33 75 00 00    	call   QWORD PTR [rip+0x7533]        # af50 <__errno_location@GLIBC_2.2.5>
    3a1d:	80 3d f4 76 00 00 00 	cmp    BYTE PTR [rip+0x76f4],0x0        # b118 <stdout@@GLIBC_2.2.5+0x30>
    3a24:	48 89 c3             	mov    rbx,rax
    3a27:	74 1d                	je     3a46 <__progname@@GLIBC_2.2.5-0x765a>
    3a29:	83 38 20             	cmp    DWORD PTR [rax],0x20
    3a2c:	75 18                	jne    3a46 <__progname@@GLIBC_2.2.5-0x765a>
    3a2e:	48 8b 3d ab 76 00 00 	mov    rdi,QWORD PTR [rip+0x76ab]        # b0e0 <stderr@@GLIBC_2.2.5>
    3a35:	67 e8 35 30 00 00    	addr32 call 6a70 <__progname@@GLIBC_2.2.5-0x4630>
    3a3b:	85 c0                	test   eax,eax
    3a3d:	75 49                	jne    3a88 <__progname@@GLIBC_2.2.5-0x7618>
    3a3f:	48 83 c4 08          	add    rsp,0x8
    3a43:	5b                   	pop    rbx
    3a44:	5d                   	pop    rbp
    3a45:	c3                   	ret    
    3a46:	31 ff                	xor    edi,edi
    3a48:	ba 05 00 00 00       	mov    edx,0x5
    3a4d:	48 8d 35 61 41 00 00 	lea    rsi,[rip+0x4161]        # 7bb5 <__progname@@GLIBC_2.2.5-0x34eb>
    3a54:	ff 15 fe 74 00 00    	call   QWORD PTR [rip+0x74fe]        # af58 <dcgettext@GLIBC_2.2.5>
    3a5a:	48 8b 3d bf 76 00 00 	mov    rdi,QWORD PTR [rip+0x76bf]        # b120 <stdout@@GLIBC_2.2.5+0x38>
    3a61:	48 89 c5             	mov    rbp,rax
    3a64:	48 85 ff             	test   rdi,rdi
    3a67:	74 2b                	je     3a94 <__progname@@GLIBC_2.2.5-0x760c>
    3a69:	67 e8 81 20 00 00    	addr32 call 5af0 <__progname@@GLIBC_2.2.5-0x55b0>
    3a6f:	49 89 e8             	mov    r8,rbp
    3a72:	8b 33                	mov    esi,DWORD PTR [rbx]
    3a74:	31 ff                	xor    edi,edi
    3a76:	48 89 c1             	mov    rcx,rax
    3a79:	48 8d 15 41 41 00 00 	lea    rdx,[rip+0x4141]        # 7bc1 <__progname@@GLIBC_2.2.5-0x34df>
    3a80:	31 c0                	xor    eax,eax
    3a82:	ff 15 48 75 00 00    	call   QWORD PTR [rip+0x7548]        # afd0 <error@GLIBC_2.2.5>
    3a88:	8b 3d 92 75 00 00    	mov    edi,DWORD PTR [rip+0x7592]        # b020 <__progname@@GLIBC_2.2.5-0x80>
    3a8e:	ff 15 fc 73 00 00    	call   QWORD PTR [rip+0x73fc]        # ae90 <_exit@GLIBC_2.2.5>
    3a94:	48 89 c1             	mov    rcx,rax
    3a97:	48 8d 15 27 41 00 00 	lea    rdx,[rip+0x4127]        # 7bc5 <__progname@@GLIBC_2.2.5-0x34db>
    3a9e:	8b 33                	mov    esi,DWORD PTR [rbx]
    3aa0:	31 ff                	xor    edi,edi
    3aa2:	31 c0                	xor    eax,eax
    3aa4:	ff 15 26 75 00 00    	call   QWORD PTR [rip+0x7526]        # afd0 <error@GLIBC_2.2.5>
    3aaa:	eb dc                	jmp    3a88 <__progname@@GLIBC_2.2.5-0x7618>
    3aac:	0f 1f 40 00          	nop    DWORD PTR [rax+0x0]
    3ab0:	ff 25 d2 73 00 00    	jmp    QWORD PTR [rip+0x73d2]        # ae88 <SHA224_Init@OPENSSL_1_1_0>
    3ab6:	66 2e 0f 1f 84 00 00 	nop    WORD PTR cs:[rax+rax*1+0x0]
    3abd:	00 00 00 
    3ac0:	53                   	push   rbx
    3ac1:	48 89 f3             	mov    rbx,rsi
    3ac4:	48 89 fe             	mov    rsi,rdi
    3ac7:	48 89 df             	mov    rdi,rbx
    3aca:	ff 15 d0 74 00 00    	call   QWORD PTR [rip+0x74d0]        # afa0 <SHA224_Final@OPENSSL_1_1_0>
    3ad0:	48 89 d8             	mov    rax,rbx
    3ad3:	5b                   	pop    rbx
    3ad4:	c3                   	ret    
    3ad5:	66 66 2e 0f 1f 84 00 	data16 nop WORD PTR cs:[rax+rax*1+0x0]
    3adc:	00 00 00 00 
    3ae0:	ff 25 ca 74 00 00    	jmp    QWORD PTR [rip+0x74ca]        # afb0 <SHA256_Init@OPENSSL_1_1_0>
    3ae6:	66 2e 0f 1f 84 00 00 	nop    WORD PTR cs:[rax+rax*1+0x0]
    3aed:	00 00 00 
    3af0:	53                   	push   rbx
    3af1:	48 89 f3             	mov    rbx,rsi
    3af4:	48 89 fe             	mov    rsi,rdi
    3af7:	48 89 df             	mov    rdi,rbx
    3afa:	ff 15 f8 73 00 00    	call   QWORD PTR [rip+0x73f8]        # aef8 <SHA256_Final@OPENSSL_1_1_0>
    3b00:	48 89 d8             	mov    rax,rbx
    3b03:	5b                   	pop    rbx
    3b04:	c3                   	ret    
    3b05:	66 66 2e 0f 1f 84 00 	data16 nop WORD PTR cs:[rax+rax*1+0x0]
    3b0c:	00 00 00 00 
    3b10:	41 57                	push   r15
    3b12:	41 56                	push   r14
    3b14:	49 89 ce             	mov    r14,rcx
    3b17:	41 55                	push   r13
    3b19:	41 54                	push   r12
    3b1b:	49 89 d4             	mov    r12,rdx
    3b1e:	55                   	push   rbp
    3b1f:	53                   	push   rbx
    3b20:	48 89 fb             	mov    rbx,rdi
    3b23:	bf 48 80 00 00       	mov    edi,0x8048
    3b28:	48 81 ec 98 00 00 00 	sub    rsp,0x98
    3b2f:	48 89 74 24 08       	mov    QWORD PTR [rsp+0x8],rsi
    3b34:	64 48 8b 04 25 28 00 	mov    rax,QWORD PTR fs:0x28
    3b3b:	00 00 
    3b3d:	48 89 84 24 88 00 00 	mov    QWORD PTR [rsp+0x88],rax
    3b44:	00 
    3b45:	31 c0                	xor    eax,eax
    3b47:	ff 15 23 73 00 00    	call   QWORD PTR [rip+0x7323]        # ae70 <malloc@GLIBC_2.2.5>
    3b4d:	48 85 c0             	test   rax,rax
    3b50:	0f 84 d2 00 00 00    	je     3c28 <__progname@@GLIBC_2.2.5-0x7478>
    3b56:	4c 8d 6c 24 10       	lea    r13,[rsp+0x10]
    3b5b:	48 89 c5             	mov    rbp,rax
    3b5e:	4c 89 ef             	mov    rdi,r13
    3b61:	41 ff d4             	call   r12
    3b64:	41 bc 00 80 00 00    	mov    r12d,0x8000
    3b6a:	45 31 ff             	xor    r15d,r15d
    3b6d:	eb 2b                	jmp    3b9a <__progname@@GLIBC_2.2.5-0x7506>
    3b6f:	90                   	nop
    3b70:	4c 89 e2             	mov    rdx,r12
    3b73:	4a 8d 7c 3d 00       	lea    rdi,[rbp+r15*1+0x0]
    3b78:	48 89 d9             	mov    rcx,rbx
    3b7b:	be 01 00 00 00       	mov    esi,0x1
    3b80:	4c 29 fa             	sub    rdx,r15
    3b83:	ff 15 2f 73 00 00    	call   QWORD PTR [rip+0x732f]        # aeb8 <fread_unlocked@GLIBC_2.2.5>
    3b89:	49 01 c7             	add    r15,rax
    3b8c:	49 81 ff 00 80 00 00 	cmp    r15,0x8000
    3b93:	74 63                	je     3bf8 <__progname@@GLIBC_2.2.5-0x74a8>
    3b95:	48 85 c0             	test   rax,rax
    3b98:	74 74                	je     3c0e <__progname@@GLIBC_2.2.5-0x7492>
    3b9a:	f6 03 10             	test   BYTE PTR [rbx],0x10
    3b9d:	74 d1                	je     3b70 <__progname@@GLIBC_2.2.5-0x7530>
    3b9f:	4d 85 ff             	test   r15,r15
    3ba2:	75 3c                	jne    3be0 <__progname@@GLIBC_2.2.5-0x74c0>
    3ba4:	48 8b 74 24 08       	mov    rsi,QWORD PTR [rsp+0x8]
    3ba9:	4c 89 ef             	mov    rdi,r13
    3bac:	41 ff d6             	call   r14
    3baf:	48 89 ef             	mov    rdi,rbp
    3bb2:	ff 15 f8 72 00 00    	call   QWORD PTR [rip+0x72f8]        # aeb0 <free@GLIBC_2.2.5>
    3bb8:	31 c0                	xor    eax,eax
    3bba:	48 8b 8c 24 88 00 00 	mov    rcx,QWORD PTR [rsp+0x88]
    3bc1:	00 
    3bc2:	64 48 33 0c 25 28 00 	xor    rcx,QWORD PTR fs:0x28
    3bc9:	00 00 
    3bcb:	75 62                	jne    3c2f <__progname@@GLIBC_2.2.5-0x7471>
    3bcd:	48 81 c4 98 00 00 00 	add    rsp,0x98
    3bd4:	5b                   	pop    rbx
    3bd5:	5d                   	pop    rbp
    3bd6:	41 5c                	pop    r12
    3bd8:	41 5d                	pop    r13
    3bda:	41 5e                	pop    r14
    3bdc:	41 5f                	pop    r15
    3bde:	c3                   	ret    
    3bdf:	90                   	nop
    3be0:	4c 89 fa             	mov    rdx,r15
    3be3:	48 89 ee             	mov    rsi,rbp
    3be6:	4c 89 ef             	mov    rdi,r13
    3be9:	ff 15 b9 73 00 00    	call   QWORD PTR [rip+0x73b9]        # afa8 <SHA256_Update@OPENSSL_1_1_0>
    3bef:	eb b3                	jmp    3ba4 <__progname@@GLIBC_2.2.5-0x74fc>
    3bf1:	0f 1f 80 00 00 00 00 	nop    DWORD PTR [rax+0x0]
    3bf8:	ba 00 80 00 00       	mov    edx,0x8000
    3bfd:	48 89 ee             	mov    rsi,rbp
    3c00:	4c 89 ef             	mov    rdi,r13
    3c03:	ff 15 9f 73 00 00    	call   QWORD PTR [rip+0x739f]        # afa8 <SHA256_Update@OPENSSL_1_1_0>
    3c09:	e9 5c ff ff ff       	jmp    3b6a <__progname@@GLIBC_2.2.5-0x7536>
    3c0e:	f6 03 20             	test   BYTE PTR [rbx],0x20
    3c11:	74 8c                	je     3b9f <__progname@@GLIBC_2.2.5-0x7501>
    3c13:	48 89 ef             	mov    rdi,rbp
    3c16:	ff 15 94 72 00 00    	call   QWORD PTR [rip+0x7294]        # aeb0 <free@GLIBC_2.2.5>
    3c1c:	b8 01 00 00 00       	mov    eax,0x1
    3c21:	eb 97                	jmp    3bba <__progname@@GLIBC_2.2.5-0x74e6>
    3c23:	0f 1f 44 00 00       	nop    DWORD PTR [rax+rax*1+0x0]
    3c28:	b8 01 00 00 00       	mov    eax,0x1
    3c2d:	eb 8b                	jmp    3bba <__progname@@GLIBC_2.2.5-0x74e6>
    3c2f:	ff 15 2b 73 00 00    	call   QWORD PTR [rip+0x732b]        # af60 <__stack_chk_fail@GLIBC_2.4>
    3c35:	66 66 2e 0f 1f 84 00 	data16 nop WORD PTR cs:[rax+rax*1+0x0]
    3c3c:	00 00 00 00 
    3c40:	ff 25 ca 72 00 00    	jmp    QWORD PTR [rip+0x72ca]        # af10 <SHA224@OPENSSL_1_1_0>
    3c46:	66 2e 0f 1f 84 00 00 	nop    WORD PTR cs:[rax+rax*1+0x0]
    3c4d:	00 00 00 
    3c50:	53                   	push   rbx
    3c51:	48 89 f3             	mov    rbx,rsi
    3c54:	48 83 c4 80          	add    rsp,0xffffffffffffff80
    3c58:	f3 0f 6f 07          	movdqu xmm0,XMMWORD PTR [rdi]
    3c5c:	f3 0f 6f 4f 10       	movdqu xmm1,XMMWORD PTR [rdi+0x10]
    3c61:	f3 0f 6f 57 20       	movdqu xmm2,XMMWORD PTR [rdi+0x20]
    3c66:	f3 0f 6f 5f 30       	movdqu xmm3,XMMWORD PTR [rdi+0x30]
    3c6b:	48 89 e6             	mov    rsi,rsp
    3c6e:	64 48 8b 04 25 28 00 	mov    rax,QWORD PTR fs:0x28
    3c75:	00 00 
    3c77:	48 89 44 24 78       	mov    QWORD PTR [rsp+0x78],rax
    3c7c:	31 c0                	xor    eax,eax
    3c7e:	f3 0f 6f 67 40       	movdqu xmm4,XMMWORD PTR [rdi+0x40]
    3c83:	f3 0f 6f 6f 50       	movdqu xmm5,XMMWORD PTR [rdi+0x50]
    3c88:	0f 29 04 24          	movaps XMMWORD PTR [rsp],xmm0
    3c8c:	f3 0f 6f 77 60       	movdqu xmm6,XMMWORD PTR [rdi+0x60]
    3c91:	0f 29 4c 24 10       	movaps XMMWORD PTR [rsp+0x10],xmm1
    3c96:	48 89 df             	mov    rdi,rbx
    3c99:	0f 29 54 24 20       	movaps XMMWORD PTR [rsp+0x20],xmm2
    3c9e:	0f 29 5c 24 30       	movaps XMMWORD PTR [rsp+0x30],xmm3
    3ca3:	0f 29 64 24 40       	movaps XMMWORD PTR [rsp+0x40],xmm4
    3ca8:	0f 29 6c 24 50       	movaps XMMWORD PTR [rsp+0x50],xmm5
    3cad:	0f 29 74 24 60       	movaps XMMWORD PTR [rsp+0x60],xmm6
    3cb2:	ff 15 e8 72 00 00    	call   QWORD PTR [rip+0x72e8]        # afa0 <SHA224_Final@OPENSSL_1_1_0>
    3cb8:	48 8b 54 24 78       	mov    rdx,QWORD PTR [rsp+0x78]
    3cbd:	64 48 33 14 25 28 00 	xor    rdx,QWORD PTR fs:0x28
    3cc4:	00 00 
    3cc6:	75 09                	jne    3cd1 <__progname@@GLIBC_2.2.5-0x73cf>
    3cc8:	48 83 ec 80          	sub    rsp,0xffffffffffffff80
    3ccc:	48 89 d8             	mov    rax,rbx
    3ccf:	5b                   	pop    rbx
    3cd0:	c3                   	ret    
    3cd1:	ff 15 89 72 00 00    	call   QWORD PTR [rip+0x7289]        # af60 <__stack_chk_fail@GLIBC_2.4>
    3cd7:	66 0f 1f 84 00 00 00 	nop    WORD PTR [rax+rax*1+0x0]
    3cde:	00 00 
    3ce0:	48 89 f8             	mov    rax,rdi
    3ce3:	48 89 d7             	mov    rdi,rdx
    3ce6:	48 89 f2             	mov    rdx,rsi
    3ce9:	48 89 c6             	mov    rsi,rax
    3cec:	ff 25 b6 72 00 00    	jmp    QWORD PTR [rip+0x72b6]        # afa8 <SHA256_Update@OPENSSL_1_1_0>
    3cf2:	66 66 2e 0f 1f 84 00 	data16 nop WORD PTR cs:[rax+rax*1+0x0]
    3cf9:	00 00 00 00 
    3cfd:	0f 1f 00             	nop    DWORD PTR [rax]
    3d00:	48 89 f8             	mov    rax,rdi
    3d03:	48 89 d7             	mov    rdi,rdx
    3d06:	48 89 f2             	mov    rdx,rsi
    3d09:	48 89 c6             	mov    rsi,rax
    3d0c:	ff 25 96 72 00 00    	jmp    QWORD PTR [rip+0x7296]        # afa8 <SHA256_Update@OPENSSL_1_1_0>
    3d12:	66 66 2e 0f 1f 84 00 	data16 nop WORD PTR cs:[rax+rax*1+0x0]
    3d19:	00 00 00 00 
    3d1d:	0f 1f 00             	nop    DWORD PTR [rax]
    3d20:	ff 25 72 71 00 00    	jmp    QWORD PTR [rip+0x7172]        # ae98 <SHA256@OPENSSL_1_1_0>
    3d26:	66 2e 0f 1f 84 00 00 	nop    WORD PTR cs:[rax+rax*1+0x0]
    3d2d:	00 00 00 
    3d30:	53                   	push   rbx
    3d31:	48 89 f3             	mov    rbx,rsi
    3d34:	48 83 c4 80          	add    rsp,0xffffffffffffff80
    3d38:	f3 0f 6f 07          	movdqu xmm0,XMMWORD PTR [rdi]
    3d3c:	f3 0f 6f 4f 10       	movdqu xmm1,XMMWORD PTR [rdi+0x10]
    3d41:	f3 0f 6f 57 20       	movdqu xmm2,XMMWORD PTR [rdi+0x20]
    3d46:	f3 0f 6f 5f 30       	movdqu xmm3,XMMWORD PTR [rdi+0x30]
    3d4b:	48 89 e6             	mov    rsi,rsp
    3d4e:	64 48 8b 04 25 28 00 	mov    rax,QWORD PTR fs:0x28
    3d55:	00 00 
    3d57:	48 89 44 24 78       	mov    QWORD PTR [rsp+0x78],rax
    3d5c:	31 c0                	xor    eax,eax
    3d5e:	f3 0f 6f 67 40       	movdqu xmm4,XMMWORD PTR [rdi+0x40]
    3d63:	f3 0f 6f 6f 50       	movdqu xmm5,XMMWORD PTR [rdi+0x50]
    3d68:	0f 29 04 24          	movaps XMMWORD PTR [rsp],xmm0
    3d6c:	f3 0f 6f 77 60       	movdqu xmm6,XMMWORD PTR [rdi+0x60]
    3d71:	0f 29 4c 24 10       	movaps XMMWORD PTR [rsp+0x10],xmm1
    3d76:	48 89 df             	mov    rdi,rbx
    3d79:	0f 29 54 24 20       	movaps XMMWORD PTR [rsp+0x20],xmm2
    3d7e:	0f 29 5c 24 30       	movaps XMMWORD PTR [rsp+0x30],xmm3
    3d83:	0f 29 64 24 40       	movaps XMMWORD PTR [rsp+0x40],xmm4
    3d88:	0f 29 6c 24 50       	movaps XMMWORD PTR [rsp+0x50],xmm5
    3d8d:	0f 29 74 24 60       	movaps XMMWORD PTR [rsp+0x60],xmm6
    3d92:	ff 15 60 71 00 00    	call   QWORD PTR [rip+0x7160]        # aef8 <SHA256_Final@OPENSSL_1_1_0>
    3d98:	48 8b 54 24 78       	mov    rdx,QWORD PTR [rsp+0x78]
    3d9d:	64 48 33 14 25 28 00 	xor    rdx,QWORD PTR fs:0x28
    3da4:	00 00 
    3da6:	75 09                	jne    3db1 <__progname@@GLIBC_2.2.5-0x72ef>
    3da8:	48 83 ec 80          	sub    rsp,0xffffffffffffff80
    3dac:	48 89 d8             	mov    rax,rbx
    3daf:	5b                   	pop    rbx
    3db0:	c3                   	ret    
    3db1:	ff 15 a9 71 00 00    	call   QWORD PTR [rip+0x71a9]        # af60 <__stack_chk_fail@GLIBC_2.4>
    3db7:	66 0f 1f 84 00 00 00 	nop    WORD PTR [rax+rax*1+0x0]
    3dbe:	00 00 
    3dc0:	48 8d 0d 29 fd ff ff 	lea    rcx,[rip+0xfffffffffffffd29]        # 3af0 <__progname@@GLIBC_2.2.5-0x75b0>
    3dc7:	48 8d 15 12 fd ff ff 	lea    rdx,[rip+0xfffffffffffffd12]        # 3ae0 <__progname@@GLIBC_2.2.5-0x75c0>
    3dce:	e9 3d fd ff ff       	jmp    3b10 <__progname@@GLIBC_2.2.5-0x7590>
    3dd3:	66 66 2e 0f 1f 84 00 	data16 nop WORD PTR cs:[rax+rax*1+0x0]
    3dda:	00 00 00 00 
    3dde:	66 90                	xchg   ax,ax
    3de0:	48 8d 0d d9 fc ff ff 	lea    rcx,[rip+0xfffffffffffffcd9]        # 3ac0 <__progname@@GLIBC_2.2.5-0x75e0>
    3de7:	48 8d 15 c2 fc ff ff 	lea    rdx,[rip+0xfffffffffffffcc2]        # 3ab0 <__progname@@GLIBC_2.2.5-0x75f0>
    3dee:	e9 1d fd ff ff       	jmp    3b10 <__progname@@GLIBC_2.2.5-0x7590>
    3df3:	66 2e 0f 1f 84 00 00 	nop    WORD PTR cs:[rax+rax*1+0x0]
    3dfa:	00 00 00 
    3dfd:	0f 1f 00             	nop    DWORD PTR [rax]
    3e00:	ff 25 22 71 00 00    	jmp    QWORD PTR [rip+0x7122]        # af28 <posix_fadvise@GLIBC_2.2.5>
    3e06:	66 2e 0f 1f 84 00 00 	nop    WORD PTR cs:[rax+rax*1+0x0]
    3e0d:	00 00 00 
    3e10:	48 85 ff             	test   rdi,rdi
    3e13:	74 1b                	je     3e30 <__progname@@GLIBC_2.2.5-0x7270>
    3e15:	53                   	push   rbx
    3e16:	89 f3                	mov    ebx,esi
    3e18:	ff 15 d2 6f 00 00    	call   QWORD PTR [rip+0x6fd2]        # adf0 <fileno@GLIBC_2.2.5>
    3e1e:	89 d9                	mov    ecx,ebx
    3e20:	31 d2                	xor    edx,edx
    3e22:	31 f6                	xor    esi,esi
    3e24:	89 c7                	mov    edi,eax
    3e26:	5b                   	pop    rbx
    3e27:	ff 25 fb 70 00 00    	jmp    QWORD PTR [rip+0x70fb]        # af28 <posix_fadvise@GLIBC_2.2.5>
    3e2d:	0f 1f 00             	nop    DWORD PTR [rax]
    3e30:	c3                   	ret    
    3e31:	66 2e 0f 1f 84 00 00 	nop    WORD PTR cs:[rax+rax*1+0x0]
    3e38:	00 00 00 
    3e3b:	0f 1f 44 00 00       	nop    DWORD PTR [rax+rax*1+0x0]
    3e40:	41 54                	push   r12
    3e42:	55                   	push   rbp
    3e43:	48 89 f5             	mov    rbp,rsi
    3e46:	53                   	push   rbx
    3e47:	ff 15 2b 70 00 00    	call   QWORD PTR [rip+0x702b]        # ae78 <fopen@GLIBC_2.2.5>
    3e4d:	48 89 c3             	mov    rbx,rax
    3e50:	48 85 c0             	test   rax,rax
    3e53:	74 0e                	je     3e63 <__progname@@GLIBC_2.2.5-0x723d>
    3e55:	48 89 c7             	mov    rdi,rax
    3e58:	ff 15 92 6f 00 00    	call   QWORD PTR [rip+0x6f92]        # adf0 <fileno@GLIBC_2.2.5>
    3e5e:	83 f8 02             	cmp    eax,0x2
    3e61:	76 0d                	jbe    3e70 <__progname@@GLIBC_2.2.5-0x7230>
    3e63:	48 89 d8             	mov    rax,rbx
    3e66:	5b                   	pop    rbx
    3e67:	5d                   	pop    rbp
    3e68:	41 5c                	pop    r12
    3e6a:	c3                   	ret    
    3e6b:	0f 1f 44 00 00       	nop    DWORD PTR [rax+rax*1+0x0]
    3e70:	89 c7                	mov    edi,eax
    3e72:	67 e8 a8 1e 00 00    	addr32 call 5d20 <__progname@@GLIBC_2.2.5-0x5380>
    3e78:	41 89 c4             	mov    r12d,eax
    3e7b:	85 c0                	test   eax,eax
    3e7d:	78 41                	js     3ec0 <__progname@@GLIBC_2.2.5-0x71e0>
    3e7f:	48 89 df             	mov    rdi,rbx
    3e82:	67 e8 98 27 00 00    	addr32 call 6620 <__progname@@GLIBC_2.2.5-0x4a80>
    3e88:	85 c0                	test   eax,eax
    3e8a:	75 14                	jne    3ea0 <__progname@@GLIBC_2.2.5-0x7200>
    3e8c:	48 89 ee             	mov    rsi,rbp
    3e8f:	44 89 e7             	mov    edi,r12d
    3e92:	ff 15 68 70 00 00    	call   QWORD PTR [rip+0x7068]        # af00 <fdopen@GLIBC_2.2.5>
    3e98:	48 89 c3             	mov    rbx,rax
    3e9b:	48 85 c0             	test   rax,rax
    3e9e:	75 c3                	jne    3e63 <__progname@@GLIBC_2.2.5-0x723d>
    3ea0:	ff 15 aa 70 00 00    	call   QWORD PTR [rip+0x70aa]        # af50 <__errno_location@GLIBC_2.2.5>
    3ea6:	44 89 e7             	mov    edi,r12d
    3ea9:	8b 28                	mov    ebp,DWORD PTR [rax]
    3eab:	48 89 c3             	mov    rbx,rax
    3eae:	ff 15 64 6f 00 00    	call   QWORD PTR [rip+0x6f64]        # ae18 <close@GLIBC_2.2.5>
    3eb4:	89 2b                	mov    DWORD PTR [rbx],ebp
    3eb6:	31 db                	xor    ebx,ebx
    3eb8:	eb a9                	jmp    3e63 <__progname@@GLIBC_2.2.5-0x723d>
    3eba:	66 0f 1f 44 00 00    	nop    WORD PTR [rax+rax*1+0x0]
    3ec0:	ff 15 8a 70 00 00    	call   QWORD PTR [rip+0x708a]        # af50 <__errno_location@GLIBC_2.2.5>
    3ec6:	48 89 df             	mov    rdi,rbx
    3ec9:	31 db                	xor    ebx,ebx
    3ecb:	44 8b 20             	mov    r12d,DWORD PTR [rax]
    3ece:	48 89 c5             	mov    rbp,rax
    3ed1:	67 e8 49 27 00 00    	addr32 call 6620 <__progname@@GLIBC_2.2.5-0x4a80>
    3ed7:	44 89 65 00          	mov    DWORD PTR [rbp+0x0],r12d
    3edb:	eb 86                	jmp    3e63 <__progname@@GLIBC_2.2.5-0x723d>
    3edd:	0f 1f 00             	nop    DWORD PTR [rax]
    3ee0:	53                   	push   rbx
    3ee1:	48 85 ff             	test   rdi,rdi
    3ee4:	74 78                	je     3f5e <__progname@@GLIBC_2.2.5-0x7142>
    3ee6:	48 89 fb             	mov    rbx,rdi
    3ee9:	be 2f 00 00 00       	mov    esi,0x2f
    3eee:	ff 15 14 70 00 00    	call   QWORD PTR [rip+0x7014]        # af08 <strrchr@GLIBC_2.2.5>
    3ef4:	48 85 c0             	test   rax,rax
    3ef7:	74 55                	je     3f4e <__progname@@GLIBC_2.2.5-0x7152>
    3ef9:	4c 8d 40 01          	lea    r8,[rax+0x1]
    3efd:	4c 89 c2             	mov    rdx,r8
    3f00:	48 29 da             	sub    rdx,rbx
    3f03:	48 83 fa 06          	cmp    rdx,0x6
    3f07:	7e 45                	jle    3f4e <__progname@@GLIBC_2.2.5-0x7152>
    3f09:	48 8d 70 fa          	lea    rsi,[rax-0x6]
    3f0d:	b9 07 00 00 00       	mov    ecx,0x7
    3f12:	48 8d 3d e7 3c 00 00 	lea    rdi,[rip+0x3ce7]        # 7c00 <__progname@@GLIBC_2.2.5-0x34a0>
    3f19:	f3 a6                	repz cmps BYTE PTR ds:[rsi],BYTE PTR es:[rdi]
    3f1b:	0f 97 c2             	seta   dl
    3f1e:	80 da 00             	sbb    dl,0x0
    3f21:	84 d2                	test   dl,dl
    3f23:	75 29                	jne    3f4e <__progname@@GLIBC_2.2.5-0x7152>
    3f25:	b9 03 00 00 00       	mov    ecx,0x3
    3f2a:	48 8d 3d d7 3c 00 00 	lea    rdi,[rip+0x3cd7]        # 7c08 <__progname@@GLIBC_2.2.5-0x3498>
    3f31:	4c 89 c6             	mov    rsi,r8
    3f34:	4c 89 c3             	mov    rbx,r8
    3f37:	f3 a6                	repz cmps BYTE PTR ds:[rsi],BYTE PTR es:[rdi]
    3f39:	0f 97 c2             	seta   dl
    3f3c:	80 da 00             	sbb    dl,0x0
    3f3f:	84 d2                	test   dl,dl
    3f41:	75 0b                	jne    3f4e <__progname@@GLIBC_2.2.5-0x7152>
    3f43:	48 8d 58 04          	lea    rbx,[rax+0x4]
    3f47:	48 89 1d 52 71 00 00 	mov    QWORD PTR [rip+0x7152],rbx        # b0a0 <__progname@@GLIBC_2.2.5>
    3f4e:	48 89 1d d3 71 00 00 	mov    QWORD PTR [rip+0x71d3],rbx        # b128 <stdout@@GLIBC_2.2.5+0x40>
    3f55:	48 89 1d 4c 71 00 00 	mov    QWORD PTR [rip+0x714c],rbx        # b0a8 <__progname_full@@GLIBC_2.2.5>
    3f5c:	5b                   	pop    rbx
    3f5d:	c3                   	ret    
    3f5e:	48 8b 0d 7b 71 00 00 	mov    rcx,QWORD PTR [rip+0x717b]        # b0e0 <stderr@@GLIBC_2.2.5>
    3f65:	ba 37 00 00 00       	mov    edx,0x37
    3f6a:	be 01 00 00 00       	mov    esi,0x1
    3f6f:	48 8d 3d 52 3c 00 00 	lea    rdi,[rip+0x3c52]        # 7bc8 <__progname@@GLIBC_2.2.5-0x34d8>
    3f76:	ff 15 3c 70 00 00    	call   QWORD PTR [rip+0x703c]        # afb8 <fwrite@GLIBC_2.2.5>
    3f7c:	ff 15 9e 6e 00 00    	call   QWORD PTR [rip+0x6e9e]        # ae20 <abort@GLIBC_2.2.5>
    3f82:	66 2e 0f 1f 84 00 00 	nop    WORD PTR cs:[rax+rax*1+0x0]
    3f89:	00 00 00 
    3f8c:	0f 1f 40 00          	nop    DWORD PTR [rax+0x0]
    3f90:	41 54                	push   r12
    3f92:	ba 05 00 00 00       	mov    edx,0x5
    3f97:	41 89 f4             	mov    r12d,esi
    3f9a:	48 89 fe             	mov    rsi,rdi
    3f9d:	55                   	push   rbp
    3f9e:	48 89 fd             	mov    rbp,rdi
    3fa1:	31 ff                	xor    edi,edi
    3fa3:	53                   	push   rbx
    3fa4:	ff 15 ae 6f 00 00    	call   QWORD PTR [rip+0x6fae]        # af58 <dcgettext@GLIBC_2.2.5>
    3faa:	48 89 c3             	mov    rbx,rax
    3fad:	48 39 c5             	cmp    rbp,rax
    3fb0:	74 0e                	je     3fc0 <__progname@@GLIBC_2.2.5-0x70e0>
    3fb2:	48 89 d8             	mov    rax,rbx
    3fb5:	5b                   	pop    rbx
    3fb6:	5d                   	pop    rbp
    3fb7:	41 5c                	pop    r12
    3fb9:	c3                   	ret    
    3fba:	66 0f 1f 44 00 00    	nop    WORD PTR [rax+rax*1+0x0]
    3fc0:	67 e8 7a 2b 00 00    	addr32 call 6b40 <__progname@@GLIBC_2.2.5-0x4560>
    3fc6:	0f b6 10             	movzx  edx,BYTE PTR [rax]
    3fc9:	83 e2 df             	and    edx,0xffffffdf
    3fcc:	80 fa 55             	cmp    dl,0x55
    3fcf:	75 47                	jne    4018 <__progname@@GLIBC_2.2.5-0x7088>
    3fd1:	0f b6 50 01          	movzx  edx,BYTE PTR [rax+0x1]
    3fd5:	83 e2 df             	and    edx,0xffffffdf
    3fd8:	80 fa 54             	cmp    dl,0x54
    3fdb:	0f 85 7f 00 00 00    	jne    4060 <__progname@@GLIBC_2.2.5-0x7040>
    3fe1:	0f b6 50 02          	movzx  edx,BYTE PTR [rax+0x2]
    3fe5:	83 e2 df             	and    edx,0xffffffdf
    3fe8:	80 fa 46             	cmp    dl,0x46
    3feb:	75 73                	jne    4060 <__progname@@GLIBC_2.2.5-0x7040>
    3fed:	80 78 03 2d          	cmp    BYTE PTR [rax+0x3],0x2d
    3ff1:	75 6d                	jne    4060 <__progname@@GLIBC_2.2.5-0x7040>
    3ff3:	80 78 04 38          	cmp    BYTE PTR [rax+0x4],0x38
    3ff7:	75 67                	jne    4060 <__progname@@GLIBC_2.2.5-0x7040>
    3ff9:	80 78 05 00          	cmp    BYTE PTR [rax+0x5],0x0
    3ffd:	75 61                	jne    4060 <__progname@@GLIBC_2.2.5-0x7040>
    3fff:	80 3b 60             	cmp    BYTE PTR [rbx],0x60
    4002:	0f 84 78 00 00 00    	je     4080 <__progname@@GLIBC_2.2.5-0x7020>
    4008:	48 8d 1d ff 3b 00 00 	lea    rbx,[rip+0x3bff]        # 7c0e <__progname@@GLIBC_2.2.5-0x3492>
    400f:	eb a1                	jmp    3fb2 <__progname@@GLIBC_2.2.5-0x70ee>
    4011:	0f 1f 80 00 00 00 00 	nop    DWORD PTR [rax+0x0]
    4018:	80 fa 47             	cmp    dl,0x47
    401b:	75 43                	jne    4060 <__progname@@GLIBC_2.2.5-0x7040>
    401d:	0f b6 50 01          	movzx  edx,BYTE PTR [rax+0x1]
    4021:	83 e2 df             	and    edx,0xffffffdf
    4024:	80 fa 42             	cmp    dl,0x42
    4027:	75 37                	jne    4060 <__progname@@GLIBC_2.2.5-0x7040>
    4029:	80 78 02 31          	cmp    BYTE PTR [rax+0x2],0x31
    402d:	75 31                	jne    4060 <__progname@@GLIBC_2.2.5-0x7040>
    402f:	80 78 03 38          	cmp    BYTE PTR [rax+0x3],0x38
    4033:	75 2b                	jne    4060 <__progname@@GLIBC_2.2.5-0x7040>
    4035:	80 78 04 30          	cmp    BYTE PTR [rax+0x4],0x30
    4039:	75 25                	jne    4060 <__progname@@GLIBC_2.2.5-0x7040>
    403b:	80 78 05 33          	cmp    BYTE PTR [rax+0x5],0x33
    403f:	75 1f                	jne    4060 <__progname@@GLIBC_2.2.5-0x7040>
    4041:	80 78 06 30          	cmp    BYTE PTR [rax+0x6],0x30
    4045:	75 19                	jne    4060 <__progname@@GLIBC_2.2.5-0x7040>
    4047:	80 78 07 00          	cmp    BYTE PTR [rax+0x7],0x0
    404b:	75 13                	jne    4060 <__progname@@GLIBC_2.2.5-0x7040>
    404d:	80 3b 60             	cmp    BYTE PTR [rbx],0x60
    4050:	74 3e                	je     4090 <__progname@@GLIBC_2.2.5-0x7010>
    4052:	48 8d 1d b9 3b 00 00 	lea    rbx,[rip+0x3bb9]        # 7c12 <__progname@@GLIBC_2.2.5-0x348e>
    4059:	e9 54 ff ff ff       	jmp    3fb2 <__progname@@GLIBC_2.2.5-0x70ee>
    405e:	66 90                	xchg   ax,ax
    4060:	41 83 fc 09          	cmp    r12d,0x9
    4064:	48 8d 05 b2 3b 00 00 	lea    rax,[rip+0x3bb2]        # 7c1d <__progname@@GLIBC_2.2.5-0x3483>
    406b:	48 8d 1d 9a 3b 00 00 	lea    rbx,[rip+0x3b9a]        # 7c0c <__progname@@GLIBC_2.2.5-0x3494>
    4072:	48 0f 45 d8          	cmovne rbx,rax
    4076:	48 89 d8             	mov    rax,rbx
    4079:	5b                   	pop    rbx
    407a:	5d                   	pop    rbp
    407b:	41 5c                	pop    r12
    407d:	c3                   	ret    
    407e:	66 90                	xchg   ax,ax
    4080:	48 8d 1d 92 3b 00 00 	lea    rbx,[rip+0x3b92]        # 7c19 <__progname@@GLIBC_2.2.5-0x3487>
    4087:	e9 26 ff ff ff       	jmp    3fb2 <__progname@@GLIBC_2.2.5-0x70ee>
    408c:	0f 1f 40 00          	nop    DWORD PTR [rax+0x0]
    4090:	48 8d 1d 7e 3b 00 00 	lea    rbx,[rip+0x3b7e]        # 7c15 <__progname@@GLIBC_2.2.5-0x348b>
    4097:	e9 16 ff ff ff       	jmp    3fb2 <__progname@@GLIBC_2.2.5-0x70ee>
    409c:	0f 1f 40 00          	nop    DWORD PTR [rax+0x0]
    40a0:	41 57                	push   r15
    40a2:	41 56                	push   r14
    40a4:	49 89 fe             	mov    r14,rdi
    40a7:	41 55                	push   r13
    40a9:	41 54                	push   r12
    40ab:	49 89 f4             	mov    r12,rsi
    40ae:	55                   	push   rbp
    40af:	48 89 cd             	mov    rbp,rcx
    40b2:	53                   	push   rbx
    40b3:	44 89 cb             	mov    ebx,r9d
    40b6:	48 81 ec c8 00 00 00 	sub    rsp,0xc8
    40bd:	48 8b 84 24 00 01 00 	mov    rax,QWORD PTR [rsp+0x100]
    40c4:	00 
    40c5:	48 89 54 24 10       	mov    QWORD PTR [rsp+0x10],rdx
    40ca:	44 89 44 24 08       	mov    DWORD PTR [rsp+0x8],r8d
    40cf:	48 89 44 24 20       	mov    QWORD PTR [rsp+0x20],rax
    40d4:	48 8b 84 24 08 01 00 	mov    rax,QWORD PTR [rsp+0x108]
    40db:	00 
    40dc:	44 89 8c 24 88 00 00 	mov    DWORD PTR [rsp+0x88],r9d
    40e3:	00 
    40e4:	48 89 44 24 68       	mov    QWORD PTR [rsp+0x68],rax
    40e9:	48 8b 84 24 10 01 00 	mov    rax,QWORD PTR [rsp+0x110]
    40f0:	00 
    40f1:	48 89 44 24 60       	mov    QWORD PTR [rsp+0x60],rax
    40f6:	64 48 8b 04 25 28 00 	mov    rax,QWORD PTR fs:0x28
    40fd:	00 00 
    40ff:	48 89 84 24 b8 00 00 	mov    QWORD PTR [rsp+0xb8],rax
    4106:	00 
    4107:	31 c0                	xor    eax,eax
    4109:	ff 15 c1 6d 00 00    	call   QWORD PTR [rip+0x6dc1]        # aed0 <__ctype_get_mb_cur_max@GLIBC_2.2.5>
    410f:	44 8b 5c 24 08       	mov    r11d,DWORD PTR [rsp+0x8]
    4114:	83 e3 02             	and    ebx,0x2
    4117:	48 89 44 24 58       	mov    QWORD PTR [rsp+0x58],rax
    411c:	0f 95 44 24 43       	setne  BYTE PTR [rsp+0x43]
    4121:	41 83 fb 0a          	cmp    r11d,0xa
    4125:	0f 87 f5 de ff ff    	ja     2020 <__progname@@GLIBC_2.2.5-0x9080>
    412b:	48 8d 0d 4e 3b 00 00 	lea    rcx,[rip+0x3b4e]        # 7c80 <__progname@@GLIBC_2.2.5-0x3420>
    4132:	44 89 da             	mov    edx,r11d
    4135:	48 63 04 91          	movsxd rax,DWORD PTR [rcx+rdx*4]
    4139:	48 01 c8             	add    rax,rcx
    413c:	ff e0                	jmp    rax
    413e:	c6 44 24 42 01       	mov    BYTE PTR [rsp+0x42],0x1
    4143:	45 31 ed             	xor    r13d,r13d
    4146:	c6 84 24 8d 00 00 00 	mov    BYTE PTR [rsp+0x8d],0x0
    414d:	00 
    414e:	48 c7 44 24 50 00 00 	mov    QWORD PTR [rsp+0x50],0x0
    4155:	00 00 
    4157:	c6 44 24 43 01       	mov    BYTE PTR [rsp+0x43],0x1
    415c:	c6 44 24 08 00       	mov    BYTE PTR [rsp+0x8],0x0
    4161:	48 8d 05 b5 3a 00 00 	lea    rax,[rip+0x3ab5]        # 7c1d <__progname@@GLIBC_2.2.5-0x3483>
    4168:	45 31 ff             	xor    r15d,r15d
    416b:	41 bb 02 00 00 00    	mov    r11d,0x2
    4171:	48 c7 44 24 18 01 00 	mov    QWORD PTR [rsp+0x18],0x1
    4178:	00 00 
    417a:	48 89 44 24 48       	mov    QWORD PTR [rsp+0x48],rax
    417f:	45 31 d2             	xor    r10d,r10d
    4182:	44 89 d8             	mov    eax,r11d
    4185:	45 89 e8             	mov    r8d,r13d
    4188:	49 89 eb             	mov    r11,rbp
    418b:	4c 89 d5             	mov    rbp,r10
    418e:	41 89 c2             	mov    r10d,eax
    4191:	0f 1f 80 00 00 00 00 	nop    DWORD PTR [rax+0x0]
    4198:	49 39 eb             	cmp    r11,rbp
    419b:	41 0f 95 c5          	setne  r13b
    419f:	49 83 fb ff          	cmp    r11,0xffffffffffffffff
    41a3:	75 0d                	jne    41b2 <__progname@@GLIBC_2.2.5-0x6eee>
    41a5:	48 8b 44 24 10       	mov    rax,QWORD PTR [rsp+0x10]
    41aa:	80 3c 28 00          	cmp    BYTE PTR [rax+rbp*1],0x0
    41ae:	41 0f 95 c5          	setne  r13b
    41b2:	45 84 ed             	test   r13b,r13b
    41b5:	0f 84 5d 07 00 00    	je     4918 <__progname@@GLIBC_2.2.5-0x6788>
    41bb:	41 83 fa 02          	cmp    r10d,0x2
    41bf:	48 8b 7c 24 10       	mov    rdi,QWORD PTR [rsp+0x10]
    41c4:	0f 95 c0             	setne  al
    41c7:	22 44 24 08          	and    al,BYTE PTR [rsp+0x8]
    41cb:	4c 8d 0c 2f          	lea    r9,[rdi+rbp*1]
    41cf:	88 44 24 0c          	mov    BYTE PTR [rsp+0xc],al
    41d3:	0f 84 27 05 00 00    	je     4700 <__progname@@GLIBC_2.2.5-0x69a0>
    41d9:	48 8b 44 24 18       	mov    rax,QWORD PTR [rsp+0x18]
    41de:	48 85 c0             	test   rax,rax
    41e1:	0f 84 a9 06 00 00    	je     4890 <__progname@@GLIBC_2.2.5-0x6810>
    41e7:	48 8d 5c 05 00       	lea    rbx,[rbp+rax*1+0x0]
    41ec:	49 83 fb ff          	cmp    r11,0xffffffffffffffff
    41f0:	75 2e                	jne    4220 <__progname@@GLIBC_2.2.5-0x6e80>
    41f2:	48 83 f8 01          	cmp    rax,0x1
    41f6:	76 28                	jbe    4220 <__progname@@GLIBC_2.2.5-0x6e80>
    41f8:	44 89 54 24 38       	mov    DWORD PTR [rsp+0x38],r10d
    41fd:	44 88 44 24 30       	mov    BYTE PTR [rsp+0x30],r8b
    4202:	4c 89 4c 24 28       	mov    QWORD PTR [rsp+0x28],r9
    4207:	ff 15 b3 6c 00 00    	call   QWORD PTR [rip+0x6cb3]        # aec0 <strlen@GLIBC_2.2.5>
    420d:	44 8b 54 24 38       	mov    r10d,DWORD PTR [rsp+0x38]
    4212:	44 0f b6 44 24 30    	movzx  r8d,BYTE PTR [rsp+0x30]
    4218:	4c 8b 4c 24 28       	mov    r9,QWORD PTR [rsp+0x28]
    421d:	49 89 c3             	mov    r11,rax
    4220:	4c 39 db             	cmp    rbx,r11
    4223:	0f 87 67 06 00 00    	ja     4890 <__progname@@GLIBC_2.2.5-0x6810>
    4229:	44 89 54 24 44       	mov    DWORD PTR [rsp+0x44],r10d
    422e:	4c 89 cf             	mov    rdi,r9
    4231:	48 8b 54 24 18       	mov    rdx,QWORD PTR [rsp+0x18]
    4236:	4c 89 5c 24 38       	mov    QWORD PTR [rsp+0x38],r11
    423b:	48 8b 74 24 48       	mov    rsi,QWORD PTR [rsp+0x48]
    4240:	44 88 44 24 30       	mov    BYTE PTR [rsp+0x30],r8b
    4245:	4c 89 4c 24 28       	mov    QWORD PTR [rsp+0x28],r9
    424a:	ff 15 30 6d 00 00    	call   QWORD PTR [rip+0x6d30]        # af80 <memcmp@GLIBC_2.2.5>
    4250:	4c 8b 4c 24 28       	mov    r9,QWORD PTR [rsp+0x28]
    4255:	44 0f b6 44 24 30    	movzx  r8d,BYTE PTR [rsp+0x30]
    425b:	85 c0                	test   eax,eax
    425d:	4c 8b 5c 24 38       	mov    r11,QWORD PTR [rsp+0x38]
    4262:	44 8b 54 24 44       	mov    r10d,DWORD PTR [rsp+0x44]
    4267:	0f 85 23 06 00 00    	jne    4890 <__progname@@GLIBC_2.2.5-0x6810>
    426d:	80 7c 24 43 00       	cmp    BYTE PTR [rsp+0x43],0x0
    4272:	0f 85 03 10 00 00    	jne    527b <__progname@@GLIBC_2.2.5-0x5e25>
    4278:	41 0f b6 19          	movzx  ebx,BYTE PTR [r9]
    427c:	80 fb 7e             	cmp    bl,0x7e
    427f:	0f 87 18 04 00 00    	ja     469d <__progname@@GLIBC_2.2.5-0x6a03>
    4285:	48 8d 0d 20 3a 00 00 	lea    rcx,[rip+0x3a20]        # 7cac <__progname@@GLIBC_2.2.5-0x33f4>
    428c:	0f b6 d3             	movzx  edx,bl
    428f:	48 63 04 91          	movsxd rax,DWORD PTR [rcx+rdx*4]
    4293:	48 01 c8             	add    rax,rcx
    4296:	ff e0                	jmp    rax
    4298:	0f 1f 84 00 00 00 00 	nop    DWORD PTR [rax+rax*1+0x0]
    429f:	00 
    42a0:	c6 44 24 0c 00       	mov    BYTE PTR [rsp+0xc],0x0
    42a5:	49 83 fb 01          	cmp    r11,0x1
    42a9:	0f 95 c0             	setne  al
    42ac:	49 83 fb ff          	cmp    r11,0xffffffffffffffff
    42b0:	75 0c                	jne    42be <__progname@@GLIBC_2.2.5-0x6de2>
    42b2:	48 8b 44 24 10       	mov    rax,QWORD PTR [rsp+0x10]
    42b7:	80 78 01 00          	cmp    BYTE PTR [rax+0x1],0x0
    42bb:	0f 95 c0             	setne  al
    42be:	41 83 fa 02          	cmp    r10d,0x2
    42c2:	0f 94 c2             	sete   dl
    42c5:	84 c0                	test   al,al
    42c7:	0f 85 06 02 00 00    	jne    44d3 <__progname@@GLIBC_2.2.5-0x6bcd>
    42cd:	48 85 ed             	test   rbp,rbp
    42d0:	0f 85 fd 01 00 00    	jne    44d3 <__progname@@GLIBC_2.2.5-0x6bcd>
    42d6:	80 7c 24 43 00       	cmp    BYTE PTR [rsp+0x43],0x0
    42db:	74 0b                	je     42e8 <__progname@@GLIBC_2.2.5-0x6db8>
    42dd:	84 d2                	test   dl,dl
    42df:	0f 85 5d 04 00 00    	jne    4742 <__progname@@GLIBC_2.2.5-0x695e>
    42e5:	0f 1f 00             	nop    DWORD PTR [rax]
    42e8:	0f b6 44 24 08       	movzx  eax,BYTE PTR [rsp+0x8]
    42ed:	83 f0 01             	xor    eax,0x1
    42f0:	09 d0                	or     eax,edx
    42f2:	83 f0 01             	xor    eax,0x1
    42f5:	0a 44 24 43          	or     al,BYTE PTR [rsp+0x43]
    42f9:	0f 84 f1 00 00 00    	je     43f0 <__progname@@GLIBC_2.2.5-0x6cb0>
    42ff:	31 c0                	xor    eax,eax
    4301:	48 8b 74 24 20       	mov    rsi,QWORD PTR [rsp+0x20]
    4306:	48 85 f6             	test   rsi,rsi
    4309:	0f 84 e1 00 00 00    	je     43f0 <__progname@@GLIBC_2.2.5-0x6cb0>
    430f:	89 da                	mov    edx,ebx
    4311:	89 d9                	mov    ecx,ebx
    4313:	c0 ea 05             	shr    dl,0x5
    4316:	0f b6 d2             	movzx  edx,dl
    4319:	8b 14 96             	mov    edx,DWORD PTR [rsi+rdx*4]
    431c:	d3 ea                	shr    edx,cl
    431e:	83 e2 01             	and    edx,0x1
    4321:	0f 84 c9 00 00 00    	je     43f0 <__progname@@GLIBC_2.2.5-0x6cb0>
    4327:	41 83 fa 02          	cmp    r10d,0x2
    432b:	0f 94 c2             	sete   dl
    432e:	80 7c 24 43 00       	cmp    BYTE PTR [rsp+0x43],0x0
    4333:	0f 85 bf 01 00 00    	jne    44f8 <__progname@@GLIBC_2.2.5-0x6ba8>
    4339:	44 89 c0             	mov    eax,r8d
    433c:	83 f0 01             	xor    eax,0x1
    433f:	20 d0                	and    al,dl
    4341:	74 2f                	je     4372 <__progname@@GLIBC_2.2.5-0x6d2e>
    4343:	4d 39 fc             	cmp    r12,r15
    4346:	76 05                	jbe    434d <__progname@@GLIBC_2.2.5-0x6d53>
    4348:	43 c6 04 3e 27       	mov    BYTE PTR [r14+r15*1],0x27
    434d:	49 8d 57 01          	lea    rdx,[r15+0x1]
    4351:	4c 39 e2             	cmp    rdx,r12
    4354:	73 06                	jae    435c <__progname@@GLIBC_2.2.5-0x6d44>
    4356:	43 c6 44 3e 01 24    	mov    BYTE PTR [r14+r15*1+0x1],0x24
    435c:	49 8d 57 02          	lea    rdx,[r15+0x2]
    4360:	4c 39 e2             	cmp    rdx,r12
    4363:	73 06                	jae    436b <__progname@@GLIBC_2.2.5-0x6d35>
    4365:	43 c6 44 3e 02 27    	mov    BYTE PTR [r14+r15*1+0x2],0x27
    436b:	49 83 c7 03          	add    r15,0x3
    436f:	41 89 c0             	mov    r8d,eax
    4372:	4d 39 fc             	cmp    r12,r15
    4375:	76 05                	jbe    437c <__progname@@GLIBC_2.2.5-0x6d24>
    4377:	43 c6 04 3e 5c       	mov    BYTE PTR [r14+r15*1],0x5c
    437c:	49 83 c7 01          	add    r15,0x1
    4380:	48 83 c5 01          	add    rbp,0x1
    4384:	4d 39 e7             	cmp    r15,r12
    4387:	73 04                	jae    438d <__progname@@GLIBC_2.2.5-0x6d13>
    4389:	43 88 1c 3e          	mov    BYTE PTR [r14+r15*1],bl
    438d:	0f b6 7c 24 42       	movzx  edi,BYTE PTR [rsp+0x42]
    4392:	49 83 c7 01          	add    r15,0x1
    4396:	b8 00 00 00 00       	mov    eax,0x0
    439b:	45 84 ed             	test   r13b,r13b
    439e:	0f 44 f8             	cmove  edi,eax
    43a1:	40 88 7c 24 42       	mov    BYTE PTR [rsp+0x42],dil
    43a6:	e9 ed fd ff ff       	jmp    4198 <__progname@@GLIBC_2.2.5-0x6f08>
    43ab:	0f 1f 44 00 00       	nop    DWORD PTR [rax+rax*1+0x0]
    43b0:	80 7c 24 43 00       	cmp    BYTE PTR [rsp+0x43],0x0
    43b5:	0f 85 b5 0e 00 00    	jne    5270 <__progname@@GLIBC_2.2.5-0x5e30>
    43bb:	4d 85 e4             	test   r12,r12
    43be:	0f 84 18 08 00 00    	je     4bdc <__progname@@GLIBC_2.2.5-0x64c4>
    43c4:	31 d2                	xor    edx,edx
    43c6:	48 83 7c 24 50 00    	cmp    QWORD PTR [rsp+0x50],0x0
    43cc:	0f 85 0a 08 00 00    	jne    4bdc <__progname@@GLIBC_2.2.5-0x64c4>
    43d2:	4c 89 64 24 50       	mov    QWORD PTR [rsp+0x50],r12
    43d7:	49 83 c7 03          	add    r15,0x3
    43db:	31 c0                	xor    eax,eax
    43dd:	45 31 c0             	xor    r8d,r8d
    43e0:	44 88 ac 24 8d 00 00 	mov    BYTE PTR [rsp+0x8d],r13b
    43e7:	00 
    43e8:	49 89 d4             	mov    r12,rdx
    43eb:	bb 27 00 00 00       	mov    ebx,0x27
    43f0:	41 83 fa 02          	cmp    r10d,0x2
    43f4:	0f 94 c2             	sete   dl
    43f7:	80 7c 24 0c 00       	cmp    BYTE PTR [rsp+0xc],0x0
    43fc:	0f 85 2c ff ff ff    	jne    432e <__progname@@GLIBC_2.2.5-0x6d72>
    4402:	83 f0 01             	xor    eax,0x1
    4405:	48 83 c5 01          	add    rbp,0x1
    4409:	44 21 c0             	and    eax,r8d
    440c:	84 c0                	test   al,al
    440e:	0f 84 70 ff ff ff    	je     4384 <__progname@@GLIBC_2.2.5-0x6d1c>
    4414:	4d 39 fc             	cmp    r12,r15
    4417:	76 05                	jbe    441e <__progname@@GLIBC_2.2.5-0x6c82>
    4419:	43 c6 04 3e 27       	mov    BYTE PTR [r14+r15*1],0x27
    441e:	49 8d 47 01          	lea    rax,[r15+0x1]
    4422:	49 39 c4             	cmp    r12,rax
    4425:	76 06                	jbe    442d <__progname@@GLIBC_2.2.5-0x6c73>
    4427:	43 c6 44 3e 01 27    	mov    BYTE PTR [r14+r15*1+0x1],0x27
    442d:	49 83 c7 02          	add    r15,0x2
    4431:	45 31 c0             	xor    r8d,r8d
    4434:	e9 4b ff ff ff       	jmp    4384 <__progname@@GLIBC_2.2.5-0x6d1c>
    4439:	0f 1f 80 00 00 00 00 	nop    DWORD PTR [rax+0x0]
    4440:	c6 44 24 0c 00       	mov    BYTE PTR [rsp+0xc],0x0
    4445:	41 83 fa 02          	cmp    r10d,0x2
    4449:	0f 84 b1 05 00 00    	je     4a00 <__progname@@GLIBC_2.2.5-0x66a0>
    444f:	41 83 fa 05          	cmp    r10d,0x5
    4453:	0f 84 67 05 00 00    	je     49c0 <__progname@@GLIBC_2.2.5-0x66e0>
    4459:	41 83 fa 02          	cmp    r10d,0x2
    445d:	bb 3f 00 00 00       	mov    ebx,0x3f
    4462:	0f 94 c2             	sete   dl
    4465:	45 31 ed             	xor    r13d,r13d
    4468:	e9 7b fe ff ff       	jmp    42e8 <__progname@@GLIBC_2.2.5-0x6db8>
    446d:	0f 1f 00             	nop    DWORD PTR [rax]
    4470:	c6 44 24 0c 00       	mov    BYTE PTR [rsp+0xc],0x0
    4475:	41 83 fa 02          	cmp    r10d,0x2
    4479:	0f 84 31 ff ff ff    	je     43b0 <__progname@@GLIBC_2.2.5-0x6cf0>
    447f:	44 88 ac 24 8d 00 00 	mov    BYTE PTR [rsp+0x8d],r13b
    4486:	00 
    4487:	31 d2                	xor    edx,edx
    4489:	bb 27 00 00 00       	mov    ebx,0x27
    448e:	e9 55 fe ff ff       	jmp    42e8 <__progname@@GLIBC_2.2.5-0x6db8>
    4493:	0f 1f 44 00 00       	nop    DWORD PTR [rax+rax*1+0x0]
    4498:	c6 44 24 0c 00       	mov    BYTE PTR [rsp+0xc],0x0
    449d:	0f b6 54 24 08       	movzx  edx,BYTE PTR [rsp+0x8]
    44a2:	22 54 24 43          	and    dl,BYTE PTR [rsp+0x43]
    44a6:	bb 5c 00 00 00       	mov    ebx,0x5c
    44ab:	b9 5c 00 00 00       	mov    ecx,0x5c
    44b0:	48 83 7c 24 18 00    	cmp    QWORD PTR [rsp+0x18],0x0
    44b6:	0f 95 c0             	setne  al
    44b9:	20 c2                	and    dl,al
    44bb:	0f 85 6a 0b 00 00    	jne    502b <__progname@@GLIBC_2.2.5-0x6075>
    44c1:	0f 1f 80 00 00 00 00 	nop    DWORD PTR [rax+0x0]
    44c8:	80 7c 24 08 00       	cmp    BYTE PTR [rsp+0x8],0x0
    44cd:	0f 85 c2 0e 00 00    	jne    5395 <__progname@@GLIBC_2.2.5-0x5d0b>
    44d3:	45 31 ed             	xor    r13d,r13d
    44d6:	e9 0d fe ff ff       	jmp    42e8 <__progname@@GLIBC_2.2.5-0x6db8>
    44db:	0f 1f 44 00 00       	nop    DWORD PTR [rax+rax*1+0x0]
    44e0:	bb 6e 00 00 00       	mov    ebx,0x6e
    44e5:	31 d2                	xor    edx,edx
    44e7:	45 31 ed             	xor    r13d,r13d
    44ea:	80 7c 24 43 00       	cmp    BYTE PTR [rsp+0x43],0x0
    44ef:	0f 84 44 fe ff ff    	je     4339 <__progname@@GLIBC_2.2.5-0x6d67>
    44f5:	0f 1f 00             	nop    DWORD PTR [rax]
    44f8:	4c 89 dd             	mov    rbp,r11
    44fb:	89 d0                	mov    eax,edx
    44fd:	45 89 d3             	mov    r11d,r10d
    4500:	20 44 24 08          	and    BYTE PTR [rsp+0x8],al
    4504:	80 7c 24 08 00       	cmp    BYTE PTR [rsp+0x8],0x0
    4509:	b8 04 00 00 00       	mov    eax,0x4
    450e:	44 0f 45 d8          	cmovne r11d,eax
    4512:	48 83 ec 08          	sub    rsp,0x8
    4516:	45 89 d8             	mov    r8d,r11d
    4519:	48 89 e9             	mov    rcx,rbp
    451c:	ff 74 24 68          	push   QWORD PTR [rsp+0x68]
    4520:	4c 89 e6             	mov    rsi,r12
    4523:	4c 89 f7             	mov    rdi,r14
    4526:	ff 74 24 78          	push   QWORD PTR [rsp+0x78]
    452a:	6a 00                	push   0x0
    452c:	44 8b 8c 24 a8 00 00 	mov    r9d,DWORD PTR [rsp+0xa8]
    4533:	00 
    4534:	48 8b 54 24 30       	mov    rdx,QWORD PTR [rsp+0x30]
    4539:	41 83 e1 fd          	and    r9d,0xfffffffd
    453d:	e8 5e fb ff ff       	call   40a0 <__progname@@GLIBC_2.2.5-0x7000>
    4542:	48 83 c4 20          	add    rsp,0x20
    4546:	49 89 c7             	mov    r15,rax
    4549:	48 8b 9c 24 b8 00 00 	mov    rbx,QWORD PTR [rsp+0xb8]
    4550:	00 
    4551:	64 48 33 1c 25 28 00 	xor    rbx,QWORD PTR fs:0x28
    4558:	00 00 
    455a:	4c 89 f8             	mov    rax,r15
    455d:	0f 85 d6 0d 00 00    	jne    5339 <__progname@@GLIBC_2.2.5-0x5d67>
    4563:	48 81 c4 c8 00 00 00 	add    rsp,0xc8
    456a:	5b                   	pop    rbx
    456b:	5d                   	pop    rbp
    456c:	41 5c                	pop    r12
    456e:	41 5d                	pop    r13
    4570:	41 5e                	pop    r14
    4572:	41 5f                	pop    r15
    4574:	c3                   	ret    
    4575:	0f 1f 00             	nop    DWORD PTR [rax]
    4578:	bb 74 00 00 00       	mov    ebx,0x74
    457d:	e9 63 ff ff ff       	jmp    44e5 <__progname@@GLIBC_2.2.5-0x6bbb>
    4582:	66 0f 1f 44 00 00    	nop    WORD PTR [rax+rax*1+0x0]
    4588:	c6 44 24 0c 00       	mov    BYTE PTR [rsp+0xc],0x0
    458d:	31 d2                	xor    edx,edx
    458f:	e9 3f ff ff ff       	jmp    44d3 <__progname@@GLIBC_2.2.5-0x6bcd>
    4594:	0f 1f 40 00          	nop    DWORD PTR [rax+0x0]
    4598:	c6 44 24 0c 00       	mov    BYTE PTR [rsp+0xc],0x0
    459d:	41 83 fa 02          	cmp    r10d,0x2
    45a1:	bb 0d 00 00 00       	mov    ebx,0xd
    45a6:	b9 72 00 00 00       	mov    ecx,0x72
    45ab:	0f 94 c2             	sete   dl
    45ae:	e9 15 ff ff ff       	jmp    44c8 <__progname@@GLIBC_2.2.5-0x6bd8>
    45b3:	0f 1f 44 00 00       	nop    DWORD PTR [rax+rax*1+0x0]
    45b8:	bb 66 00 00 00       	mov    ebx,0x66
    45bd:	80 7c 24 43 00       	cmp    BYTE PTR [rsp+0x43],0x0
    45c2:	0f 85 5b 0c 00 00    	jne    5223 <__progname@@GLIBC_2.2.5-0x5e7d>
    45c8:	45 31 ed             	xor    r13d,r13d
    45cb:	e9 a2 fd ff ff       	jmp    4372 <__progname@@GLIBC_2.2.5-0x6d2e>
    45d0:	bb 76 00 00 00       	mov    ebx,0x76
    45d5:	eb e6                	jmp    45bd <__progname@@GLIBC_2.2.5-0x6ae3>
    45d7:	66 0f 1f 84 00 00 00 	nop    WORD PTR [rax+rax*1+0x0]
    45de:	00 00 
    45e0:	80 7c 24 43 00       	cmp    BYTE PTR [rsp+0x43],0x0
    45e5:	0f 85 e3 0c 00 00    	jne    52ce <__progname@@GLIBC_2.2.5-0x5dd2>
    45eb:	c6 44 24 0c 00       	mov    BYTE PTR [rsp+0xc],0x0
    45f0:	41 83 fa 02          	cmp    r10d,0x2
    45f4:	44 89 c0             	mov    eax,r8d
    45f7:	0f 94 c2             	sete   dl
    45fa:	83 f0 01             	xor    eax,0x1
    45fd:	20 d0                	and    al,dl
    45ff:	0f 84 c3 05 00 00    	je     4bc8 <__progname@@GLIBC_2.2.5-0x64d8>
    4605:	4d 39 fc             	cmp    r12,r15
    4608:	76 05                	jbe    460f <__progname@@GLIBC_2.2.5-0x6a91>
    460a:	43 c6 04 3e 27       	mov    BYTE PTR [r14+r15*1],0x27
    460f:	49 8d 4f 01          	lea    rcx,[r15+0x1]
    4613:	49 39 cc             	cmp    r12,rcx
    4616:	76 06                	jbe    461e <__progname@@GLIBC_2.2.5-0x6a82>
    4618:	43 c6 44 3e 01 24    	mov    BYTE PTR [r14+r15*1+0x1],0x24
    461e:	49 8d 4f 02          	lea    rcx,[r15+0x2]
    4622:	49 39 cc             	cmp    r12,rcx
    4625:	76 06                	jbe    462d <__progname@@GLIBC_2.2.5-0x6a73>
    4627:	43 c6 44 3e 02 27    	mov    BYTE PTR [r14+r15*1+0x2],0x27
    462d:	49 8d 4f 03          	lea    rcx,[r15+0x3]
    4631:	49 39 cc             	cmp    r12,rcx
    4634:	0f 86 36 07 00 00    	jbe    4d70 <__progname@@GLIBC_2.2.5-0x6330>
    463a:	41 c6 04 0e 5c       	mov    BYTE PTR [r14+rcx*1],0x5c
    463f:	41 89 c0             	mov    r8d,eax
    4642:	4c 8d 79 01          	lea    r15,[rcx+0x1]
    4646:	41 83 fa 02          	cmp    r10d,0x2
    464a:	0f 84 60 0a 00 00    	je     50b0 <__progname@@GLIBC_2.2.5-0x5ff0>
    4650:	48 8d 45 01          	lea    rax,[rbp+0x1]
    4654:	bb 30 00 00 00       	mov    ebx,0x30
    4659:	4c 39 d8             	cmp    rax,r11
    465c:	73 19                	jae    4677 <__progname@@GLIBC_2.2.5-0x6a29>
    465e:	48 8b 44 24 10       	mov    rax,QWORD PTR [rsp+0x10]
    4663:	0f b6 44 28 01       	movzx  eax,BYTE PTR [rax+rbp*1+0x1]
    4668:	88 44 24 28          	mov    BYTE PTR [rsp+0x28],al
    466c:	83 e8 30             	sub    eax,0x30
    466f:	3c 09                	cmp    al,0x9
    4671:	0f 86 6b 09 00 00    	jbe    4fe2 <__progname@@GLIBC_2.2.5-0x60be>
    4677:	0f b6 44 24 08       	movzx  eax,BYTE PTR [rsp+0x8]
    467c:	83 f0 01             	xor    eax,0x1
    467f:	08 d0                	or     al,dl
    4681:	44 89 e8             	mov    eax,r13d
    4684:	41 bd 00 00 00 00    	mov    r13d,0x0
    468a:	0f 84 71 fc ff ff    	je     4301 <__progname@@GLIBC_2.2.5-0x6d9f>
    4690:	e9 5b fd ff ff       	jmp    43f0 <__progname@@GLIBC_2.2.5-0x6cb0>
    4695:	0f 1f 00             	nop    DWORD PTR [rax]
    4698:	c6 44 24 0c 00       	mov    BYTE PTR [rsp+0xc],0x0
    469d:	48 83 7c 24 58 01    	cmp    QWORD PTR [rsp+0x58],0x1
    46a3:	0f 85 77 03 00 00    	jne    4a20 <__progname@@GLIBC_2.2.5-0x6680>
    46a9:	44 89 54 24 38       	mov    DWORD PTR [rsp+0x38],r10d
    46ae:	4c 89 5c 24 30       	mov    QWORD PTR [rsp+0x30],r11
    46b3:	44 88 44 24 28       	mov    BYTE PTR [rsp+0x28],r8b
    46b8:	ff 15 2a 68 00 00    	call   QWORD PTR [rip+0x682a]        # aee8 <__ctype_b_loc@GLIBC_2.3>
    46be:	0f b6 d3             	movzx  edx,bl
    46c1:	44 0f b6 44 24 28    	movzx  r8d,BYTE PTR [rsp+0x28]
    46c7:	4c 8b 5c 24 30       	mov    r11,QWORD PTR [rsp+0x30]
    46cc:	48 8b 00             	mov    rax,QWORD PTR [rax]
    46cf:	44 8b 54 24 38       	mov    r10d,DWORD PTR [rsp+0x38]
    46d4:	bf 01 00 00 00       	mov    edi,0x1
    46d9:	0f b7 04 50          	movzx  eax,WORD PTR [rax+rdx*2]
    46dd:	66 25 00 40          	and    ax,0x4000
    46e1:	41 0f 95 c5          	setne  r13b
    46e5:	0f 94 c2             	sete   dl
    46e8:	22 54 24 08          	and    dl,BYTE PTR [rsp+0x8]
    46ec:	84 d2                	test   dl,dl
    46ee:	0f 85 2a 05 00 00    	jne    4c1e <__progname@@GLIBC_2.2.5-0x6482>
    46f4:	41 83 fa 02          	cmp    r10d,0x2
    46f8:	0f 94 c2             	sete   dl
    46fb:	e9 e8 fb ff ff       	jmp    42e8 <__progname@@GLIBC_2.2.5-0x6db8>
    4700:	41 0f b6 19          	movzx  ebx,BYTE PTR [r9]
    4704:	80 fb 7e             	cmp    bl,0x7e
    4707:	77 94                	ja     469d <__progname@@GLIBC_2.2.5-0x6a03>
    4709:	48 8d 0d 98 37 00 00 	lea    rcx,[rip+0x3798]        # 7ea8 <__progname@@GLIBC_2.2.5-0x31f8>
    4710:	0f b6 d3             	movzx  edx,bl
    4713:	48 63 04 91          	movsxd rax,DWORD PTR [rcx+rdx*4]
    4717:	48 01 c8             	add    rax,rcx
    471a:	ff e0                	jmp    rax
    471c:	0f 1f 40 00          	nop    DWORD PTR [rax+0x0]
    4720:	bb 0a 00 00 00       	mov    ebx,0xa
    4725:	b9 6e 00 00 00       	mov    ecx,0x6e
    472a:	41 83 fa 02          	cmp    r10d,0x2
    472e:	0f b6 44 24 43       	movzx  eax,BYTE PTR [rsp+0x43]
    4733:	0f 94 c2             	sete   dl
    4736:	20 d0                	and    al,dl
    4738:	88 44 24 0c          	mov    BYTE PTR [rsp+0xc],al
    473c:	0f 84 86 fd ff ff    	je     44c8 <__progname@@GLIBC_2.2.5-0x6bd8>
    4742:	4c 89 dd             	mov    rbp,r11
    4745:	41 bb 02 00 00 00    	mov    r11d,0x2
    474b:	e9 b4 fd ff ff       	jmp    4504 <__progname@@GLIBC_2.2.5-0x6b9c>
    4750:	bb 09 00 00 00       	mov    ebx,0x9
    4755:	b9 74 00 00 00       	mov    ecx,0x74
    475a:	eb ce                	jmp    472a <__progname@@GLIBC_2.2.5-0x6976>
    475c:	0f 1f 40 00          	nop    DWORD PTR [rax+0x0]
    4760:	41 83 fa 02          	cmp    r10d,0x2
    4764:	bb 08 00 00 00       	mov    ebx,0x8
    4769:	b9 62 00 00 00       	mov    ecx,0x62
    476e:	0f 94 c2             	sete   dl
    4771:	e9 52 fd ff ff       	jmp    44c8 <__progname@@GLIBC_2.2.5-0x6bd8>
    4776:	66 2e 0f 1f 84 00 00 	nop    WORD PTR cs:[rax+rax*1+0x0]
    477d:	00 00 00 
    4780:	41 83 fa 02          	cmp    r10d,0x2
    4784:	bb 07 00 00 00       	mov    ebx,0x7
    4789:	b9 61 00 00 00       	mov    ecx,0x61
    478e:	0f 94 c2             	sete   dl
    4791:	e9 32 fd ff ff       	jmp    44c8 <__progname@@GLIBC_2.2.5-0x6bd8>
    4796:	66 2e 0f 1f 84 00 00 	nop    WORD PTR cs:[rax+rax*1+0x0]
    479d:	00 00 00 
    47a0:	80 7c 24 08 00       	cmp    BYTE PTR [rsp+0x8],0x0
    47a5:	0f 85 35 fe ff ff    	jne    45e0 <__progname@@GLIBC_2.2.5-0x6ac0>
    47ab:	f6 84 24 88 00 00 00 	test   BYTE PTR [rsp+0x88],0x1
    47b2:	01 
    47b3:	0f 85 5c 04 00 00    	jne    4c15 <__progname@@GLIBC_2.2.5-0x648b>
    47b9:	41 83 fa 02          	cmp    r10d,0x2
    47bd:	c6 44 24 0c 00       	mov    BYTE PTR [rsp+0xc],0x0
    47c2:	0f 94 c2             	sete   dl
    47c5:	45 31 ed             	xor    r13d,r13d
    47c8:	31 db                	xor    ebx,ebx
    47ca:	e9 19 fb ff ff       	jmp    42e8 <__progname@@GLIBC_2.2.5-0x6db8>
    47cf:	90                   	nop
    47d0:	41 83 fa 02          	cmp    r10d,0x2
    47d4:	0f 85 c3 fc ff ff    	jne    449d <__progname@@GLIBC_2.2.5-0x6c03>
    47da:	80 7c 24 43 00       	cmp    BYTE PTR [rsp+0x43],0x0
    47df:	0f 85 8b 0a 00 00    	jne    5270 <__progname@@GLIBC_2.2.5-0x5e30>
    47e5:	48 83 c5 01          	add    rbp,0x1
    47e9:	44 89 c0             	mov    eax,r8d
    47ec:	45 31 ed             	xor    r13d,r13d
    47ef:	bb 5c 00 00 00       	mov    ebx,0x5c
    47f4:	e9 13 fc ff ff       	jmp    440c <__progname@@GLIBC_2.2.5-0x6c94>
    47f9:	0f 1f 80 00 00 00 00 	nop    DWORD PTR [rax+0x0]
    4800:	41 83 fa 02          	cmp    r10d,0x2
    4804:	0f 94 c2             	sete   dl
    4807:	e9 c1 fa ff ff       	jmp    42cd <__progname@@GLIBC_2.2.5-0x6dd3>
    480c:	0f 1f 40 00          	nop    DWORD PTR [rax+0x0]
    4810:	41 83 fa 02          	cmp    r10d,0x2
    4814:	0f 94 c2             	sete   dl
    4817:	45 31 ed             	xor    r13d,r13d
    481a:	e9 b7 fa ff ff       	jmp    42d6 <__progname@@GLIBC_2.2.5-0x6dca>
    481f:	90                   	nop
    4820:	41 83 fa 02          	cmp    r10d,0x2
    4824:	bb 20 00 00 00       	mov    ebx,0x20
    4829:	0f 94 c2             	sete   dl
    482c:	e9 a5 fa ff ff       	jmp    42d6 <__progname@@GLIBC_2.2.5-0x6dca>
    4831:	0f 1f 80 00 00 00 00 	nop    DWORD PTR [rax+0x0]
    4838:	bb 0d 00 00 00       	mov    ebx,0xd
    483d:	b9 72 00 00 00       	mov    ecx,0x72
    4842:	e9 e3 fe ff ff       	jmp    472a <__progname@@GLIBC_2.2.5-0x6976>
    4847:	66 0f 1f 84 00 00 00 	nop    WORD PTR [rax+rax*1+0x0]
    484e:	00 00 
    4850:	41 83 fa 02          	cmp    r10d,0x2
    4854:	bb 0c 00 00 00       	mov    ebx,0xc
    4859:	b9 66 00 00 00       	mov    ecx,0x66
    485e:	0f 94 c2             	sete   dl
    4861:	e9 62 fc ff ff       	jmp    44c8 <__progname@@GLIBC_2.2.5-0x6bd8>
    4866:	66 2e 0f 1f 84 00 00 	nop    WORD PTR cs:[rax+rax*1+0x0]
    486d:	00 00 00 
    4870:	41 83 fa 02          	cmp    r10d,0x2
    4874:	bb 0b 00 00 00       	mov    ebx,0xb
    4879:	b9 76 00 00 00       	mov    ecx,0x76
    487e:	0f 94 c2             	sete   dl
    4881:	e9 42 fc ff ff       	jmp    44c8 <__progname@@GLIBC_2.2.5-0x6bd8>
    4886:	66 2e 0f 1f 84 00 00 	nop    WORD PTR cs:[rax+rax*1+0x0]
    488d:	00 00 00 
    4890:	41 0f b6 19          	movzx  ebx,BYTE PTR [r9]
    4894:	80 fb 7e             	cmp    bl,0x7e
    4897:	0f 87 fb fd ff ff    	ja     4698 <__progname@@GLIBC_2.2.5-0x6a08>
    489d:	48 8d 0d 00 38 00 00 	lea    rcx,[rip+0x3800]        # 80a4 <__progname@@GLIBC_2.2.5-0x2ffc>
    48a4:	0f b6 d3             	movzx  edx,bl
    48a7:	48 63 04 91          	movsxd rax,DWORD PTR [rcx+rdx*4]
    48ab:	48 01 c8             	add    rax,rcx
    48ae:	ff e0                	jmp    rax
    48b0:	31 c0                	xor    eax,eax
    48b2:	44 0f b6 6c 24 0c    	movzx  r13d,BYTE PTR [rsp+0xc]
    48b8:	88 44 24 0c          	mov    BYTE PTR [rsp+0xc],al
    48bc:	31 c0                	xor    eax,eax
    48be:	e9 3e fa ff ff       	jmp    4301 <__progname@@GLIBC_2.2.5-0x6d9f>
    48c3:	0f 1f 44 00 00       	nop    DWORD PTR [rax+rax*1+0x0]
    48c8:	31 c0                	xor    eax,eax
    48ca:	48 85 ed             	test   rbp,rbp
    48cd:	0f 85 e5 02 00 00    	jne    4bb8 <__progname@@GLIBC_2.2.5-0x64e8>
    48d3:	44 0f b6 6c 24 0c    	movzx  r13d,BYTE PTR [rsp+0xc]
    48d9:	31 d2                	xor    edx,edx
    48db:	88 44 24 0c          	mov    BYTE PTR [rsp+0xc],al
    48df:	e9 04 fa ff ff       	jmp    42e8 <__progname@@GLIBC_2.2.5-0x6db8>
    48e4:	0f 1f 40 00          	nop    DWORD PTR [rax+0x0]
    48e8:	31 c0                	xor    eax,eax
    48ea:	bb 20 00 00 00       	mov    ebx,0x20
    48ef:	eb c1                	jmp    48b2 <__progname@@GLIBC_2.2.5-0x67ee>
    48f1:	0f 1f 80 00 00 00 00 	nop    DWORD PTR [rax+0x0]
    48f8:	bb 62 00 00 00       	mov    ebx,0x62
    48fd:	e9 e3 fb ff ff       	jmp    44e5 <__progname@@GLIBC_2.2.5-0x6bbb>
    4902:	66 0f 1f 44 00 00    	nop    WORD PTR [rax+rax*1+0x0]
    4908:	bb 61 00 00 00       	mov    ebx,0x61
    490d:	e9 ab fc ff ff       	jmp    45bd <__progname@@GLIBC_2.2.5-0x6ae3>
    4912:	66 0f 1f 44 00 00    	nop    WORD PTR [rax+rax*1+0x0]
    4918:	41 83 fa 02          	cmp    r10d,0x2
    491c:	45 89 c5             	mov    r13d,r8d
    491f:	4c 89 dd             	mov    rbp,r11
    4922:	0f 94 c2             	sete   dl
    4925:	4d 85 ff             	test   r15,r15
    4928:	75 0a                	jne    4934 <__progname@@GLIBC_2.2.5-0x676c>
    492a:	84 54 24 43          	test   BYTE PTR [rsp+0x43],dl
    492e:	0f 85 fa 09 00 00    	jne    532e <__progname@@GLIBC_2.2.5-0x5d72>
    4934:	0f b6 44 24 43       	movzx  eax,BYTE PTR [rsp+0x43]
    4939:	83 f0 01             	xor    eax,0x1
    493c:	20 c2                	and    dl,al
    493e:	0f 84 42 09 00 00    	je     5286 <__progname@@GLIBC_2.2.5-0x5e1a>
    4944:	80 bc 24 8d 00 00 00 	cmp    BYTE PTR [rsp+0x8d],0x0
    494b:	00 
    494c:	0f 84 36 09 00 00    	je     5288 <__progname@@GLIBC_2.2.5-0x5e18>
    4952:	80 7c 24 42 00       	cmp    BYTE PTR [rsp+0x42],0x0
    4957:	0f 85 85 09 00 00    	jne    52e2 <__progname@@GLIBC_2.2.5-0x5dbe>
    495d:	4d 85 e4             	test   r12,r12
    4960:	0f 94 c0             	sete   al
    4963:	48 83 7c 24 50 00    	cmp    QWORD PTR [rsp+0x50],0x0
    4969:	0f 95 c2             	setne  dl
    496c:	20 d0                	and    al,dl
    496e:	0f 84 ad 09 00 00    	je     5321 <__progname@@GLIBC_2.2.5-0x5d7f>
    4974:	48 8b 54 24 50       	mov    rdx,QWORD PTR [rsp+0x50]
    4979:	48 8d 1d 9d 32 00 00 	lea    rbx,[rip+0x329d]        # 7c1d <__progname@@GLIBC_2.2.5-0x3483>
    4980:	4c 8b 64 24 50       	mov    r12,QWORD PTR [rsp+0x50]
    4985:	41 c6 06 27          	mov    BYTE PTR [r14],0x27
    4989:	41 bb 02 00 00 00    	mov    r11d,0x2
    498f:	41 bf 01 00 00 00    	mov    r15d,0x1
    4995:	48 89 5c 24 48       	mov    QWORD PTR [rsp+0x48],rbx
    499a:	48 c7 44 24 18 01 00 	mov    QWORD PTR [rsp+0x18],0x1
    49a1:	00 00 
    49a3:	c6 44 24 43 00       	mov    BYTE PTR [rsp+0x43],0x0
    49a8:	88 84 24 8d 00 00 00 	mov    BYTE PTR [rsp+0x8d],al
    49af:	48 89 54 24 50       	mov    QWORD PTR [rsp+0x50],rdx
    49b4:	e9 c6 f7 ff ff       	jmp    417f <__progname@@GLIBC_2.2.5-0x6f21>
    49b9:	0f 1f 80 00 00 00 00 	nop    DWORD PTR [rax+0x0]
    49c0:	f6 84 24 88 00 00 00 	test   BYTE PTR [rsp+0x88],0x4
    49c7:	04 
    49c8:	74 1e                	je     49e8 <__progname@@GLIBC_2.2.5-0x66b8>
    49ca:	48 8d 45 02          	lea    rax,[rbp+0x2]
    49ce:	4c 39 d8             	cmp    rax,r11
    49d1:	73 15                	jae    49e8 <__progname@@GLIBC_2.2.5-0x66b8>
    49d3:	48 8b 5c 24 10       	mov    rbx,QWORD PTR [rsp+0x10]
    49d8:	80 7c 2b 01 3f       	cmp    BYTE PTR [rbx+rbp*1+0x1],0x3f
    49dd:	0f 84 dd 06 00 00    	je     50c0 <__progname@@GLIBC_2.2.5-0x5fe0>
    49e3:	0f 1f 44 00 00       	nop    DWORD PTR [rax+rax*1+0x0]
    49e8:	31 d2                	xor    edx,edx
    49ea:	45 31 ed             	xor    r13d,r13d
    49ed:	bb 3f 00 00 00       	mov    ebx,0x3f
    49f2:	e9 f1 f8 ff ff       	jmp    42e8 <__progname@@GLIBC_2.2.5-0x6db8>
    49f7:	66 0f 1f 84 00 00 00 	nop    WORD PTR [rax+rax*1+0x0]
    49fe:	00 00 
    4a00:	80 7c 24 43 00       	cmp    BYTE PTR [rsp+0x43],0x0
    4a05:	0f 85 65 08 00 00    	jne    5270 <__progname@@GLIBC_2.2.5-0x5e30>
    4a0b:	45 31 ed             	xor    r13d,r13d
    4a0e:	31 c0                	xor    eax,eax
    4a10:	bb 3f 00 00 00       	mov    ebx,0x3f
    4a15:	e9 d6 f9 ff ff       	jmp    43f0 <__progname@@GLIBC_2.2.5-0x6cb0>
    4a1a:	66 0f 1f 44 00 00    	nop    WORD PTR [rax+rax*1+0x0]
    4a20:	48 8d 84 24 b0 00 00 	lea    rax,[rsp+0xb0]
    4a27:	00 
    4a28:	48 c7 84 24 b0 00 00 	mov    QWORD PTR [rsp+0xb0],0x0
    4a2f:	00 00 00 00 00 
    4a34:	48 89 44 24 70       	mov    QWORD PTR [rsp+0x70],rax
    4a39:	49 83 fb ff          	cmp    r11,0xffffffffffffffff
    4a3d:	75 2d                	jne    4a6c <__progname@@GLIBC_2.2.5-0x6634>
    4a3f:	44 89 54 24 38       	mov    DWORD PTR [rsp+0x38],r10d
    4a44:	48 8b 7c 24 10       	mov    rdi,QWORD PTR [rsp+0x10]
    4a49:	44 88 44 24 30       	mov    BYTE PTR [rsp+0x30],r8b
    4a4e:	4c 89 4c 24 28       	mov    QWORD PTR [rsp+0x28],r9
    4a53:	ff 15 67 64 00 00    	call   QWORD PTR [rip+0x6467]        # aec0 <strlen@GLIBC_2.2.5>
    4a59:	44 8b 54 24 38       	mov    r10d,DWORD PTR [rsp+0x38]
    4a5e:	44 0f b6 44 24 30    	movzx  r8d,BYTE PTR [rsp+0x30]
    4a64:	4c 8b 4c 24 28       	mov    r9,QWORD PTR [rsp+0x28]
    4a69:	49 89 c3             	mov    r11,rax
    4a6c:	31 f6                	xor    esi,esi
    4a6e:	48 8d 84 24 ac 00 00 	lea    rax,[rsp+0xac]
    4a75:	00 
    4a76:	88 9c 24 8f 00 00 00 	mov    BYTE PTR [rsp+0x8f],bl
    4a7d:	4c 89 74 24 78       	mov    QWORD PTR [rsp+0x78],r14
    4a82:	48 89 f3             	mov    rbx,rsi
    4a85:	4c 8b 74 24 70       	mov    r14,QWORD PTR [rsp+0x70]
    4a8a:	48 89 44 24 38       	mov    QWORD PTR [rsp+0x38],rax
    4a8f:	4c 89 8c 24 98 00 00 	mov    QWORD PTR [rsp+0x98],r9
    4a96:	00 
    4a97:	44 88 84 24 8e 00 00 	mov    BYTE PTR [rsp+0x8e],r8b
    4a9e:	00 
    4a9f:	48 89 6c 24 30       	mov    QWORD PTR [rsp+0x30],rbp
    4aa4:	4c 89 bc 24 90 00 00 	mov    QWORD PTR [rsp+0x90],r15
    4aab:	00 
    4aac:	4c 89 a4 24 80 00 00 	mov    QWORD PTR [rsp+0x80],r12
    4ab3:	00 
    4ab4:	4c 89 5c 24 28       	mov    QWORD PTR [rsp+0x28],r11
    4ab9:	44 89 54 24 44       	mov    DWORD PTR [rsp+0x44],r10d
    4abe:	eb 2c                	jmp    4aec <__progname@@GLIBC_2.2.5-0x65b4>
    4ac0:	8b bc 24 ac 00 00 00 	mov    edi,DWORD PTR [rsp+0xac]
    4ac7:	ff 15 1b 65 00 00    	call   QWORD PTR [rip+0x651b]        # afe8 <iswprint@GLIBC_2.2.5>
    4acd:	4c 89 f7             	mov    rdi,r14
    4ad0:	85 c0                	test   eax,eax
    4ad2:	b8 00 00 00 00       	mov    eax,0x0
    4ad7:	44 0f 44 e8          	cmove  r13d,eax
    4adb:	48 01 eb             	add    rbx,rbp
    4ade:	ff 15 64 64 00 00    	call   QWORD PTR [rip+0x6464]        # af48 <mbsinit@GLIBC_2.2.5>
    4ae4:	85 c0                	test   eax,eax
    4ae6:	0f 85 55 05 00 00    	jne    5041 <__progname@@GLIBC_2.2.5-0x605f>
    4aec:	48 8b 44 24 30       	mov    rax,QWORD PTR [rsp+0x30]
    4af1:	48 8b 54 24 28       	mov    rdx,QWORD PTR [rsp+0x28]
    4af6:	4c 89 f1             	mov    rcx,r14
    4af9:	48 8b 7c 24 38       	mov    rdi,QWORD PTR [rsp+0x38]
    4afe:	4c 8d 3c 18          	lea    r15,[rax+rbx*1]
    4b02:	48 8b 44 24 10       	mov    rax,QWORD PTR [rsp+0x10]
    4b07:	4c 29 fa             	sub    rdx,r15
    4b0a:	4e 8d 24 38          	lea    r12,[rax+r15*1]
    4b0e:	4c 89 e6             	mov    rsi,r12
    4b11:	67 e8 c9 1e 00 00    	addr32 call 69e0 <__progname@@GLIBC_2.2.5-0x46c0>
    4b17:	48 89 c5             	mov    rbp,rax
    4b1a:	48 85 c0             	test   rax,rax
    4b1d:	0f 84 1e 05 00 00    	je     5041 <__progname@@GLIBC_2.2.5-0x605f>
    4b23:	48 83 f8 ff          	cmp    rax,0xffffffffffffffff
    4b27:	0f 84 07 06 00 00    	je     5134 <__progname@@GLIBC_2.2.5-0x5f6c>
    4b2d:	48 83 f8 fe          	cmp    rax,0xfffffffffffffffe
    4b31:	0f 84 42 06 00 00    	je     5179 <__progname@@GLIBC_2.2.5-0x5f27>
    4b37:	83 7c 24 44 02       	cmp    DWORD PTR [rsp+0x44],0x2
    4b3c:	75 82                	jne    4ac0 <__progname@@GLIBC_2.2.5-0x65e0>
    4b3e:	80 7c 24 43 00       	cmp    BYTE PTR [rsp+0x43],0x0
    4b43:	0f 84 77 ff ff ff    	je     4ac0 <__progname@@GLIBC_2.2.5-0x65e0>
    4b49:	48 83 f8 01          	cmp    rax,0x1
    4b4d:	0f 84 6d ff ff ff    	je     4ac0 <__progname@@GLIBC_2.2.5-0x65e0>
    4b53:	48 8b 74 24 10       	mov    rsi,QWORD PTR [rsp+0x10]
    4b58:	4a 8d 44 3e 01       	lea    rax,[rsi+r15*1+0x1]
    4b5d:	48 01 ee             	add    rsi,rbp
    4b60:	4c 01 fe             	add    rsi,r15
    4b63:	eb 10                	jmp    4b75 <__progname@@GLIBC_2.2.5-0x652b>
    4b65:	0f 1f 00             	nop    DWORD PTR [rax]
    4b68:	48 83 c0 01          	add    rax,0x1
    4b6c:	48 39 c6             	cmp    rsi,rax
    4b6f:	0f 84 4b ff ff ff    	je     4ac0 <__progname@@GLIBC_2.2.5-0x65e0>
    4b75:	0f b6 38             	movzx  edi,BYTE PTR [rax]
    4b78:	8d 4f a5             	lea    ecx,[rdi-0x5b]
    4b7b:	80 f9 21             	cmp    cl,0x21
    4b7e:	77 e8                	ja     4b68 <__progname@@GLIBC_2.2.5-0x6538>
    4b80:	ba 01 00 00 00       	mov    edx,0x1
    4b85:	48 d3 e2             	shl    rdx,cl
    4b88:	48 b9 2b 00 00 00 02 	movabs rcx,0x20000002b
    4b8f:	00 00 00 
    4b92:	48 85 ca             	test   rdx,rcx
    4b95:	74 d1                	je     4b68 <__progname@@GLIBC_2.2.5-0x6538>
    4b97:	4c 8b 74 24 78       	mov    r14,QWORD PTR [rsp+0x78]
    4b9c:	4c 8b a4 24 80 00 00 	mov    r12,QWORD PTR [rsp+0x80]
    4ba3:	00 
    4ba4:	41 bb 02 00 00 00    	mov    r11d,0x2
    4baa:	48 8b 6c 24 28       	mov    rbp,QWORD PTR [rsp+0x28]
    4baf:	e9 50 f9 ff ff       	jmp    4504 <__progname@@GLIBC_2.2.5-0x6b9c>
    4bb4:	0f 1f 40 00          	nop    DWORD PTR [rax+0x0]
    4bb8:	88 44 24 0c          	mov    BYTE PTR [rsp+0xc],al
    4bbc:	45 31 ed             	xor    r13d,r13d
    4bbf:	e9 3b f7 ff ff       	jmp    42ff <__progname@@GLIBC_2.2.5-0x6da1>
    4bc4:	0f 1f 40 00          	nop    DWORD PTR [rax+0x0]
    4bc8:	4c 89 f9             	mov    rcx,r15
    4bcb:	4d 39 fc             	cmp    r12,r15
    4bce:	0f 86 6e fa ff ff    	jbe    4642 <__progname@@GLIBC_2.2.5-0x6a5e>
    4bd4:	44 89 c0             	mov    eax,r8d
    4bd7:	e9 5e fa ff ff       	jmp    463a <__progname@@GLIBC_2.2.5-0x6a66>
    4bdc:	4d 39 fc             	cmp    r12,r15
    4bdf:	76 05                	jbe    4be6 <__progname@@GLIBC_2.2.5-0x64ba>
    4be1:	43 c6 04 3e 27       	mov    BYTE PTR [r14+r15*1],0x27
    4be6:	49 8d 47 01          	lea    rax,[r15+0x1]
    4bea:	49 39 c4             	cmp    r12,rax
    4bed:	76 06                	jbe    4bf5 <__progname@@GLIBC_2.2.5-0x64ab>
    4bef:	43 c6 44 3e 01 5c    	mov    BYTE PTR [r14+r15*1+0x1],0x5c
    4bf5:	49 8d 47 02          	lea    rax,[r15+0x2]
    4bf9:	49 39 c4             	cmp    r12,rax
    4bfc:	0f 86 9d 07 00 00    	jbe    539f <__progname@@GLIBC_2.2.5-0x5d01>
    4c02:	4c 89 e2             	mov    rdx,r12
    4c05:	43 c6 44 3e 02 27    	mov    BYTE PTR [r14+r15*1+0x2],0x27
    4c0b:	4c 8b 64 24 50       	mov    r12,QWORD PTR [rsp+0x50]
    4c10:	e9 bd f7 ff ff       	jmp    43d2 <__progname@@GLIBC_2.2.5-0x6cce>
    4c15:	48 83 c5 01          	add    rbp,0x1
    4c19:	e9 7a f5 ff ff       	jmp    4198 <__progname@@GLIBC_2.2.5-0x6f08>
    4c1e:	0f b6 54 24 08       	movzx  edx,BYTE PTR [rsp+0x8]
    4c23:	45 31 ed             	xor    r13d,r13d
    4c26:	48 89 f9             	mov    rcx,rdi
    4c29:	44 88 6c 24 28       	mov    BYTE PTR [rsp+0x28],r13b
    4c2e:	31 f6                	xor    esi,esi
    4c30:	44 0f b6 6c 24 43    	movzx  r13d,BYTE PTR [rsp+0x43]
    4c36:	48 01 e9             	add    rcx,rbp
    4c39:	0f b6 7c 24 0c       	movzx  edi,BYTE PTR [rsp+0xc]
    4c3e:	4c 8b 4c 24 10       	mov    r9,QWORD PTR [rsp+0x10]
    4c43:	e9 b6 00 00 00       	jmp    4cfe <__progname@@GLIBC_2.2.5-0x63a2>
    4c48:	0f 1f 84 00 00 00 00 	nop    DWORD PTR [rax+rax*1+0x0]
    4c4f:	00 
    4c50:	41 83 fa 02          	cmp    r10d,0x2
    4c54:	0f 94 c0             	sete   al
    4c57:	45 84 ed             	test   r13b,r13b
    4c5a:	0f 85 01 01 00 00    	jne    4d61 <__progname@@GLIBC_2.2.5-0x633f>
    4c60:	44 89 c6             	mov    esi,r8d
    4c63:	83 f6 01             	xor    esi,0x1
    4c66:	40 20 f0             	and    al,sil
    4c69:	74 2f                	je     4c9a <__progname@@GLIBC_2.2.5-0x6406>
    4c6b:	4d 39 fc             	cmp    r12,r15
    4c6e:	76 05                	jbe    4c75 <__progname@@GLIBC_2.2.5-0x642b>
    4c70:	43 c6 04 3e 27       	mov    BYTE PTR [r14+r15*1],0x27
    4c75:	49 8d 77 01          	lea    rsi,[r15+0x1]
    4c79:	49 39 f4             	cmp    r12,rsi
    4c7c:	76 06                	jbe    4c84 <__progname@@GLIBC_2.2.5-0x641c>
    4c7e:	43 c6 44 3e 01 24    	mov    BYTE PTR [r14+r15*1+0x1],0x24
    4c84:	49 8d 77 02          	lea    rsi,[r15+0x2]
    4c88:	49 39 f4             	cmp    r12,rsi
    4c8b:	76 06                	jbe    4c93 <__progname@@GLIBC_2.2.5-0x640d>
    4c8d:	43 c6 44 3e 02 27    	mov    BYTE PTR [r14+r15*1+0x2],0x27
    4c93:	49 83 c7 03          	add    r15,0x3
    4c97:	41 89 c0             	mov    r8d,eax
    4c9a:	4d 39 fc             	cmp    r12,r15
    4c9d:	76 05                	jbe    4ca4 <__progname@@GLIBC_2.2.5-0x63fc>
    4c9f:	43 c6 04 3e 5c       	mov    BYTE PTR [r14+r15*1],0x5c
    4ca4:	49 8d 47 01          	lea    rax,[r15+0x1]
    4ca8:	49 39 c4             	cmp    r12,rax
    4cab:	76 0d                	jbe    4cba <__progname@@GLIBC_2.2.5-0x63e6>
    4cad:	89 d8                	mov    eax,ebx
    4caf:	c0 e8 06             	shr    al,0x6
    4cb2:	83 c0 30             	add    eax,0x30
    4cb5:	43 88 44 3e 01       	mov    BYTE PTR [r14+r15*1+0x1],al
    4cba:	49 8d 47 02          	lea    rax,[r15+0x2]
    4cbe:	49 39 c4             	cmp    r12,rax
    4cc1:	76 10                	jbe    4cd3 <__progname@@GLIBC_2.2.5-0x63cd>
    4cc3:	89 d8                	mov    eax,ebx
    4cc5:	c0 e8 03             	shr    al,0x3
    4cc8:	83 e0 07             	and    eax,0x7
    4ccb:	83 c0 30             	add    eax,0x30
    4cce:	43 88 44 3e 02       	mov    BYTE PTR [r14+r15*1+0x2],al
    4cd3:	83 e3 07             	and    ebx,0x7
    4cd6:	48 83 c5 01          	add    rbp,0x1
    4cda:	49 83 c7 03          	add    r15,0x3
    4cde:	83 c3 30             	add    ebx,0x30
    4ce1:	48 39 cd             	cmp    rbp,rcx
    4ce4:	0f 83 36 03 00 00    	jae    5020 <__progname@@GLIBC_2.2.5-0x6080>
    4cea:	89 d6                	mov    esi,edx
    4cec:	4d 39 fc             	cmp    r12,r15
    4cef:	76 04                	jbe    4cf5 <__progname@@GLIBC_2.2.5-0x63ab>
    4cf1:	43 88 1c 3e          	mov    BYTE PTR [r14+r15*1],bl
    4cf5:	41 0f b6 1c 29       	movzx  ebx,BYTE PTR [r9+rbp*1]
    4cfa:	49 83 c7 01          	add    r15,0x1
    4cfe:	84 d2                	test   dl,dl
    4d00:	0f 85 4a ff ff ff    	jne    4c50 <__progname@@GLIBC_2.2.5-0x6450>
    4d06:	89 f0                	mov    eax,esi
    4d08:	83 f0 01             	xor    eax,0x1
    4d0b:	44 21 c0             	and    eax,r8d
    4d0e:	40 84 ff             	test   dil,dil
    4d11:	74 0e                	je     4d21 <__progname@@GLIBC_2.2.5-0x637f>
    4d13:	4d 39 fc             	cmp    r12,r15
    4d16:	76 05                	jbe    4d1d <__progname@@GLIBC_2.2.5-0x6383>
    4d18:	43 c6 04 3e 5c       	mov    BYTE PTR [r14+r15*1],0x5c
    4d1d:	49 83 c7 01          	add    r15,0x1
    4d21:	48 83 c5 01          	add    rbp,0x1
    4d25:	48 39 cd             	cmp    rbp,rcx
    4d28:	73 2c                	jae    4d56 <__progname@@GLIBC_2.2.5-0x634a>
    4d2a:	84 c0                	test   al,al
    4d2c:	0f 84 08 03 00 00    	je     503a <__progname@@GLIBC_2.2.5-0x6066>
    4d32:	4d 39 fc             	cmp    r12,r15
    4d35:	76 05                	jbe    4d3c <__progname@@GLIBC_2.2.5-0x6364>
    4d37:	43 c6 04 3e 27       	mov    BYTE PTR [r14+r15*1],0x27
    4d3c:	49 8d 47 01          	lea    rax,[r15+0x1]
    4d40:	49 39 c4             	cmp    r12,rax
    4d43:	76 06                	jbe    4d4b <__progname@@GLIBC_2.2.5-0x6355>
    4d45:	43 c6 44 3e 01 27    	mov    BYTE PTR [r14+r15*1+0x1],0x27
    4d4b:	49 83 c7 02          	add    r15,0x2
    4d4f:	31 ff                	xor    edi,edi
    4d51:	45 31 c0             	xor    r8d,r8d
    4d54:	eb 96                	jmp    4cec <__progname@@GLIBC_2.2.5-0x63b4>
    4d56:	44 0f b6 6c 24 28    	movzx  r13d,BYTE PTR [rsp+0x28]
    4d5c:	e9 ab f6 ff ff       	jmp    440c <__progname@@GLIBC_2.2.5-0x6c94>
    4d61:	4c 89 dd             	mov    rbp,r11
    4d64:	88 44 24 08          	mov    BYTE PTR [rsp+0x8],al
    4d68:	45 89 d3             	mov    r11d,r10d
    4d6b:	e9 94 f7 ff ff       	jmp    4504 <__progname@@GLIBC_2.2.5-0x6b9c>
    4d70:	49 83 c7 04          	add    r15,0x4
    4d74:	41 89 c0             	mov    r8d,eax
    4d77:	45 31 ed             	xor    r13d,r13d
    4d7a:	bb 30 00 00 00       	mov    ebx,0x30
    4d7f:	e9 6c f6 ff ff       	jmp    43f0 <__progname@@GLIBC_2.2.5-0x6cb0>
    4d84:	85 db                	test   ebx,ebx
    4d86:	0f 85 b2 f3 ff ff    	jne    413e <__progname@@GLIBC_2.2.5-0x6f62>
    4d8c:	c6 44 24 08 01       	mov    BYTE PTR [rsp+0x8],0x1
    4d91:	4d 85 e4             	test   r12,r12
    4d94:	0f 85 e5 05 00 00    	jne    537f <__progname@@GLIBC_2.2.5-0x5d21>
    4d9a:	48 8d 05 7c 2e 00 00 	lea    rax,[rip+0x2e7c]        # 7c1d <__progname@@GLIBC_2.2.5-0x3483>
    4da1:	c6 44 24 42 01       	mov    BYTE PTR [rsp+0x42],0x1
    4da6:	45 31 ed             	xor    r13d,r13d
    4da9:	41 bf 01 00 00 00    	mov    r15d,0x1
    4daf:	48 c7 44 24 50 00 00 	mov    QWORD PTR [rsp+0x50],0x0
    4db6:	00 00 
    4db8:	41 bb 02 00 00 00    	mov    r11d,0x2
    4dbe:	c6 84 24 8d 00 00 00 	mov    BYTE PTR [rsp+0x8d],0x0
    4dc5:	00 
    4dc6:	c6 44 24 43 00       	mov    BYTE PTR [rsp+0x43],0x0
    4dcb:	48 c7 44 24 18 01 00 	mov    QWORD PTR [rsp+0x18],0x1
    4dd2:	00 00 
    4dd4:	48 89 44 24 48       	mov    QWORD PTR [rsp+0x48],rax
    4dd9:	e9 a1 f3 ff ff       	jmp    417f <__progname@@GLIBC_2.2.5-0x6f21>
    4dde:	85 db                	test   ebx,ebx
    4de0:	0f 85 4a 04 00 00    	jne    5230 <__progname@@GLIBC_2.2.5-0x5e70>
    4de6:	4d 85 e4             	test   r12,r12
    4de9:	0f 84 a3 02 00 00    	je     5092 <__progname@@GLIBC_2.2.5-0x600e>
    4def:	41 c6 06 22          	mov    BYTE PTR [r14],0x22
    4df3:	45 31 ed             	xor    r13d,r13d
    4df6:	c6 44 24 42 01       	mov    BYTE PTR [rsp+0x42],0x1
    4dfb:	c6 84 24 8d 00 00 00 	mov    BYTE PTR [rsp+0x8d],0x0
    4e02:	00 
    4e03:	48 c7 44 24 50 00 00 	mov    QWORD PTR [rsp+0x50],0x0
    4e0a:	00 00 
    4e0c:	48 8d 05 f9 2d 00 00 	lea    rax,[rip+0x2df9]        # 7c0c <__progname@@GLIBC_2.2.5-0x3494>
    4e13:	c6 44 24 43 00       	mov    BYTE PTR [rsp+0x43],0x0
    4e18:	41 bf 01 00 00 00    	mov    r15d,0x1
    4e1e:	c6 44 24 08 01       	mov    BYTE PTR [rsp+0x8],0x1
    4e23:	48 c7 44 24 18 01 00 	mov    QWORD PTR [rsp+0x18],0x1
    4e2a:	00 00 
    4e2c:	48 89 44 24 48       	mov    QWORD PTR [rsp+0x48],rax
    4e31:	e9 49 f3 ff ff       	jmp    417f <__progname@@GLIBC_2.2.5-0x6f21>
    4e36:	41 83 fb 0a          	cmp    r11d,0xa
    4e3a:	74 37                	je     4e73 <__progname@@GLIBC_2.2.5-0x622d>
    4e3c:	44 89 de             	mov    esi,r11d
    4e3f:	48 8d 3d d9 2d 00 00 	lea    rdi,[rip+0x2dd9]        # 7c1f <__progname@@GLIBC_2.2.5-0x3481>
    4e46:	44 89 5c 24 08       	mov    DWORD PTR [rsp+0x8],r11d
    4e4b:	e8 40 f1 ff ff       	call   3f90 <__progname@@GLIBC_2.2.5-0x7110>
    4e50:	44 8b 5c 24 08       	mov    r11d,DWORD PTR [rsp+0x8]
    4e55:	48 8d 3d c1 2d 00 00 	lea    rdi,[rip+0x2dc1]        # 7c1d <__progname@@GLIBC_2.2.5-0x3483>
    4e5c:	48 89 44 24 68       	mov    QWORD PTR [rsp+0x68],rax
    4e61:	44 89 de             	mov    esi,r11d
    4e64:	e8 27 f1 ff ff       	call   3f90 <__progname@@GLIBC_2.2.5-0x7110>
    4e69:	44 8b 5c 24 08       	mov    r11d,DWORD PTR [rsp+0x8]
    4e6e:	48 89 44 24 60       	mov    QWORD PTR [rsp+0x60],rax
    4e73:	45 31 ff             	xor    r15d,r15d
    4e76:	85 db                	test   ebx,ebx
    4e78:	0f 84 77 03 00 00    	je     51f5 <__progname@@GLIBC_2.2.5-0x5eab>
    4e7e:	48 8b 5c 24 60       	mov    rbx,QWORD PTR [rsp+0x60]
    4e83:	44 89 5c 24 0c       	mov    DWORD PTR [rsp+0xc],r11d
    4e88:	45 31 ed             	xor    r13d,r13d
    4e8b:	48 89 df             	mov    rdi,rbx
    4e8e:	ff 15 2c 60 00 00    	call   QWORD PTR [rip+0x602c]        # aec0 <strlen@GLIBC_2.2.5>
    4e94:	48 89 5c 24 48       	mov    QWORD PTR [rsp+0x48],rbx
    4e99:	44 8b 5c 24 0c       	mov    r11d,DWORD PTR [rsp+0xc]
    4e9e:	48 89 44 24 18       	mov    QWORD PTR [rsp+0x18],rax
    4ea3:	c6 44 24 42 01       	mov    BYTE PTR [rsp+0x42],0x1
    4ea8:	c6 84 24 8d 00 00 00 	mov    BYTE PTR [rsp+0x8d],0x0
    4eaf:	00 
    4eb0:	48 c7 44 24 50 00 00 	mov    QWORD PTR [rsp+0x50],0x0
    4eb7:	00 00 
    4eb9:	c6 44 24 08 01       	mov    BYTE PTR [rsp+0x8],0x1
    4ebe:	e9 bc f2 ff ff       	jmp    417f <__progname@@GLIBC_2.2.5-0x6f21>
    4ec3:	48 8d 05 42 2d 00 00 	lea    rax,[rip+0x2d42]        # 7c0c <__progname@@GLIBC_2.2.5-0x3494>
    4eca:	c6 44 24 42 01       	mov    BYTE PTR [rsp+0x42],0x1
    4ecf:	45 31 ed             	xor    r13d,r13d
    4ed2:	45 31 ff             	xor    r15d,r15d
    4ed5:	c6 84 24 8d 00 00 00 	mov    BYTE PTR [rsp+0x8d],0x0
    4edc:	00 
    4edd:	41 bb 05 00 00 00    	mov    r11d,0x5
    4ee3:	48 c7 44 24 50 00 00 	mov    QWORD PTR [rsp+0x50],0x0
    4eea:	00 00 
    4eec:	c6 44 24 43 01       	mov    BYTE PTR [rsp+0x43],0x1
    4ef1:	c6 44 24 08 01       	mov    BYTE PTR [rsp+0x8],0x1
    4ef6:	48 c7 44 24 18 01 00 	mov    QWORD PTR [rsp+0x18],0x1
    4efd:	00 00 
    4eff:	48 89 44 24 48       	mov    QWORD PTR [rsp+0x48],rax
    4f04:	e9 76 f2 ff ff       	jmp    417f <__progname@@GLIBC_2.2.5-0x6f21>
    4f09:	c6 44 24 42 01       	mov    BYTE PTR [rsp+0x42],0x1
    4f0e:	45 31 ed             	xor    r13d,r13d
    4f11:	45 31 ff             	xor    r15d,r15d
    4f14:	c6 84 24 8d 00 00 00 	mov    BYTE PTR [rsp+0x8d],0x0
    4f1b:	00 
    4f1c:	48 c7 44 24 50 00 00 	mov    QWORD PTR [rsp+0x50],0x0
    4f23:	00 00 
    4f25:	c6 44 24 43 00       	mov    BYTE PTR [rsp+0x43],0x0
    4f2a:	c6 44 24 08 01       	mov    BYTE PTR [rsp+0x8],0x1
    4f2f:	48 c7 44 24 18 00 00 	mov    QWORD PTR [rsp+0x18],0x0
    4f36:	00 00 
    4f38:	48 c7 44 24 48 00 00 	mov    QWORD PTR [rsp+0x48],0x0
    4f3f:	00 00 
    4f41:	e9 39 f2 ff ff       	jmp    417f <__progname@@GLIBC_2.2.5-0x6f21>
    4f46:	c6 44 24 42 01       	mov    BYTE PTR [rsp+0x42],0x1
    4f4b:	45 31 ed             	xor    r13d,r13d
    4f4e:	45 31 ff             	xor    r15d,r15d
    4f51:	c6 84 24 8d 00 00 00 	mov    BYTE PTR [rsp+0x8d],0x0
    4f58:	00 
    4f59:	48 c7 44 24 50 00 00 	mov    QWORD PTR [rsp+0x50],0x0
    4f60:	00 00 
    4f62:	c6 44 24 43 00       	mov    BYTE PTR [rsp+0x43],0x0
    4f67:	c6 44 24 08 00       	mov    BYTE PTR [rsp+0x8],0x0
    4f6c:	48 c7 44 24 18 00 00 	mov    QWORD PTR [rsp+0x18],0x0
    4f73:	00 00 
    4f75:	48 c7 44 24 48 00 00 	mov    QWORD PTR [rsp+0x48],0x0
    4f7c:	00 00 
    4f7e:	e9 fc f1 ff ff       	jmp    417f <__progname@@GLIBC_2.2.5-0x6f21>
    4f83:	c6 44 24 42 01       	mov    BYTE PTR [rsp+0x42],0x1
    4f88:	45 31 ed             	xor    r13d,r13d
    4f8b:	c6 84 24 8d 00 00 00 	mov    BYTE PTR [rsp+0x8d],0x0
    4f92:	00 
    4f93:	48 c7 44 24 50 00 00 	mov    QWORD PTR [rsp+0x50],0x0
    4f9a:	00 00 
    4f9c:	c6 44 24 43 01       	mov    BYTE PTR [rsp+0x43],0x1
    4fa1:	c6 44 24 08 01       	mov    BYTE PTR [rsp+0x8],0x1
    4fa6:	e9 b6 f1 ff ff       	jmp    4161 <__progname@@GLIBC_2.2.5-0x6f3f>
    4fab:	0f b6 44 24 0c       	movzx  eax,BYTE PTR [rsp+0xc]
    4fb0:	e9 35 f9 ff ff       	jmp    48ea <__progname@@GLIBC_2.2.5-0x67b6>
    4fb5:	31 d2                	xor    edx,edx
    4fb7:	45 31 ed             	xor    r13d,r13d
    4fba:	bb 62 00 00 00       	mov    ebx,0x62
    4fbf:	e9 75 f3 ff ff       	jmp    4339 <__progname@@GLIBC_2.2.5-0x6d67>
    4fc4:	bb 61 00 00 00       	mov    ebx,0x61
    4fc9:	e9 fa f5 ff ff       	jmp    45c8 <__progname@@GLIBC_2.2.5-0x6ad8>
    4fce:	0f b6 44 24 0c       	movzx  eax,BYTE PTR [rsp+0xc]
    4fd3:	e9 da f8 ff ff       	jmp    48b2 <__progname@@GLIBC_2.2.5-0x67ee>
    4fd8:	0f b6 44 24 0c       	movzx  eax,BYTE PTR [rsp+0xc]
    4fdd:	e9 e8 f8 ff ff       	jmp    48ca <__progname@@GLIBC_2.2.5-0x67d6>
    4fe2:	4d 39 fc             	cmp    r12,r15
    4fe5:	76 05                	jbe    4fec <__progname@@GLIBC_2.2.5-0x60b4>
    4fe7:	43 c6 04 3e 30       	mov    BYTE PTR [r14+r15*1],0x30
    4fec:	48 8d 41 02          	lea    rax,[rcx+0x2]
    4ff0:	49 39 c4             	cmp    r12,rax
    4ff3:	76 06                	jbe    4ffb <__progname@@GLIBC_2.2.5-0x60a5>
    4ff5:	41 c6 44 0e 02 30    	mov    BYTE PTR [r14+rcx*1+0x2],0x30
    4ffb:	4c 8d 79 03          	lea    r15,[rcx+0x3]
    4fff:	bb 30 00 00 00       	mov    ebx,0x30
    5004:	e9 6e f6 ff ff       	jmp    4677 <__progname@@GLIBC_2.2.5-0x6a29>
    5009:	85 db                	test   ebx,ebx
    500b:	0f 85 2e 03 00 00    	jne    533f <__progname@@GLIBC_2.2.5-0x5d61>
    5011:	c6 44 24 08 00       	mov    BYTE PTR [rsp+0x8],0x0
    5016:	e9 76 fd ff ff       	jmp    4d91 <__progname@@GLIBC_2.2.5-0x630f>
    501b:	0f 1f 44 00 00       	nop    DWORD PTR [rax+rax*1+0x0]
    5020:	44 0f b6 6c 24 28    	movzx  r13d,BYTE PTR [rsp+0x28]
    5026:	e9 59 f3 ff ff       	jmp    4384 <__progname@@GLIBC_2.2.5-0x6d1c>
    502b:	48 83 c5 01          	add    rbp,0x1
    502f:	44 89 c0             	mov    eax,r8d
    5032:	45 31 ed             	xor    r13d,r13d
    5035:	e9 d2 f3 ff ff       	jmp    440c <__progname@@GLIBC_2.2.5-0x6c94>
    503a:	31 ff                	xor    edi,edi
    503c:	e9 ab fc ff ff       	jmp    4cec <__progname@@GLIBC_2.2.5-0x63b4>
    5041:	48 89 df             	mov    rdi,rbx
    5044:	44 89 ea             	mov    edx,r13d
    5047:	48 8b 6c 24 30       	mov    rbp,QWORD PTR [rsp+0x30]
    504c:	4c 8b 74 24 78       	mov    r14,QWORD PTR [rsp+0x78]
    5051:	0f b6 9c 24 8f 00 00 	movzx  ebx,BYTE PTR [rsp+0x8f]
    5058:	00 
    5059:	4c 8b 5c 24 28       	mov    r11,QWORD PTR [rsp+0x28]
    505e:	83 f2 01             	xor    edx,0x1
    5061:	44 0f b6 84 24 8e 00 	movzx  r8d,BYTE PTR [rsp+0x8e]
    5068:	00 00 
    506a:	4c 8b bc 24 90 00 00 	mov    r15,QWORD PTR [rsp+0x90]
    5071:	00 
    5072:	4c 8b a4 24 80 00 00 	mov    r12,QWORD PTR [rsp+0x80]
    5079:	00 
    507a:	44 8b 54 24 44       	mov    r10d,DWORD PTR [rsp+0x44]
    507f:	22 54 24 08          	and    dl,BYTE PTR [rsp+0x8]
    5083:	48 83 ff 01          	cmp    rdi,0x1
    5087:	0f 87 99 fb ff ff    	ja     4c26 <__progname@@GLIBC_2.2.5-0x647a>
    508d:	e9 5a f6 ff ff       	jmp    46ec <__progname@@GLIBC_2.2.5-0x69b4>
    5092:	48 c7 44 24 50 00 00 	mov    QWORD PTR [rsp+0x50],0x0
    5099:	00 00 
    509b:	45 31 ed             	xor    r13d,r13d
    509e:	c6 44 24 42 01       	mov    BYTE PTR [rsp+0x42],0x1
    50a3:	c6 84 24 8d 00 00 00 	mov    BYTE PTR [rsp+0x8d],0x0
    50aa:	00 
    50ab:	e9 5c fd ff ff       	jmp    4e0c <__progname@@GLIBC_2.2.5-0x6294>
    50b0:	44 89 e8             	mov    eax,r13d
    50b3:	bb 30 00 00 00       	mov    ebx,0x30
    50b8:	45 31 ed             	xor    r13d,r13d
    50bb:	e9 30 f3 ff ff       	jmp    43f0 <__progname@@GLIBC_2.2.5-0x6cb0>
    50c0:	0f b6 1c 03          	movzx  ebx,BYTE PTR [rbx+rax*1]
    50c4:	80 fb 3e             	cmp    bl,0x3e
    50c7:	0f 87 1b f9 ff ff    	ja     49e8 <__progname@@GLIBC_2.2.5-0x66b8>
    50cd:	48 be 00 00 00 00 82 	movabs rsi,0x7000a38200000000
    50d4:	a3 00 70 
    50d7:	48 0f a3 de          	bt     rsi,rbx
    50db:	0f 83 07 f9 ff ff    	jae    49e8 <__progname@@GLIBC_2.2.5-0x66b8>
    50e1:	80 7c 24 43 00       	cmp    BYTE PTR [rsp+0x43],0x0
    50e6:	0f 85 8f 01 00 00    	jne    527b <__progname@@GLIBC_2.2.5-0x5e25>
    50ec:	4d 39 fc             	cmp    r12,r15
    50ef:	76 05                	jbe    50f6 <__progname@@GLIBC_2.2.5-0x5faa>
    50f1:	43 c6 04 3e 3f       	mov    BYTE PTR [r14+r15*1],0x3f
    50f6:	49 8d 57 01          	lea    rdx,[r15+0x1]
    50fa:	49 39 d4             	cmp    r12,rdx
    50fd:	76 06                	jbe    5105 <__progname@@GLIBC_2.2.5-0x5f9b>
    50ff:	43 c6 44 3e 01 22    	mov    BYTE PTR [r14+r15*1+0x1],0x22
    5105:	49 8d 57 02          	lea    rdx,[r15+0x2]
    5109:	49 39 d4             	cmp    r12,rdx
    510c:	76 06                	jbe    5114 <__progname@@GLIBC_2.2.5-0x5f8c>
    510e:	43 c6 44 3e 02 22    	mov    BYTE PTR [r14+r15*1+0x2],0x22
    5114:	49 8d 57 03          	lea    rdx,[r15+0x3]
    5118:	49 39 d4             	cmp    r12,rdx
    511b:	76 06                	jbe    5123 <__progname@@GLIBC_2.2.5-0x5f7d>
    511d:	43 c6 44 3e 03 3f    	mov    BYTE PTR [r14+r15*1+0x3],0x3f
    5123:	49 83 c7 04          	add    r15,0x4
    5127:	31 d2                	xor    edx,edx
    5129:	45 31 ed             	xor    r13d,r13d
    512c:	48 89 c5             	mov    rbp,rax
    512f:	e9 43 f5 ff ff       	jmp    4677 <__progname@@GLIBC_2.2.5-0x6a29>
    5134:	48 89 df             	mov    rdi,rbx
    5137:	48 8b 6c 24 30       	mov    rbp,QWORD PTR [rsp+0x30]
    513c:	4c 8b 74 24 78       	mov    r14,QWORD PTR [rsp+0x78]
    5141:	45 31 ed             	xor    r13d,r13d
    5144:	44 0f b6 84 24 8e 00 	movzx  r8d,BYTE PTR [rsp+0x8e]
    514b:	00 00 
    514d:	0f b6 9c 24 8f 00 00 	movzx  ebx,BYTE PTR [rsp+0x8f]
    5154:	00 
    5155:	4c 8b bc 24 90 00 00 	mov    r15,QWORD PTR [rsp+0x90]
    515c:	00 
    515d:	4c 8b a4 24 80 00 00 	mov    r12,QWORD PTR [rsp+0x80]
    5164:	00 
    5165:	4c 8b 5c 24 28       	mov    r11,QWORD PTR [rsp+0x28]
    516a:	44 8b 54 24 44       	mov    r10d,DWORD PTR [rsp+0x44]
    516f:	0f b6 54 24 08       	movzx  edx,BYTE PTR [rsp+0x8]
    5174:	e9 0a ff ff ff       	jmp    5083 <__progname@@GLIBC_2.2.5-0x601d>
    5179:	4c 8b 5c 24 28       	mov    r11,QWORD PTR [rsp+0x28]
    517e:	4c 89 fe             	mov    rsi,r15
    5181:	4c 89 e1             	mov    rcx,r12
    5184:	48 89 d8             	mov    rax,rbx
    5187:	48 89 df             	mov    rdi,rbx
    518a:	48 8b 6c 24 30       	mov    rbp,QWORD PTR [rsp+0x30]
    518f:	4c 8b 74 24 78       	mov    r14,QWORD PTR [rsp+0x78]
    5194:	4c 8b 8c 24 98 00 00 	mov    r9,QWORD PTR [rsp+0x98]
    519b:	00 
    519c:	0f b6 9c 24 8f 00 00 	movzx  ebx,BYTE PTR [rsp+0x8f]
    51a3:	00 
    51a4:	44 0f b6 84 24 8e 00 	movzx  r8d,BYTE PTR [rsp+0x8e]
    51ab:	00 00 
    51ad:	4c 8b bc 24 90 00 00 	mov    r15,QWORD PTR [rsp+0x90]
    51b4:	00 
    51b5:	4c 8b a4 24 80 00 00 	mov    r12,QWORD PTR [rsp+0x80]
    51bc:	00 
    51bd:	44 8b 54 24 44       	mov    r10d,DWORD PTR [rsp+0x44]
    51c2:	4c 39 de             	cmp    rsi,r11
    51c5:	73 21                	jae    51e8 <__progname@@GLIBC_2.2.5-0x5eb8>
    51c7:	80 39 00             	cmp    BYTE PTR [rcx],0x0
    51ca:	75 0b                	jne    51d7 <__progname@@GLIBC_2.2.5-0x5ec9>
    51cc:	eb 1a                	jmp    51e8 <__progname@@GLIBC_2.2.5-0x5eb8>
    51ce:	66 90                	xchg   ax,ax
    51d0:	41 80 3c 01 00       	cmp    BYTE PTR [r9+rax*1],0x0
    51d5:	74 0e                	je     51e5 <__progname@@GLIBC_2.2.5-0x5ebb>
    51d7:	48 83 c0 01          	add    rax,0x1
    51db:	48 8d 54 05 00       	lea    rdx,[rbp+rax*1+0x0]
    51e0:	4c 39 da             	cmp    rdx,r11
    51e3:	72 eb                	jb     51d0 <__progname@@GLIBC_2.2.5-0x5ed0>
    51e5:	48 89 c7             	mov    rdi,rax
    51e8:	0f b6 54 24 08       	movzx  edx,BYTE PTR [rsp+0x8]
    51ed:	45 31 ed             	xor    r13d,r13d
    51f0:	e9 8e fe ff ff       	jmp    5083 <__progname@@GLIBC_2.2.5-0x601d>
    51f5:	48 8b 54 24 68       	mov    rdx,QWORD PTR [rsp+0x68]
    51fa:	0f b6 02             	movzx  eax,BYTE PTR [rdx]
    51fd:	84 c0                	test   al,al
    51ff:	0f 84 79 fc ff ff    	je     4e7e <__progname@@GLIBC_2.2.5-0x6222>
    5205:	0f 1f 00             	nop    DWORD PTR [rax]
    5208:	4d 39 fc             	cmp    r12,r15
    520b:	76 04                	jbe    5211 <__progname@@GLIBC_2.2.5-0x5e8f>
    520d:	43 88 04 3e          	mov    BYTE PTR [r14+r15*1],al
    5211:	49 83 c7 01          	add    r15,0x1
    5215:	42 0f b6 04 3a       	movzx  eax,BYTE PTR [rdx+r15*1]
    521a:	84 c0                	test   al,al
    521c:	75 ea                	jne    5208 <__progname@@GLIBC_2.2.5-0x5e98>
    521e:	e9 5b fc ff ff       	jmp    4e7e <__progname@@GLIBC_2.2.5-0x6222>
    5223:	4c 89 dd             	mov    rbp,r11
    5226:	31 c0                	xor    eax,eax
    5228:	45 89 d3             	mov    r11d,r10d
    522b:	e9 d0 f2 ff ff       	jmp    4500 <__progname@@GLIBC_2.2.5-0x6ba0>
    5230:	48 8d 05 d5 29 00 00 	lea    rax,[rip+0x29d5]        # 7c0c <__progname@@GLIBC_2.2.5-0x3494>
    5237:	c6 44 24 42 01       	mov    BYTE PTR [rsp+0x42],0x1
    523c:	45 31 ed             	xor    r13d,r13d
    523f:	45 31 ff             	xor    r15d,r15d
    5242:	c6 84 24 8d 00 00 00 	mov    BYTE PTR [rsp+0x8d],0x0
    5249:	00 
    524a:	48 c7 44 24 50 00 00 	mov    QWORD PTR [rsp+0x50],0x0
    5251:	00 00 
    5253:	c6 44 24 43 01       	mov    BYTE PTR [rsp+0x43],0x1
    5258:	c6 44 24 08 01       	mov    BYTE PTR [rsp+0x8],0x1
    525d:	48 c7 44 24 18 01 00 	mov    QWORD PTR [rsp+0x18],0x1
    5264:	00 00 
    5266:	48 89 44 24 48       	mov    QWORD PTR [rsp+0x48],rax
    526b:	e9 0f ef ff ff       	jmp    417f <__progname@@GLIBC_2.2.5-0x6f21>
    5270:	4c 89 dd             	mov    rbp,r11
    5273:	45 89 d3             	mov    r11d,r10d
    5276:	e9 89 f2 ff ff       	jmp    4504 <__progname@@GLIBC_2.2.5-0x6b9c>
    527b:	4c 89 dd             	mov    rbp,r11
    527e:	45 89 d3             	mov    r11d,r10d
    5281:	e9 8c f2 ff ff       	jmp    4512 <__progname@@GLIBC_2.2.5-0x6b8e>
    5286:	89 c2                	mov    edx,eax
    5288:	48 8b 44 24 48       	mov    rax,QWORD PTR [rsp+0x48]
    528d:	48 85 c0             	test   rax,rax
    5290:	74 29                	je     52bb <__progname@@GLIBC_2.2.5-0x5de5>
    5292:	84 d2                	test   dl,dl
    5294:	74 25                	je     52bb <__progname@@GLIBC_2.2.5-0x5de5>
    5296:	0f b6 08             	movzx  ecx,BYTE PTR [rax]
    5299:	84 c9                	test   cl,cl
    529b:	74 1e                	je     52bb <__progname@@GLIBC_2.2.5-0x5de5>
    529d:	4c 89 fa             	mov    rdx,r15
    52a0:	4c 29 f8             	sub    rax,r15
    52a3:	49 39 d4             	cmp    r12,rdx
    52a6:	76 04                	jbe    52ac <__progname@@GLIBC_2.2.5-0x5df4>
    52a8:	41 88 0c 16          	mov    BYTE PTR [r14+rdx*1],cl
    52ac:	48 83 c2 01          	add    rdx,0x1
    52b0:	0f b6 0c 10          	movzx  ecx,BYTE PTR [rax+rdx*1]
    52b4:	84 c9                	test   cl,cl
    52b6:	75 eb                	jne    52a3 <__progname@@GLIBC_2.2.5-0x5dfd>
    52b8:	49 89 d7             	mov    r15,rdx
    52bb:	4d 39 fc             	cmp    r12,r15
    52be:	0f 86 85 f2 ff ff    	jbe    4549 <__progname@@GLIBC_2.2.5-0x6b57>
    52c4:	43 c6 04 3e 00       	mov    BYTE PTR [r14+r15*1],0x0
    52c9:	e9 7b f2 ff ff       	jmp    4549 <__progname@@GLIBC_2.2.5-0x6b57>
    52ce:	41 83 fa 02          	cmp    r10d,0x2
    52d2:	4c 89 dd             	mov    rbp,r11
    52d5:	45 89 d3             	mov    r11d,r10d
    52d8:	0f 94 44 24 08       	sete   BYTE PTR [rsp+0x8]
    52dd:	e9 22 f2 ff ff       	jmp    4504 <__progname@@GLIBC_2.2.5-0x6b9c>
    52e2:	48 83 ec 08          	sub    rsp,0x8
    52e6:	41 b8 05 00 00 00    	mov    r8d,0x5
    52ec:	48 89 e9             	mov    rcx,rbp
    52ef:	4c 89 f7             	mov    rdi,r14
    52f2:	ff 74 24 68          	push   QWORD PTR [rsp+0x68]
    52f6:	ff 74 24 78          	push   QWORD PTR [rsp+0x78]
    52fa:	ff 74 24 38          	push   QWORD PTR [rsp+0x38]
    52fe:	44 8b 8c 24 a8 00 00 	mov    r9d,DWORD PTR [rsp+0xa8]
    5305:	00 
    5306:	48 8b 54 24 30       	mov    rdx,QWORD PTR [rsp+0x30]
    530b:	48 8b 74 24 70       	mov    rsi,QWORD PTR [rsp+0x70]
    5310:	e8 8b ed ff ff       	call   40a0 <__progname@@GLIBC_2.2.5-0x7000>
    5315:	48 83 c4 20          	add    rsp,0x20
    5319:	49 89 c7             	mov    r15,rax
    531c:	e9 28 f2 ff ff       	jmp    4549 <__progname@@GLIBC_2.2.5-0x6b57>
    5321:	0f b6 94 24 8d 00 00 	movzx  edx,BYTE PTR [rsp+0x8d]
    5328:	00 
    5329:	e9 5a ff ff ff       	jmp    5288 <__progname@@GLIBC_2.2.5-0x5e18>
    532e:	41 bb 02 00 00 00    	mov    r11d,0x2
    5334:	e9 cb f1 ff ff       	jmp    4504 <__progname@@GLIBC_2.2.5-0x6b9c>
    5339:	ff 15 21 5c 00 00    	call   QWORD PTR [rip+0x5c21]        # af60 <__stack_chk_fail@GLIBC_2.4>
    533f:	48 8d 05 d7 28 00 00 	lea    rax,[rip+0x28d7]        # 7c1d <__progname@@GLIBC_2.2.5-0x3483>
    5346:	c6 44 24 42 01       	mov    BYTE PTR [rsp+0x42],0x1
    534b:	45 31 ed             	xor    r13d,r13d
    534e:	45 31 ff             	xor    r15d,r15d
    5351:	c6 84 24 8d 00 00 00 	mov    BYTE PTR [rsp+0x8d],0x0
    5358:	00 
    5359:	48 c7 44 24 50 00 00 	mov    QWORD PTR [rsp+0x50],0x0
    5360:	00 00 
    5362:	c6 44 24 43 01       	mov    BYTE PTR [rsp+0x43],0x1
    5367:	c6 44 24 08 00       	mov    BYTE PTR [rsp+0x8],0x0
    536c:	48 c7 44 24 18 01 00 	mov    QWORD PTR [rsp+0x18],0x1
    5373:	00 00 
    5375:	48 89 44 24 48       	mov    QWORD PTR [rsp+0x48],rax
    537a:	e9 00 ee ff ff       	jmp    417f <__progname@@GLIBC_2.2.5-0x6f21>
    537f:	4c 89 64 24 50       	mov    QWORD PTR [rsp+0x50],r12
    5384:	31 d2                	xor    edx,edx
    5386:	31 c0                	xor    eax,eax
    5388:	45 31 ed             	xor    r13d,r13d
    538b:	c6 44 24 42 01       	mov    BYTE PTR [rsp+0x42],0x1
    5390:	e9 e4 f5 ff ff       	jmp    4979 <__progname@@GLIBC_2.2.5-0x6727>
    5395:	89 cb                	mov    ebx,ecx
    5397:	45 31 ed             	xor    r13d,r13d
    539a:	e9 8f ef ff ff       	jmp    432e <__progname@@GLIBC_2.2.5-0x6d72>
    539f:	4c 89 e2             	mov    rdx,r12
    53a2:	4c 8b 64 24 50       	mov    r12,QWORD PTR [rsp+0x50]
    53a7:	e9 26 f0 ff ff       	jmp    43d2 <__progname@@GLIBC_2.2.5-0x6cce>
    53ac:	0f 1f 40 00          	nop    DWORD PTR [rax+0x0]
    53b0:	41 57                	push   r15
    53b2:	4c 63 ff             	movsxd r15,edi
    53b5:	41 56                	push   r14
    53b7:	49 89 d6             	mov    r14,rdx
    53ba:	41 55                	push   r13
    53bc:	41 54                	push   r12
    53be:	55                   	push   rbp
    53bf:	48 89 cd             	mov    rbp,rcx
    53c2:	53                   	push   rbx
    53c3:	48 83 ec 28          	sub    rsp,0x28
    53c7:	48 89 74 24 08       	mov    QWORD PTR [rsp+0x8],rsi
    53cc:	ff 15 7e 5b 00 00    	call   QWORD PTR [rip+0x5b7e]        # af50 <__errno_location@GLIBC_2.2.5>
    53d2:	48 8b 1d a7 5c 00 00 	mov    rbx,QWORD PTR [rip+0x5ca7]        # b080 <__progname@@GLIBC_2.2.5-0x20>
    53d9:	49 89 c5             	mov    r13,rax
    53dc:	8b 00                	mov    eax,DWORD PTR [rax]
    53de:	89 44 24 18          	mov    DWORD PTR [rsp+0x18],eax
    53e2:	45 85 ff             	test   r15d,r15d
    53e5:	0f 88 3b cc ff ff    	js     2026 <__progname@@GLIBC_2.2.5-0x907a>
    53eb:	44 39 3d 86 5c 00 00 	cmp    DWORD PTR [rip+0x5c86],r15d        # b078 <__progname@@GLIBC_2.2.5-0x28>
    53f2:	7f 64                	jg     5458 <__progname@@GLIBC_2.2.5-0x5c48>
    53f4:	41 81 ff ff ff ff 7f 	cmp    r15d,0x7fffffff
    53fb:	0f 84 51 01 00 00    	je     5552 <__progname@@GLIBC_2.2.5-0x5b4e>
    5401:	45 8d 67 01          	lea    r12d,[r15+0x1]
    5405:	48 8d 05 84 5c 00 00 	lea    rax,[rip+0x5c84]        # b090 <__progname@@GLIBC_2.2.5-0x10>
    540c:	49 63 f4             	movsxd rsi,r12d
    540f:	48 c1 e6 04          	shl    rsi,0x4
    5413:	48 39 c3             	cmp    rbx,rax
    5416:	0f 84 14 01 00 00    	je     5530 <__progname@@GLIBC_2.2.5-0x5b70>
    541c:	48 89 df             	mov    rdi,rbx
    541f:	67 e8 bb 0f 00 00    	addr32 call 63e0 <__progname@@GLIBC_2.2.5-0x4cc0>
    5425:	48 89 05 54 5c 00 00 	mov    QWORD PTR [rip+0x5c54],rax        # b080 <__progname@@GLIBC_2.2.5-0x20>
    542c:	48 89 c3             	mov    rbx,rax
    542f:	48 63 3d 42 5c 00 00 	movsxd rdi,DWORD PTR [rip+0x5c42]        # b078 <__progname@@GLIBC_2.2.5-0x28>
    5436:	44 89 e2             	mov    edx,r12d
    5439:	31 f6                	xor    esi,esi
    543b:	29 fa                	sub    edx,edi
    543d:	48 c1 e7 04          	shl    rdi,0x4
    5441:	48 63 d2             	movsxd rdx,edx
    5444:	48 01 df             	add    rdi,rbx
    5447:	48 c1 e2 04          	shl    rdx,0x4
    544b:	ff 15 af 59 00 00    	call   QWORD PTR [rip+0x59af]        # ae00 <memset@GLIBC_2.2.5>
    5451:	44 89 25 20 5c 00 00 	mov    DWORD PTR [rip+0x5c20],r12d        # b078 <__progname@@GLIBC_2.2.5-0x28>
    5458:	8b 45 04             	mov    eax,DWORD PTR [rbp+0x4]
    545b:	49 c1 e7 04          	shl    r15,0x4
    545f:	48 83 ec 08          	sub    rsp,0x8
    5463:	44 8b 45 00          	mov    r8d,DWORD PTR [rbp+0x0]
    5467:	4c 01 fb             	add    rbx,r15
    546a:	4c 8d 7d 08          	lea    r15,[rbp+0x8]
    546e:	4c 89 f1             	mov    rcx,r14
    5471:	83 c8 01             	or     eax,0x1
    5474:	4c 8b 1b             	mov    r11,QWORD PTR [rbx]
    5477:	4c 8b 63 08          	mov    r12,QWORD PTR [rbx+0x8]
    547b:	89 44 24 24          	mov    DWORD PTR [rsp+0x24],eax
    547f:	41 89 c1             	mov    r9d,eax
    5482:	ff 75 30             	push   QWORD PTR [rbp+0x30]
    5485:	4c 89 de             	mov    rsi,r11
    5488:	4c 89 e7             	mov    rdi,r12
    548b:	ff 75 28             	push   QWORD PTR [rbp+0x28]
    548e:	41 57                	push   r15
    5490:	48 8b 54 24 28       	mov    rdx,QWORD PTR [rsp+0x28]
    5495:	4c 89 5c 24 30       	mov    QWORD PTR [rsp+0x30],r11
    549a:	e8 01 ec ff ff       	call   40a0 <__progname@@GLIBC_2.2.5-0x7000>
    549f:	48 83 c4 20          	add    rsp,0x20
    54a3:	4c 8b 5c 24 10       	mov    r11,QWORD PTR [rsp+0x10]
    54a8:	49 39 c3             	cmp    r11,rax
    54ab:	77 69                	ja     5516 <__progname@@GLIBC_2.2.5-0x5b8a>
    54ad:	48 8d 70 01          	lea    rsi,[rax+0x1]
    54b1:	48 8d 05 88 5c 00 00 	lea    rax,[rip+0x5c88]        # b140 <stdout@@GLIBC_2.2.5+0x58>
    54b8:	48 89 33             	mov    QWORD PTR [rbx],rsi
    54bb:	49 39 c4             	cmp    r12,rax
    54be:	74 13                	je     54d3 <__progname@@GLIBC_2.2.5-0x5bcd>
    54c0:	48 89 74 24 10       	mov    QWORD PTR [rsp+0x10],rsi
    54c5:	4c 89 e7             	mov    rdi,r12
    54c8:	ff 15 e2 59 00 00    	call   QWORD PTR [rip+0x59e2]        # aeb0 <free@GLIBC_2.2.5>
    54ce:	48 8b 74 24 10       	mov    rsi,QWORD PTR [rsp+0x10]
    54d3:	48 89 74 24 10       	mov    QWORD PTR [rsp+0x10],rsi
    54d8:	48 89 f7             	mov    rdi,rsi
    54db:	67 e8 9f 0e 00 00    	addr32 call 6380 <__progname@@GLIBC_2.2.5-0x4d20>
    54e1:	48 83 ec 08          	sub    rsp,0x8
    54e5:	44 8b 45 00          	mov    r8d,DWORD PTR [rbp+0x0]
    54e9:	4c 89 f1             	mov    rcx,r14
    54ec:	48 89 43 08          	mov    QWORD PTR [rbx+0x8],rax
    54f0:	48 89 c7             	mov    rdi,rax
    54f3:	49 89 c4             	mov    r12,rax
    54f6:	ff 75 30             	push   QWORD PTR [rbp+0x30]
    54f9:	ff 75 28             	push   QWORD PTR [rbp+0x28]
    54fc:	41 57                	push   r15
    54fe:	44 8b 4c 24 3c       	mov    r9d,DWORD PTR [rsp+0x3c]
    5503:	48 8b 54 24 28       	mov    rdx,QWORD PTR [rsp+0x28]
    5508:	48 8b 74 24 30       	mov    rsi,QWORD PTR [rsp+0x30]
    550d:	e8 8e eb ff ff       	call   40a0 <__progname@@GLIBC_2.2.5-0x7000>
    5512:	48 83 c4 20          	add    rsp,0x20
    5516:	8b 44 24 18          	mov    eax,DWORD PTR [rsp+0x18]
    551a:	41 89 45 00          	mov    DWORD PTR [r13+0x0],eax
    551e:	48 83 c4 28          	add    rsp,0x28
    5522:	4c 89 e0             	mov    rax,r12
    5525:	5b                   	pop    rbx
    5526:	5d                   	pop    rbp
    5527:	41 5c                	pop    r12
    5529:	41 5d                	pop    r13
    552b:	41 5e                	pop    r14
    552d:	41 5f                	pop    r15
    552f:	c3                   	ret    
    5530:	31 ff                	xor    edi,edi
    5532:	67 e8 a8 0e 00 00    	addr32 call 63e0 <__progname@@GLIBC_2.2.5-0x4cc0>
    5538:	66 0f 6f 05 50 5b 00 	movdqa xmm0,XMMWORD PTR [rip+0x5b50]        # b090 <__progname@@GLIBC_2.2.5-0x10>
    553f:	00 
    5540:	48 89 c3             	mov    rbx,rax
    5543:	48 89 05 36 5b 00 00 	mov    QWORD PTR [rip+0x5b36],rax        # b080 <__progname@@GLIBC_2.2.5-0x20>
    554a:	0f 11 00             	movups XMMWORD PTR [rax],xmm0
    554d:	e9 dd fe ff ff       	jmp    542f <__progname@@GLIBC_2.2.5-0x5c71>
    5552:	67 e8 88 10 00 00    	addr32 call 65e0 <__progname@@GLIBC_2.2.5-0x4ac0>
    5558:	0f 1f 84 00 00 00 00 	nop    DWORD PTR [rax+rax*1+0x0]
    555f:	00 
    5560:	41 54                	push   r12
    5562:	55                   	push   rbp
    5563:	53                   	push   rbx
    5564:	48 89 fb             	mov    rbx,rdi
    5567:	ff 15 e3 59 00 00    	call   QWORD PTR [rip+0x59e3]        # af50 <__errno_location@GLIBC_2.2.5>
    556d:	48 85 db             	test   rbx,rbx
    5570:	be 38 00 00 00       	mov    esi,0x38
    5575:	44 8b 20             	mov    r12d,DWORD PTR [rax]
    5578:	48 89 c5             	mov    rbp,rax
    557b:	48 8d 05 be 5c 00 00 	lea    rax,[rip+0x5cbe]        # b240 <stdout@@GLIBC_2.2.5+0x158>
    5582:	48 0f 44 d8          	cmove  rbx,rax
    5586:	48 89 df             	mov    rdi,rbx
    5589:	67 e8 01 10 00 00    	addr32 call 6590 <__progname@@GLIBC_2.2.5-0x4b10>
    558f:	44 89 65 00          	mov    DWORD PTR [rbp+0x0],r12d
    5593:	5b                   	pop    rbx
    5594:	5d                   	pop    rbp
    5595:	41 5c                	pop    r12
    5597:	c3                   	ret    
    5598:	0f 1f 84 00 00 00 00 	nop    DWORD PTR [rax+rax*1+0x0]
    559f:	00 
    55a0:	48 85 ff             	test   rdi,rdi
    55a3:	48 8d 05 96 5c 00 00 	lea    rax,[rip+0x5c96]        # b240 <stdout@@GLIBC_2.2.5+0x158>
    55aa:	48 0f 44 f8          	cmove  rdi,rax
    55ae:	8b 07                	mov    eax,DWORD PTR [rdi]
    55b0:	c3                   	ret    
    55b1:	66 66 2e 0f 1f 84 00 	data16 nop WORD PTR cs:[rax+rax*1+0x0]
    55b8:	00 00 00 00 
    55bc:	0f 1f 40 00          	nop    DWORD PTR [rax+0x0]
    55c0:	48 85 ff             	test   rdi,rdi
    55c3:	48 8d 05 76 5c 00 00 	lea    rax,[rip+0x5c76]        # b240 <stdout@@GLIBC_2.2.5+0x158>
    55ca:	48 0f 44 f8          	cmove  rdi,rax
    55ce:	89 37                	mov    DWORD PTR [rdi],esi
    55d0:	c3                   	ret    
    55d1:	66 66 2e 0f 1f 84 00 	data16 nop WORD PTR cs:[rax+rax*1+0x0]
    55d8:	00 00 00 00 
    55dc:	0f 1f 40 00          	nop    DWORD PTR [rax+0x0]
    55e0:	48 85 ff             	test   rdi,rdi
    55e3:	48 8d 05 56 5c 00 00 	lea    rax,[rip+0x5c56]        # b240 <stdout@@GLIBC_2.2.5+0x158>
    55ea:	89 f1                	mov    ecx,esi
    55ec:	48 0f 44 f8          	cmove  rdi,rax
    55f0:	89 f0                	mov    eax,esi
    55f2:	83 e1 1f             	and    ecx,0x1f
    55f5:	c0 e8 05             	shr    al,0x5
    55f8:	0f b6 c0             	movzx  eax,al
    55fb:	48 8d 7c 87 08       	lea    rdi,[rdi+rax*4+0x8]
    5600:	8b 37                	mov    esi,DWORD PTR [rdi]
    5602:	89 f0                	mov    eax,esi
    5604:	d3 e8                	shr    eax,cl
    5606:	31 c2                	xor    edx,eax
    5608:	83 e0 01             	and    eax,0x1
    560b:	83 e2 01             	and    edx,0x1
    560e:	d3 e2                	shl    edx,cl
    5610:	31 f2                	xor    edx,esi
    5612:	89 17                	mov    DWORD PTR [rdi],edx
    5614:	c3                   	ret    
    5615:	66 66 2e 0f 1f 84 00 	data16 nop WORD PTR cs:[rax+rax*1+0x0]
    561c:	00 00 00 00 
    5620:	48 85 ff             	test   rdi,rdi
    5623:	48 8d 05 16 5c 00 00 	lea    rax,[rip+0x5c16]        # b240 <stdout@@GLIBC_2.2.5+0x158>
    562a:	48 0f 44 f8          	cmove  rdi,rax
    562e:	8b 47 04             	mov    eax,DWORD PTR [rdi+0x4]
    5631:	89 77 04             	mov    DWORD PTR [rdi+0x4],esi
    5634:	c3                   	ret    
    5635:	66 66 2e 0f 1f 84 00 	data16 nop WORD PTR cs:[rax+rax*1+0x0]
    563c:	00 00 00 00 
    5640:	48 85 ff             	test   rdi,rdi
    5643:	48 8d 05 f6 5b 00 00 	lea    rax,[rip+0x5bf6]        # b240 <stdout@@GLIBC_2.2.5+0x158>
    564a:	48 0f 44 f8          	cmove  rdi,rax
    564e:	c7 07 0a 00 00 00    	mov    DWORD PTR [rdi],0xa
    5654:	48 85 f6             	test   rsi,rsi
    5657:	74 0e                	je     5667 <__progname@@GLIBC_2.2.5-0x5a39>
    5659:	48 85 d2             	test   rdx,rdx
    565c:	74 09                	je     5667 <__progname@@GLIBC_2.2.5-0x5a39>
    565e:	48 89 77 28          	mov    QWORD PTR [rdi+0x28],rsi
    5662:	48 89 57 30          	mov    QWORD PTR [rdi+0x30],rdx
    5666:	c3                   	ret    
    5667:	50                   	push   rax
    5668:	ff 15 b2 57 00 00    	call   QWORD PTR [rip+0x57b2]        # ae20 <abort@GLIBC_2.2.5>
    566e:	66 90                	xchg   ax,ax
    5670:	41 57                	push   r15
    5672:	48 8d 05 c7 5b 00 00 	lea    rax,[rip+0x5bc7]        # b240 <stdout@@GLIBC_2.2.5+0x158>
    5679:	49 89 d7             	mov    r15,rdx
    567c:	41 56                	push   r14
    567e:	49 89 f6             	mov    r14,rsi
    5681:	41 55                	push   r13
    5683:	49 89 fd             	mov    r13,rdi
    5686:	41 54                	push   r12
    5688:	55                   	push   rbp
    5689:	53                   	push   rbx
    568a:	4c 89 c3             	mov    rbx,r8
    568d:	48 83 ec 18          	sub    rsp,0x18
    5691:	4d 85 c0             	test   r8,r8
    5694:	48 0f 44 d8          	cmove  rbx,rax
    5698:	48 89 4c 24 08       	mov    QWORD PTR [rsp+0x8],rcx
    569d:	ff 15 ad 58 00 00    	call   QWORD PTR [rip+0x58ad]        # af50 <__errno_location@GLIBC_2.2.5>
    56a3:	48 83 ec 08          	sub    rsp,0x8
    56a7:	4c 89 fa             	mov    rdx,r15
    56aa:	4c 89 f6             	mov    rsi,r14
    56ad:	44 8b 20             	mov    r12d,DWORD PTR [rax]
    56b0:	48 89 c5             	mov    rbp,rax
    56b3:	48 8d 43 08          	lea    rax,[rbx+0x8]
    56b7:	44 8b 4b 04          	mov    r9d,DWORD PTR [rbx+0x4]
    56bb:	ff 73 30             	push   QWORD PTR [rbx+0x30]
    56be:	44 8b 03             	mov    r8d,DWORD PTR [rbx]
    56c1:	4c 89 ef             	mov    rdi,r13
    56c4:	ff 73 28             	push   QWORD PTR [rbx+0x28]
    56c7:	50                   	push   rax
    56c8:	48 8b 4c 24 28       	mov    rcx,QWORD PTR [rsp+0x28]
    56cd:	e8 ce e9 ff ff       	call   40a0 <__progname@@GLIBC_2.2.5-0x7000>
    56d2:	44 89 65 00          	mov    DWORD PTR [rbp+0x0],r12d
    56d6:	48 83 c4 38          	add    rsp,0x38
    56da:	5b                   	pop    rbx
    56db:	5d                   	pop    rbp
    56dc:	41 5c                	pop    r12
    56de:	41 5d                	pop    r13
    56e0:	41 5e                	pop    r14
    56e2:	41 5f                	pop    r15
    56e4:	c3                   	ret    
    56e5:	66 66 2e 0f 1f 84 00 	data16 nop WORD PTR cs:[rax+rax*1+0x0]
    56ec:	00 00 00 00 
    56f0:	41 57                	push   r15
    56f2:	48 8d 05 47 5b 00 00 	lea    rax,[rip+0x5b47]        # b240 <stdout@@GLIBC_2.2.5+0x158>
    56f9:	49 89 f7             	mov    r15,rsi
    56fc:	41 56                	push   r14
    56fe:	49 89 fe             	mov    r14,rdi
    5701:	41 55                	push   r13
    5703:	41 54                	push   r12
    5705:	49 89 d4             	mov    r12,rdx
    5708:	55                   	push   rbp
    5709:	53                   	push   rbx
    570a:	48 89 cb             	mov    rbx,rcx
    570d:	48 83 ec 38          	sub    rsp,0x38
    5711:	48 85 c9             	test   rcx,rcx
    5714:	48 0f 44 d8          	cmove  rbx,rax
    5718:	31 ed                	xor    ebp,ebp
    571a:	ff 15 30 58 00 00    	call   QWORD PTR [rip+0x5830]        # af50 <__errno_location@GLIBC_2.2.5>
    5720:	4d 85 e4             	test   r12,r12
    5723:	4c 89 f9             	mov    rcx,r15
    5726:	4c 89 f2             	mov    rdx,r14
    5729:	49 89 c5             	mov    r13,rax
    572c:	8b 00                	mov    eax,DWORD PTR [rax]
    572e:	40 0f 94 c5          	sete   bpl
    5732:	4c 8d 53 08          	lea    r10,[rbx+0x8]
    5736:	48 83 ec 08          	sub    rsp,0x8
    573a:	0b 6b 04             	or     ebp,DWORD PTR [rbx+0x4]
    573d:	44 8b 03             	mov    r8d,DWORD PTR [rbx]
    5740:	31 f6                	xor    esi,esi
    5742:	89 44 24 14          	mov    DWORD PTR [rsp+0x14],eax
    5746:	41 89 e9             	mov    r9d,ebp
    5749:	31 ff                	xor    edi,edi
    574b:	ff 73 30             	push   QWORD PTR [rbx+0x30]
    574e:	ff 73 28             	push   QWORD PTR [rbx+0x28]
    5751:	41 52                	push   r10
    5753:	4c 89 54 24 40       	mov    QWORD PTR [rsp+0x40],r10
    5758:	e8 43 e9 ff ff       	call   40a0 <__progname@@GLIBC_2.2.5-0x7000>
    575d:	48 8d 70 01          	lea    rsi,[rax+0x1]
    5761:	48 89 44 24 48       	mov    QWORD PTR [rsp+0x48],rax
    5766:	48 83 c4 20          	add    rsp,0x20
    576a:	48 89 f7             	mov    rdi,rsi
    576d:	48 89 74 24 18       	mov    QWORD PTR [rsp+0x18],rsi
    5772:	67 e8 08 0c 00 00    	addr32 call 6380 <__progname@@GLIBC_2.2.5-0x4d20>
    5778:	44 8b 03             	mov    r8d,DWORD PTR [rbx]
    577b:	41 89 e9             	mov    r9d,ebp
    577e:	4c 89 f9             	mov    rcx,r15
    5781:	48 89 44 24 10       	mov    QWORD PTR [rsp+0x10],rax
    5786:	48 83 ec 08          	sub    rsp,0x8
    578a:	4c 89 f2             	mov    rdx,r14
    578d:	48 89 c7             	mov    rdi,rax
    5790:	ff 73 30             	push   QWORD PTR [rbx+0x30]
    5793:	ff 73 28             	push   QWORD PTR [rbx+0x28]
    5796:	4c 8b 54 24 38       	mov    r10,QWORD PTR [rsp+0x38]
    579b:	41 52                	push   r10
    579d:	48 8b 74 24 38       	mov    rsi,QWORD PTR [rsp+0x38]
    57a2:	e8 f9 e8 ff ff       	call   40a0 <__progname@@GLIBC_2.2.5-0x7000>
    57a7:	8b 44 24 2c          	mov    eax,DWORD PTR [rsp+0x2c]
    57ab:	48 83 c4 20          	add    rsp,0x20
    57af:	41 89 45 00          	mov    DWORD PTR [r13+0x0],eax
    57b3:	4d 85 e4             	test   r12,r12
    57b6:	74 09                	je     57c1 <__progname@@GLIBC_2.2.5-0x58df>
    57b8:	4c 8b 5c 24 28       	mov    r11,QWORD PTR [rsp+0x28]
    57bd:	4d 89 1c 24          	mov    QWORD PTR [r12],r11
    57c1:	48 8b 44 24 10       	mov    rax,QWORD PTR [rsp+0x10]
    57c6:	48 83 c4 38          	add    rsp,0x38
    57ca:	5b                   	pop    rbx
    57cb:	5d                   	pop    rbp
    57cc:	41 5c                	pop    r12
    57ce:	41 5d                	pop    r13
    57d0:	41 5e                	pop    r14
    57d2:	41 5f                	pop    r15
    57d4:	c3                   	ret    
    57d5:	66 66 2e 0f 1f 84 00 	data16 nop WORD PTR cs:[rax+rax*1+0x0]
    57dc:	00 00 00 00 
    57e0:	48 89 d1             	mov    rcx,rdx
    57e3:	31 d2                	xor    edx,edx
    57e5:	e9 06 ff ff ff       	jmp    56f0 <__progname@@GLIBC_2.2.5-0x59b0>
    57ea:	66 0f 1f 44 00 00    	nop    WORD PTR [rax+rax*1+0x0]
    57f0:	8b 05 82 58 00 00    	mov    eax,DWORD PTR [rip+0x5882]        # b078 <__progname@@GLIBC_2.2.5-0x28>
    57f6:	41 54                	push   r12
    57f8:	4c 8b 25 81 58 00 00 	mov    r12,QWORD PTR [rip+0x5881]        # b080 <__progname@@GLIBC_2.2.5-0x20>
    57ff:	55                   	push   rbp
    5800:	53                   	push   rbx
    5801:	83 f8 01             	cmp    eax,0x1
    5804:	7e 2c                	jle    5832 <__progname@@GLIBC_2.2.5-0x586e>
    5806:	83 e8 02             	sub    eax,0x2
    5809:	49 8d 5c 24 18       	lea    rbx,[r12+0x18]
    580e:	48 c1 e0 04          	shl    rax,0x4
    5812:	49 8d 6c 04 28       	lea    rbp,[r12+rax*1+0x28]
    5817:	66 0f 1f 84 00 00 00 	nop    WORD PTR [rax+rax*1+0x0]
    581e:	00 00 
    5820:	48 8b 3b             	mov    rdi,QWORD PTR [rbx]
    5823:	48 83 c3 10          	add    rbx,0x10
    5827:	ff 15 83 56 00 00    	call   QWORD PTR [rip+0x5683]        # aeb0 <free@GLIBC_2.2.5>
    582d:	48 39 eb             	cmp    rbx,rbp
    5830:	75 ee                	jne    5820 <__progname@@GLIBC_2.2.5-0x5880>
    5832:	49 8b 7c 24 08       	mov    rdi,QWORD PTR [r12+0x8]
    5837:	48 8d 1d 02 59 00 00 	lea    rbx,[rip+0x5902]        # b140 <stdout@@GLIBC_2.2.5+0x58>
    583e:	48 39 df             	cmp    rdi,rbx
    5841:	74 18                	je     585b <__progname@@GLIBC_2.2.5-0x5845>
    5843:	ff 15 67 56 00 00    	call   QWORD PTR [rip+0x5667]        # aeb0 <free@GLIBC_2.2.5>
    5849:	48 89 1d 48 58 00 00 	mov    QWORD PTR [rip+0x5848],rbx        # b098 <__progname@@GLIBC_2.2.5-0x8>
    5850:	48 c7 05 35 58 00 00 	mov    QWORD PTR [rip+0x5835],0x100        # b090 <__progname@@GLIBC_2.2.5-0x10>
    5857:	00 01 00 00 
    585b:	48 8d 1d 2e 58 00 00 	lea    rbx,[rip+0x582e]        # b090 <__progname@@GLIBC_2.2.5-0x10>
    5862:	49 39 dc             	cmp    r12,rbx
    5865:	74 10                	je     5877 <__progname@@GLIBC_2.2.5-0x5829>
    5867:	4c 89 e7             	mov    rdi,r12
    586a:	ff 15 40 56 00 00    	call   QWORD PTR [rip+0x5640]        # aeb0 <free@GLIBC_2.2.5>
    5870:	48 89 1d 09 58 00 00 	mov    QWORD PTR [rip+0x5809],rbx        # b080 <__progname@@GLIBC_2.2.5-0x20>
    5877:	c7 05 f7 57 00 00 01 	mov    DWORD PTR [rip+0x57f7],0x1        # b078 <__progname@@GLIBC_2.2.5-0x28>
    587e:	00 00 00 
    5881:	5b                   	pop    rbx
    5882:	5d                   	pop    rbp
    5883:	41 5c                	pop    r12
    5885:	c3                   	ret    
    5886:	66 2e 0f 1f 84 00 00 	nop    WORD PTR cs:[rax+rax*1+0x0]
    588d:	00 00 00 
    5890:	48 8d 0d a9 59 00 00 	lea    rcx,[rip+0x59a9]        # b240 <stdout@@GLIBC_2.2.5+0x158>
    5897:	48 c7 c2 ff ff ff ff 	mov    rdx,0xffffffffffffffff
    589e:	e9 0d fb ff ff       	jmp    53b0 <__progname@@GLIBC_2.2.5-0x5cf0>
    58a3:	66 66 2e 0f 1f 84 00 	data16 nop WORD PTR cs:[rax+rax*1+0x0]
    58aa:	00 00 00 00 
    58ae:	66 90                	xchg   ax,ax
    58b0:	48 8d 0d 89 59 00 00 	lea    rcx,[rip+0x5989]        # b240 <stdout@@GLIBC_2.2.5+0x158>
    58b7:	e9 f4 fa ff ff       	jmp    53b0 <__progname@@GLIBC_2.2.5-0x5cf0>
    58bc:	0f 1f 40 00          	nop    DWORD PTR [rax+0x0]
    58c0:	48 89 fe             	mov    rsi,rdi
    58c3:	48 8d 0d 76 59 00 00 	lea    rcx,[rip+0x5976]        # b240 <stdout@@GLIBC_2.2.5+0x158>
    58ca:	48 c7 c2 ff ff ff ff 	mov    rdx,0xffffffffffffffff
    58d1:	31 ff                	xor    edi,edi
    58d3:	e9 d8 fa ff ff       	jmp    53b0 <__progname@@GLIBC_2.2.5-0x5cf0>
    58d8:	0f 1f 84 00 00 00 00 	nop    DWORD PTR [rax+rax*1+0x0]
    58df:	00 
    58e0:	48 89 f2             	mov    rdx,rsi
    58e3:	48 8d 0d 56 59 00 00 	lea    rcx,[rip+0x5956]        # b240 <stdout@@GLIBC_2.2.5+0x158>
    58ea:	48 89 fe             	mov    rsi,rdi
    58ed:	31 ff                	xor    edi,edi
    58ef:	e9 bc fa ff ff       	jmp    53b0 <__progname@@GLIBC_2.2.5-0x5cf0>
    58f4:	66 66 2e 0f 1f 84 00 	data16 nop WORD PTR cs:[rax+rax*1+0x0]
    58fb:	00 00 00 00 
    58ff:	90                   	nop
    5900:	48 83 ec 48          	sub    rsp,0x48
    5904:	48 89 d0             	mov    rax,rdx
    5907:	64 48 8b 14 25 28 00 	mov    rdx,QWORD PTR fs:0x28
    590e:	00 00 
    5910:	48 89 54 24 38       	mov    QWORD PTR [rsp+0x38],rdx
    5915:	31 d2                	xor    edx,edx
    5917:	83 fe 0a             	cmp    esi,0xa
    591a:	0f 84 0c c7 ff ff    	je     202c <__progname@@GLIBC_2.2.5-0x9074>
    5920:	89 34 24             	mov    DWORD PTR [rsp],esi
    5923:	48 89 e1             	mov    rcx,rsp
    5926:	48 89 c6             	mov    rsi,rax
    5929:	48 c7 c2 ff ff ff ff 	mov    rdx,0xffffffffffffffff
    5930:	c7 44 24 04 00 00 00 	mov    DWORD PTR [rsp+0x4],0x0
    5937:	00 
    5938:	48 c7 44 24 08 00 00 	mov    QWORD PTR [rsp+0x8],0x0
    593f:	00 00 
    5941:	48 c7 44 24 10 00 00 	mov    QWORD PTR [rsp+0x10],0x0
    5948:	00 00 
    594a:	48 c7 44 24 18 00 00 	mov    QWORD PTR [rsp+0x18],0x0
    5951:	00 00 
    5953:	48 c7 44 24 20 00 00 	mov    QWORD PTR [rsp+0x20],0x0
    595a:	00 00 
    595c:	48 c7 44 24 28 00 00 	mov    QWORD PTR [rsp+0x28],0x0
    5963:	00 00 
    5965:	48 c7 44 24 30 00 00 	mov    QWORD PTR [rsp+0x30],0x0
    596c:	00 00 
    596e:	e8 3d fa ff ff       	call   53b0 <__progname@@GLIBC_2.2.5-0x5cf0>
    5973:	48 8b 4c 24 38       	mov    rcx,QWORD PTR [rsp+0x38]
    5978:	64 48 33 0c 25 28 00 	xor    rcx,QWORD PTR fs:0x28
    597f:	00 00 
    5981:	75 05                	jne    5988 <__progname@@GLIBC_2.2.5-0x5718>
    5983:	48 83 c4 48          	add    rsp,0x48
    5987:	c3                   	ret    
    5988:	ff 15 d2 55 00 00    	call   QWORD PTR [rip+0x55d2]        # af60 <__stack_chk_fail@GLIBC_2.4>
    598e:	66 90                	xchg   ax,ax
    5990:	48 83 ec 48          	sub    rsp,0x48
    5994:	48 89 d0             	mov    rax,rdx
    5997:	48 89 ca             	mov    rdx,rcx
    599a:	64 48 8b 0c 25 28 00 	mov    rcx,QWORD PTR fs:0x28
    59a1:	00 00 
    59a3:	48 89 4c 24 38       	mov    QWORD PTR [rsp+0x38],rcx
    59a8:	31 c9                	xor    ecx,ecx
    59aa:	83 fe 0a             	cmp    esi,0xa
    59ad:	0f 84 7f c6 ff ff    	je     2032 <__progname@@GLIBC_2.2.5-0x906e>
    59b3:	89 34 24             	mov    DWORD PTR [rsp],esi
    59b6:	48 89 e1             	mov    rcx,rsp
    59b9:	48 89 c6             	mov    rsi,rax
    59bc:	c7 44 24 04 00 00 00 	mov    DWORD PTR [rsp+0x4],0x0
    59c3:	00 
    59c4:	48 c7 44 24 08 00 00 	mov    QWORD PTR [rsp+0x8],0x0
    59cb:	00 00 
    59cd:	48 c7 44 24 10 00 00 	mov    QWORD PTR [rsp+0x10],0x0
    59d4:	00 00 
    59d6:	48 c7 44 24 18 00 00 	mov    QWORD PTR [rsp+0x18],0x0
    59dd:	00 00 
    59df:	48 c7 44 24 20 00 00 	mov    QWORD PTR [rsp+0x20],0x0
    59e6:	00 00 
    59e8:	48 c7 44 24 28 00 00 	mov    QWORD PTR [rsp+0x28],0x0
    59ef:	00 00 
    59f1:	48 c7 44 24 30 00 00 	mov    QWORD PTR [rsp+0x30],0x0
    59f8:	00 00 
    59fa:	e8 b1 f9 ff ff       	call   53b0 <__progname@@GLIBC_2.2.5-0x5cf0>
    59ff:	48 8b 54 24 38       	mov    rdx,QWORD PTR [rsp+0x38]
    5a04:	64 48 33 14 25 28 00 	xor    rdx,QWORD PTR fs:0x28
    5a0b:	00 00 
    5a0d:	75 05                	jne    5a14 <__progname@@GLIBC_2.2.5-0x568c>
    5a0f:	48 83 c4 48          	add    rsp,0x48
    5a13:	c3                   	ret    
    5a14:	ff 15 46 55 00 00    	call   QWORD PTR [rip+0x5546]        # af60 <__stack_chk_fail@GLIBC_2.4>
    5a1a:	66 0f 1f 44 00 00    	nop    WORD PTR [rax+rax*1+0x0]
    5a20:	48 89 f2             	mov    rdx,rsi
    5a23:	89 fe                	mov    esi,edi
    5a25:	31 ff                	xor    edi,edi
    5a27:	e9 d4 fe ff ff       	jmp    5900 <__progname@@GLIBC_2.2.5-0x57a0>
    5a2c:	0f 1f 40 00          	nop    DWORD PTR [rax+0x0]
    5a30:	48 89 d1             	mov    rcx,rdx
    5a33:	48 89 f2             	mov    rdx,rsi
    5a36:	89 fe                	mov    esi,edi
    5a38:	31 ff                	xor    edi,edi
    5a3a:	e9 51 ff ff ff       	jmp    5990 <__progname@@GLIBC_2.2.5-0x5710>
    5a3f:	90                   	nop
    5a40:	48 83 ec 48          	sub    rsp,0x48
    5a44:	66 0f 6f 05 f4 57 00 	movdqa xmm0,XMMWORD PTR [rip+0x57f4]        # b240 <stdout@@GLIBC_2.2.5+0x158>
    5a4b:	00 
    5a4c:	66 0f 6f 0d fc 57 00 	movdqa xmm1,XMMWORD PTR [rip+0x57fc]        # b250 <stdout@@GLIBC_2.2.5+0x168>
    5a53:	00 
    5a54:	89 d1                	mov    ecx,edx
    5a56:	64 48 8b 04 25 28 00 	mov    rax,QWORD PTR fs:0x28
    5a5d:	00 00 
    5a5f:	48 89 44 24 38       	mov    QWORD PTR [rsp+0x38],rax
    5a64:	31 c0                	xor    eax,eax
    5a66:	48 8b 05 03 58 00 00 	mov    rax,QWORD PTR [rip+0x5803]        # b270 <stdout@@GLIBC_2.2.5+0x188>
    5a6d:	49 89 e0             	mov    r8,rsp
    5a70:	83 e1 1f             	and    ecx,0x1f
    5a73:	66 0f 6f 15 e5 57 00 	movdqa xmm2,XMMWORD PTR [rip+0x57e5]        # b260 <stdout@@GLIBC_2.2.5+0x178>
    5a7a:	00 
    5a7b:	0f 29 04 24          	movaps XMMWORD PTR [rsp],xmm0
    5a7f:	48 89 44 24 30       	mov    QWORD PTR [rsp+0x30],rax
    5a84:	89 d0                	mov    eax,edx
    5a86:	c0 e8 05             	shr    al,0x5
    5a89:	0f 29 4c 24 10       	movaps XMMWORD PTR [rsp+0x10],xmm1
    5a8e:	0f b6 c0             	movzx  eax,al
    5a91:	0f 29 54 24 20       	movaps XMMWORD PTR [rsp+0x20],xmm2
    5a96:	4d 8d 4c 80 08       	lea    r9,[r8+rax*4+0x8]
    5a9b:	41 8b 11             	mov    edx,DWORD PTR [r9]
    5a9e:	89 d0                	mov    eax,edx
    5aa0:	d3 e8                	shr    eax,cl
    5aa2:	f7 d0                	not    eax
    5aa4:	83 e0 01             	and    eax,0x1
    5aa7:	d3 e0                	shl    eax,cl
    5aa9:	4c 89 c1             	mov    rcx,r8
    5aac:	31 d0                	xor    eax,edx
    5aae:	48 89 f2             	mov    rdx,rsi
    5ab1:	48 89 fe             	mov    rsi,rdi
    5ab4:	31 ff                	xor    edi,edi
    5ab6:	41 89 01             	mov    DWORD PTR [r9],eax
    5ab9:	e8 f2 f8 ff ff       	call   53b0 <__progname@@GLIBC_2.2.5-0x5cf0>
    5abe:	48 8b 74 24 38       	mov    rsi,QWORD PTR [rsp+0x38]
    5ac3:	64 48 33 34 25 28 00 	xor    rsi,QWORD PTR fs:0x28
    5aca:	00 00 
    5acc:	75 05                	jne    5ad3 <__progname@@GLIBC_2.2.5-0x55cd>
    5ace:	48 83 c4 48          	add    rsp,0x48
    5ad2:	c3                   	ret    
    5ad3:	ff 15 87 54 00 00    	call   QWORD PTR [rip+0x5487]        # af60 <__stack_chk_fail@GLIBC_2.4>
    5ad9:	0f 1f 80 00 00 00 00 	nop    DWORD PTR [rax+0x0]
    5ae0:	40 0f be d6          	movsx  edx,sil
    5ae4:	48 c7 c6 ff ff ff ff 	mov    rsi,0xffffffffffffffff
    5aeb:	e9 50 ff ff ff       	jmp    5a40 <__progname@@GLIBC_2.2.5-0x5660>
    5af0:	ba 3a 00 00 00       	mov    edx,0x3a
    5af5:	48 c7 c6 ff ff ff ff 	mov    rsi,0xffffffffffffffff
    5afc:	e9 3f ff ff ff       	jmp    5a40 <__progname@@GLIBC_2.2.5-0x5660>
    5b01:	66 66 2e 0f 1f 84 00 	data16 nop WORD PTR cs:[rax+rax*1+0x0]
    5b08:	00 00 00 00 
    5b0c:	0f 1f 40 00          	nop    DWORD PTR [rax+0x0]
    5b10:	ba 3a 00 00 00       	mov    edx,0x3a
    5b15:	e9 26 ff ff ff       	jmp    5a40 <__progname@@GLIBC_2.2.5-0x5660>
    5b1a:	66 0f 1f 44 00 00    	nop    WORD PTR [rax+rax*1+0x0]
    5b20:	48 83 ec 48          	sub    rsp,0x48
    5b24:	64 48 8b 0c 25 28 00 	mov    rcx,QWORD PTR fs:0x28
    5b2b:	00 00 
    5b2d:	48 89 4c 24 38       	mov    QWORD PTR [rsp+0x38],rcx
    5b32:	31 c9                	xor    ecx,ecx
    5b34:	83 fe 0a             	cmp    esi,0xa
    5b37:	0f 84 fb c4 ff ff    	je     2038 <__progname@@GLIBC_2.2.5-0x9068>
    5b3d:	48 89 d0             	mov    rax,rdx
    5b40:	89 34 24             	mov    DWORD PTR [rsp],esi
    5b43:	48 ba 00 00 00 00 00 	movabs rdx,0x400000000000000
    5b4a:	00 00 04 
    5b4d:	48 89 e1             	mov    rcx,rsp
    5b50:	48 89 54 24 08       	mov    QWORD PTR [rsp+0x8],rdx
    5b55:	48 89 c6             	mov    rsi,rax
    5b58:	48 c7 c2 ff ff ff ff 	mov    rdx,0xffffffffffffffff
    5b5f:	c7 44 24 04 00 00 00 	mov    DWORD PTR [rsp+0x4],0x0
    5b66:	00 
    5b67:	48 c7 44 24 10 00 00 	mov    QWORD PTR [rsp+0x10],0x0
    5b6e:	00 00 
    5b70:	48 c7 44 24 18 00 00 	mov    QWORD PTR [rsp+0x18],0x0
    5b77:	00 00 
    5b79:	48 c7 44 24 20 00 00 	mov    QWORD PTR [rsp+0x20],0x0
    5b80:	00 00 
    5b82:	48 c7 44 24 28 00 00 	mov    QWORD PTR [rsp+0x28],0x0
    5b89:	00 00 
    5b8b:	48 c7 44 24 30 00 00 	mov    QWORD PTR [rsp+0x30],0x0
    5b92:	00 00 
    5b94:	e8 17 f8 ff ff       	call   53b0 <__progname@@GLIBC_2.2.5-0x5cf0>
    5b99:	48 8b 54 24 38       	mov    rdx,QWORD PTR [rsp+0x38]
    5b9e:	64 48 33 14 25 28 00 	xor    rdx,QWORD PTR fs:0x28
    5ba5:	00 00 
    5ba7:	75 05                	jne    5bae <__progname@@GLIBC_2.2.5-0x54f2>
    5ba9:	48 83 c4 48          	add    rsp,0x48
    5bad:	c3                   	ret    
    5bae:	ff 15 ac 53 00 00    	call   QWORD PTR [rip+0x53ac]        # af60 <__stack_chk_fail@GLIBC_2.4>
    5bb4:	66 66 2e 0f 1f 84 00 	data16 nop WORD PTR cs:[rax+rax*1+0x0]
    5bbb:	00 00 00 00 
    5bbf:	90                   	nop
    5bc0:	48 83 ec 48          	sub    rsp,0x48
    5bc4:	49 89 c9             	mov    r9,rcx
    5bc7:	66 0f 6f 05 71 56 00 	movdqa xmm0,XMMWORD PTR [rip+0x5671]        # b240 <stdout@@GLIBC_2.2.5+0x158>
    5bce:	00 
    5bcf:	66 0f 6f 0d 79 56 00 	movdqa xmm1,XMMWORD PTR [rip+0x5679]        # b250 <stdout@@GLIBC_2.2.5+0x168>
    5bd6:	00 
    5bd7:	66 0f 6f 15 81 56 00 	movdqa xmm2,XMMWORD PTR [rip+0x5681]        # b260 <stdout@@GLIBC_2.2.5+0x178>
    5bde:	00 
    5bdf:	48 8b 0d 8a 56 00 00 	mov    rcx,QWORD PTR [rip+0x568a]        # b270 <stdout@@GLIBC_2.2.5+0x188>
    5be6:	64 48 8b 04 25 28 00 	mov    rax,QWORD PTR fs:0x28
    5bed:	00 00 
    5bef:	48 89 44 24 38       	mov    QWORD PTR [rsp+0x38],rax
    5bf4:	31 c0                	xor    eax,eax
    5bf6:	0f 29 04 24          	movaps XMMWORD PTR [rsp],xmm0
    5bfa:	0f 29 4c 24 10       	movaps XMMWORD PTR [rsp+0x10],xmm1
    5bff:	0f 29 54 24 20       	movaps XMMWORD PTR [rsp+0x20],xmm2
    5c04:	48 89 4c 24 30       	mov    QWORD PTR [rsp+0x30],rcx
    5c09:	c7 04 24 0a 00 00 00 	mov    DWORD PTR [rsp],0xa
    5c10:	48 85 f6             	test   rsi,rsi
    5c13:	74 38                	je     5c4d <__progname@@GLIBC_2.2.5-0x5453>
    5c15:	48 85 d2             	test   rdx,rdx
    5c18:	74 33                	je     5c4d <__progname@@GLIBC_2.2.5-0x5453>
    5c1a:	48 89 74 24 28       	mov    QWORD PTR [rsp+0x28],rsi
    5c1f:	48 89 e1             	mov    rcx,rsp
    5c22:	4c 89 ce             	mov    rsi,r9
    5c25:	48 89 54 24 30       	mov    QWORD PTR [rsp+0x30],rdx
    5c2a:	4c 89 c2             	mov    rdx,r8
    5c2d:	e8 7e f7 ff ff       	call   53b0 <__progname@@GLIBC_2.2.5-0x5cf0>
    5c32:	48 8b 7c 24 38       	mov    rdi,QWORD PTR [rsp+0x38]
    5c37:	64 48 33 3c 25 28 00 	xor    rdi,QWORD PTR fs:0x28
    5c3e:	00 00 
    5c40:	75 05                	jne    5c47 <__progname@@GLIBC_2.2.5-0x5459>
    5c42:	48 83 c4 48          	add    rsp,0x48
    5c46:	c3                   	ret    
    5c47:	ff 15 13 53 00 00    	call   QWORD PTR [rip+0x5313]        # af60 <__stack_chk_fail@GLIBC_2.4>
    5c4d:	ff 15 cd 51 00 00    	call   QWORD PTR [rip+0x51cd]        # ae20 <abort@GLIBC_2.2.5>
    5c53:	66 66 2e 0f 1f 84 00 	data16 nop WORD PTR cs:[rax+rax*1+0x0]
    5c5a:	00 00 00 00 
    5c5e:	66 90                	xchg   ax,ax
    5c60:	49 c7 c0 ff ff ff ff 	mov    r8,0xffffffffffffffff
    5c67:	e9 54 ff ff ff       	jmp    5bc0 <__progname@@GLIBC_2.2.5-0x54e0>
    5c6c:	0f 1f 40 00          	nop    DWORD PTR [rax+0x0]
    5c70:	48 89 d1             	mov    rcx,rdx
    5c73:	49 c7 c0 ff ff ff ff 	mov    r8,0xffffffffffffffff
    5c7a:	48 89 f2             	mov    rdx,rsi
    5c7d:	48 89 fe             	mov    rsi,rdi
    5c80:	31 ff                	xor    edi,edi
    5c82:	e9 39 ff ff ff       	jmp    5bc0 <__progname@@GLIBC_2.2.5-0x54e0>
    5c87:	66 0f 1f 84 00 00 00 	nop    WORD PTR [rax+rax*1+0x0]
    5c8e:	00 00 
    5c90:	49 89 c8             	mov    r8,rcx
    5c93:	48 89 d1             	mov    rcx,rdx
    5c96:	48 89 f2             	mov    rdx,rsi
    5c99:	48 89 fe             	mov    rsi,rdi
    5c9c:	31 ff                	xor    edi,edi
    5c9e:	e9 1d ff ff ff       	jmp    5bc0 <__progname@@GLIBC_2.2.5-0x54e0>
    5ca3:	66 66 2e 0f 1f 84 00 	data16 nop WORD PTR cs:[rax+rax*1+0x0]
    5caa:	00 00 00 00 
    5cae:	66 90                	xchg   ax,ax
    5cb0:	48 8d 0d 89 53 00 00 	lea    rcx,[rip+0x5389]        # b040 <__progname@@GLIBC_2.2.5-0x60>
    5cb7:	e9 f4 f6 ff ff       	jmp    53b0 <__progname@@GLIBC_2.2.5-0x5cf0>
    5cbc:	0f 1f 40 00          	nop    DWORD PTR [rax+0x0]
    5cc0:	48 89 f2             	mov    rdx,rsi
    5cc3:	48 8d 0d 76 53 00 00 	lea    rcx,[rip+0x5376]        # b040 <__progname@@GLIBC_2.2.5-0x60>
    5cca:	48 89 fe             	mov    rsi,rdi
    5ccd:	31 ff                	xor    edi,edi
    5ccf:	e9 dc f6 ff ff       	jmp    53b0 <__progname@@GLIBC_2.2.5-0x5cf0>
    5cd4:	66 66 2e 0f 1f 84 00 	data16 nop WORD PTR cs:[rax+rax*1+0x0]
    5cdb:	00 00 00 00 
    5cdf:	90                   	nop
    5ce0:	48 8d 0d 59 53 00 00 	lea    rcx,[rip+0x5359]        # b040 <__progname@@GLIBC_2.2.5-0x60>
    5ce7:	48 c7 c2 ff ff ff ff 	mov    rdx,0xffffffffffffffff
    5cee:	e9 bd f6 ff ff       	jmp    53b0 <__progname@@GLIBC_2.2.5-0x5cf0>
    5cf3:	66 66 2e 0f 1f 84 00 	data16 nop WORD PTR cs:[rax+rax*1+0x0]
    5cfa:	00 00 00 00 
    5cfe:	66 90                	xchg   ax,ax
    5d00:	48 89 fe             	mov    rsi,rdi
    5d03:	48 8d 0d 36 53 00 00 	lea    rcx,[rip+0x5336]        # b040 <__progname@@GLIBC_2.2.5-0x60>
    5d0a:	48 c7 c2 ff ff ff ff 	mov    rdx,0xffffffffffffffff
    5d11:	31 ff                	xor    edi,edi
    5d13:	e9 98 f6 ff ff       	jmp    53b0 <__progname@@GLIBC_2.2.5-0x5cf0>
    5d18:	0f 1f 84 00 00 00 00 	nop    DWORD PTR [rax+rax*1+0x0]
    5d1f:	00 
    5d20:	ba 03 00 00 00       	mov    edx,0x3
    5d25:	31 f6                	xor    esi,esi
    5d27:	31 c0                	xor    eax,eax
    5d29:	e9 82 09 00 00       	jmp    66b0 <__progname@@GLIBC_2.2.5-0x49f0>
    5d2e:	90                   	nop
    5d2f:	90                   	nop
    5d30:	41 57                	push   r15
    5d32:	41 56                	push   r14
    5d34:	41 55                	push   r13
    5d36:	41 54                	push   r12
    5d38:	4d 89 cc             	mov    r12,r9
    5d3b:	55                   	push   rbp
    5d3c:	48 89 fd             	mov    rbp,rdi
    5d3f:	53                   	push   rbx
    5d40:	4c 89 c3             	mov    rbx,r8
    5d43:	48 83 ec 28          	sub    rsp,0x28
    5d47:	48 85 f6             	test   rsi,rsi
    5d4a:	0f 84 20 01 00 00    	je     5e70 <__progname@@GLIBC_2.2.5-0x5230>
    5d50:	49 89 c9             	mov    r9,rcx
    5d53:	49 89 d0             	mov    r8,rdx
    5d56:	48 89 f1             	mov    rcx,rsi
    5d59:	31 c0                	xor    eax,eax
    5d5b:	48 8d 15 66 25 00 00 	lea    rdx,[rip+0x2566]        # 82c8 <__progname@@GLIBC_2.2.5-0x2dd8>
    5d62:	be 01 00 00 00       	mov    esi,0x1
    5d67:	ff 15 c3 50 00 00    	call   QWORD PTR [rip+0x50c3]        # ae30 <__fprintf_chk@GLIBC_2.3.4>
    5d6d:	31 ff                	xor    edi,edi
    5d6f:	ba 05 00 00 00       	mov    edx,0x5
    5d74:	48 8d 35 60 25 00 00 	lea    rsi,[rip+0x2560]        # 82db <__progname@@GLIBC_2.2.5-0x2dc5>
    5d7b:	ff 15 d7 51 00 00    	call   QWORD PTR [rip+0x51d7]        # af58 <dcgettext@GLIBC_2.2.5>
    5d81:	41 b8 e3 07 00 00    	mov    r8d,0x7e3
    5d87:	be 01 00 00 00       	mov    esi,0x1
    5d8c:	48 89 ef             	mov    rdi,rbp
    5d8f:	48 89 c1             	mov    rcx,rax
    5d92:	48 8d 15 67 28 00 00 	lea    rdx,[rip+0x2867]        # 8600 <__progname@@GLIBC_2.2.5-0x2aa0>
    5d99:	31 c0                	xor    eax,eax
    5d9b:	ff 15 8f 50 00 00    	call   QWORD PTR [rip+0x508f]        # ae30 <__fprintf_chk@GLIBC_2.3.4>
    5da1:	31 ff                	xor    edi,edi
    5da3:	ba 05 00 00 00       	mov    edx,0x5
    5da8:	48 8d 35 b9 25 00 00 	lea    rsi,[rip+0x25b9]        # 8368 <__progname@@GLIBC_2.2.5-0x2d38>
    5daf:	ff 15 a3 51 00 00    	call   QWORD PTR [rip+0x51a3]        # af58 <dcgettext@GLIBC_2.2.5>
    5db5:	48 89 ee             	mov    rsi,rbp
    5db8:	48 89 c7             	mov    rdi,rax
    5dbb:	ff 15 17 51 00 00    	call   QWORD PTR [rip+0x5117]        # aed8 <fputs_unlocked@GLIBC_2.2.5>
    5dc1:	49 83 fc 09          	cmp    r12,0x9
    5dc5:	0f 87 45 03 00 00    	ja     6110 <__progname@@GLIBC_2.2.5-0x4f90>
    5dcb:	48 8d 15 f6 27 00 00 	lea    rdx,[rip+0x27f6]        # 85c8 <__progname@@GLIBC_2.2.5-0x2ad8>
    5dd2:	4a 63 04 a2          	movsxd rax,DWORD PTR [rdx+r12*4]
    5dd6:	48 01 d0             	add    rax,rdx
    5dd9:	ff e0                	jmp    rax
    5ddb:	0f 1f 44 00 00       	nop    DWORD PTR [rax+rax*1+0x0]
    5de0:	4c 8b 4b 38          	mov    r9,QWORD PTR [rbx+0x38]
    5de4:	48 8b 43 10          	mov    rax,QWORD PTR [rbx+0x10]
    5de8:	ba 05 00 00 00       	mov    edx,0x5
    5ded:	31 ff                	xor    edi,edi
    5def:	4c 8b 43 08          	mov    r8,QWORD PTR [rbx+0x8]
    5df3:	4c 8b 6b 30          	mov    r13,QWORD PTR [rbx+0x30]
    5df7:	48 8d 35 da 26 00 00 	lea    rsi,[rip+0x26da]        # 84d8 <__progname@@GLIBC_2.2.5-0x2bc8>
    5dfe:	4c 8b 63 28          	mov    r12,QWORD PTR [rbx+0x28]
    5e02:	4c 8b 7b 20          	mov    r15,QWORD PTR [rbx+0x20]
    5e06:	4c 89 4c 24 10       	mov    QWORD PTR [rsp+0x10],r9
    5e0b:	4c 8b 73 18          	mov    r14,QWORD PTR [rbx+0x18]
    5e0f:	48 8b 1b             	mov    rbx,QWORD PTR [rbx]
    5e12:	48 89 04 24          	mov    QWORD PTR [rsp],rax
    5e16:	4c 89 44 24 08       	mov    QWORD PTR [rsp+0x8],r8
    5e1b:	ff 15 37 51 00 00    	call   QWORD PTR [rip+0x5137]        # af58 <dcgettext@GLIBC_2.2.5>
    5e21:	48 83 ec 08          	sub    rsp,0x8
    5e25:	4c 8b 4c 24 18       	mov    r9,QWORD PTR [rsp+0x18]
    5e2a:	48 89 c2             	mov    rdx,rax
    5e2d:	48 89 d9             	mov    rcx,rbx
    5e30:	be 01 00 00 00       	mov    esi,0x1
    5e35:	48 89 ef             	mov    rdi,rbp
    5e38:	31 c0                	xor    eax,eax
    5e3a:	41 51                	push   r9
    5e3c:	41 55                	push   r13
    5e3e:	41 54                	push   r12
    5e40:	41 57                	push   r15
    5e42:	41 56                	push   r14
    5e44:	4c 8b 4c 24 30       	mov    r9,QWORD PTR [rsp+0x30]
    5e49:	4c 8b 44 24 38       	mov    r8,QWORD PTR [rsp+0x38]
    5e4e:	ff 15 dc 4f 00 00    	call   QWORD PTR [rip+0x4fdc]        # ae30 <__fprintf_chk@GLIBC_2.3.4>
    5e54:	48 83 c4 30          	add    rsp,0x30
    5e58:	48 83 c4 28          	add    rsp,0x28
    5e5c:	5b                   	pop    rbx
    5e5d:	5d                   	pop    rbp
    5e5e:	41 5c                	pop    r12
    5e60:	41 5d                	pop    r13
    5e62:	41 5e                	pop    r14
    5e64:	41 5f                	pop    r15
    5e66:	c3                   	ret    
    5e67:	66 0f 1f 84 00 00 00 	nop    WORD PTR [rax+rax*1+0x0]
    5e6e:	00 00 
    5e70:	49 89 c8             	mov    r8,rcx
    5e73:	be 01 00 00 00       	mov    esi,0x1
    5e78:	48 89 d1             	mov    rcx,rdx
    5e7b:	31 c0                	xor    eax,eax
    5e7d:	48 8d 15 50 24 00 00 	lea    rdx,[rip+0x2450]        # 82d4 <__progname@@GLIBC_2.2.5-0x2dcc>
    5e84:	ff 15 a6 4f 00 00    	call   QWORD PTR [rip+0x4fa6]        # ae30 <__fprintf_chk@GLIBC_2.3.4>
    5e8a:	e9 de fe ff ff       	jmp    5d6d <__progname@@GLIBC_2.2.5-0x5333>
    5e8f:	90                   	nop
    5e90:	4c 8b 53 40          	mov    r10,QWORD PTR [rbx+0x40]
    5e94:	4c 8b 4b 38          	mov    r9,QWORD PTR [rbx+0x38]
    5e98:	ba 05 00 00 00       	mov    edx,0x5
    5e9d:	48 8d 35 64 26 00 00 	lea    rsi,[rip+0x2664]        # 8508 <__progname@@GLIBC_2.2.5-0x2b98>
    5ea4:	48 8b 43 10          	mov    rax,QWORD PTR [rbx+0x10]
    5ea8:	4c 8b 43 08          	mov    r8,QWORD PTR [rbx+0x8]
    5eac:	4c 8b 6b 30          	mov    r13,QWORD PTR [rbx+0x30]
    5eb0:	4c 8b 63 28          	mov    r12,QWORD PTR [rbx+0x28]
    5eb4:	4c 89 54 24 18       	mov    QWORD PTR [rsp+0x18],r10
    5eb9:	4c 8b 7b 20          	mov    r15,QWORD PTR [rbx+0x20]
    5ebd:	4c 8b 73 18          	mov    r14,QWORD PTR [rbx+0x18]
    5ec1:	4c 89 4c 24 10       	mov    QWORD PTR [rsp+0x10],r9
    5ec6:	48 89 04 24          	mov    QWORD PTR [rsp],rax
    5eca:	48 8b 1b             	mov    rbx,QWORD PTR [rbx]
    5ecd:	4c 89 44 24 08       	mov    QWORD PTR [rsp+0x8],r8
    5ed2:	31 ff                	xor    edi,edi
    5ed4:	ff 15 7e 50 00 00    	call   QWORD PTR [rip+0x507e]        # af58 <dcgettext@GLIBC_2.2.5>
    5eda:	4c 8b 54 24 18       	mov    r10,QWORD PTR [rsp+0x18]
    5edf:	41 52                	push   r10
    5ee1:	e9 3f ff ff ff       	jmp    5e25 <__progname@@GLIBC_2.2.5-0x527b>
    5ee6:	66 2e 0f 1f 84 00 00 	nop    WORD PTR cs:[rax+rax*1+0x0]
    5eed:	00 00 00 
    5ef0:	48 8b 1b             	mov    rbx,QWORD PTR [rbx]
    5ef3:	ba 05 00 00 00       	mov    edx,0x5
    5ef8:	48 8d 35 e0 23 00 00 	lea    rsi,[rip+0x23e0]        # 82df <__progname@@GLIBC_2.2.5-0x2dc1>
    5eff:	31 ff                	xor    edi,edi
    5f01:	ff 15 51 50 00 00    	call   QWORD PTR [rip+0x5051]        # af58 <dcgettext@GLIBC_2.2.5>
    5f07:	48 83 c4 28          	add    rsp,0x28
    5f0b:	48 89 ef             	mov    rdi,rbp
    5f0e:	be 01 00 00 00       	mov    esi,0x1
    5f13:	48 89 d9             	mov    rcx,rbx
    5f16:	48 89 c2             	mov    rdx,rax
    5f19:	5b                   	pop    rbx
    5f1a:	31 c0                	xor    eax,eax
    5f1c:	5d                   	pop    rbp
    5f1d:	41 5c                	pop    r12
    5f1f:	41 5d                	pop    r13
    5f21:	41 5e                	pop    r14
    5f23:	41 5f                	pop    r15
    5f25:	ff 25 05 4f 00 00    	jmp    QWORD PTR [rip+0x4f05]        # ae30 <__fprintf_chk@GLIBC_2.3.4>
    5f2b:	0f 1f 44 00 00       	nop    DWORD PTR [rax+rax*1+0x0]
    5f30:	4c 8b 63 08          	mov    r12,QWORD PTR [rbx+0x8]
    5f34:	48 8b 1b             	mov    rbx,QWORD PTR [rbx]
    5f37:	ba 05 00 00 00       	mov    edx,0x5
    5f3c:	31 ff                	xor    edi,edi
    5f3e:	48 8d 35 aa 23 00 00 	lea    rsi,[rip+0x23aa]        # 82ef <__progname@@GLIBC_2.2.5-0x2db1>
    5f45:	ff 15 0d 50 00 00    	call   QWORD PTR [rip+0x500d]        # af58 <dcgettext@GLIBC_2.2.5>
    5f4b:	48 83 c4 28          	add    rsp,0x28
    5f4f:	4d 89 e0             	mov    r8,r12
    5f52:	48 89 d9             	mov    rcx,rbx
    5f55:	48 89 c2             	mov    rdx,rax
    5f58:	5b                   	pop    rbx
    5f59:	48 89 ef             	mov    rdi,rbp
    5f5c:	be 01 00 00 00       	mov    esi,0x1
    5f61:	5d                   	pop    rbp
    5f62:	31 c0                	xor    eax,eax
    5f64:	41 5c                	pop    r12
    5f66:	41 5d                	pop    r13
    5f68:	41 5e                	pop    r14
    5f6a:	41 5f                	pop    r15
    5f6c:	ff 25 be 4e 00 00    	jmp    QWORD PTR [rip+0x4ebe]        # ae30 <__fprintf_chk@GLIBC_2.3.4>
    5f72:	66 0f 1f 44 00 00    	nop    WORD PTR [rax+rax*1+0x0]
    5f78:	4c 8b 6b 10          	mov    r13,QWORD PTR [rbx+0x10]
    5f7c:	4c 8b 63 08          	mov    r12,QWORD PTR [rbx+0x8]
    5f80:	ba 05 00 00 00       	mov    edx,0x5
    5f85:	31 ff                	xor    edi,edi
    5f87:	48 8b 1b             	mov    rbx,QWORD PTR [rbx]
    5f8a:	48 8d 35 75 23 00 00 	lea    rsi,[rip+0x2375]        # 8306 <__progname@@GLIBC_2.2.5-0x2d9a>
    5f91:	ff 15 c1 4f 00 00    	call   QWORD PTR [rip+0x4fc1]        # af58 <dcgettext@GLIBC_2.2.5>
    5f97:	48 83 c4 28          	add    rsp,0x28
    5f9b:	4d 89 e9             	mov    r9,r13
    5f9e:	4d 89 e0             	mov    r8,r12
    5fa1:	48 89 d9             	mov    rcx,rbx
    5fa4:	48 89 c2             	mov    rdx,rax
    5fa7:	5b                   	pop    rbx
    5fa8:	48 89 ef             	mov    rdi,rbp
    5fab:	be 01 00 00 00       	mov    esi,0x1
    5fb0:	5d                   	pop    rbp
    5fb1:	31 c0                	xor    eax,eax
    5fb3:	41 5c                	pop    r12
    5fb5:	41 5d                	pop    r13
    5fb7:	41 5e                	pop    r14
    5fb9:	41 5f                	pop    r15
    5fbb:	ff 25 6f 4e 00 00    	jmp    QWORD PTR [rip+0x4e6f]        # ae30 <__fprintf_chk@GLIBC_2.3.4>
    5fc1:	0f 1f 80 00 00 00 00 	nop    DWORD PTR [rax+0x0]
    5fc8:	4c 8b 73 18          	mov    r14,QWORD PTR [rbx+0x18]
    5fcc:	4c 8b 6b 10          	mov    r13,QWORD PTR [rbx+0x10]
    5fd0:	ba 05 00 00 00       	mov    edx,0x5
    5fd5:	31 ff                	xor    edi,edi
    5fd7:	4c 8b 63 08          	mov    r12,QWORD PTR [rbx+0x8]
    5fdb:	48 8d 35 56 24 00 00 	lea    rsi,[rip+0x2456]        # 8438 <__progname@@GLIBC_2.2.5-0x2c68>
    5fe2:	48 8b 1b             	mov    rbx,QWORD PTR [rbx]
    5fe5:	ff 15 6d 4f 00 00    	call   QWORD PTR [rip+0x4f6d]        # af58 <dcgettext@GLIBC_2.2.5>
    5feb:	48 83 ec 08          	sub    rsp,0x8
    5fef:	41 56                	push   r14
    5ff1:	48 89 c2             	mov    rdx,rax
    5ff4:	4d 89 e9             	mov    r9,r13
    5ff7:	4d 89 e0             	mov    r8,r12
    5ffa:	48 89 d9             	mov    rcx,rbx
    5ffd:	48 89 ef             	mov    rdi,rbp
    6000:	be 01 00 00 00       	mov    esi,0x1
    6005:	31 c0                	xor    eax,eax
    6007:	ff 15 23 4e 00 00    	call   QWORD PTR [rip+0x4e23]        # ae30 <__fprintf_chk@GLIBC_2.3.4>
    600d:	58                   	pop    rax
    600e:	5a                   	pop    rdx
    600f:	48 83 c4 28          	add    rsp,0x28
    6013:	5b                   	pop    rbx
    6014:	5d                   	pop    rbp
    6015:	41 5c                	pop    r12
    6017:	41 5d                	pop    r13
    6019:	41 5e                	pop    r14
    601b:	41 5f                	pop    r15
    601d:	c3                   	ret    
    601e:	66 90                	xchg   ax,ax
    6020:	4c 8b 7b 20          	mov    r15,QWORD PTR [rbx+0x20]
    6024:	4c 8b 73 18          	mov    r14,QWORD PTR [rbx+0x18]
    6028:	ba 05 00 00 00       	mov    edx,0x5
    602d:	31 ff                	xor    edi,edi
    602f:	4c 8b 6b 10          	mov    r13,QWORD PTR [rbx+0x10]
    6033:	4c 8b 63 08          	mov    r12,QWORD PTR [rbx+0x8]
    6037:	48 8d 35 1a 24 00 00 	lea    rsi,[rip+0x241a]        # 8458 <__progname@@GLIBC_2.2.5-0x2c48>
    603e:	48 8b 1b             	mov    rbx,QWORD PTR [rbx]
    6041:	ff 15 11 4f 00 00    	call   QWORD PTR [rip+0x4f11]        # af58 <dcgettext@GLIBC_2.2.5>
    6047:	41 57                	push   r15
    6049:	eb a4                	jmp    5fef <__progname@@GLIBC_2.2.5-0x50b1>
    604b:	0f 1f 44 00 00       	nop    DWORD PTR [rax+rax*1+0x0]
    6050:	4c 8b 43 08          	mov    r8,QWORD PTR [rbx+0x8]
    6054:	4c 8b 63 28          	mov    r12,QWORD PTR [rbx+0x28]
    6058:	ba 05 00 00 00       	mov    edx,0x5
    605d:	31 ff                	xor    edi,edi
    605f:	4c 8b 7b 20          	mov    r15,QWORD PTR [rbx+0x20]
    6063:	4c 8b 73 18          	mov    r14,QWORD PTR [rbx+0x18]
    6067:	48 8d 35 12 24 00 00 	lea    rsi,[rip+0x2412]        # 8480 <__progname@@GLIBC_2.2.5-0x2c20>
    606e:	4c 89 04 24          	mov    QWORD PTR [rsp],r8
    6072:	4c 8b 6b 10          	mov    r13,QWORD PTR [rbx+0x10]
    6076:	48 8b 1b             	mov    rbx,QWORD PTR [rbx]
    6079:	ff 15 d9 4e 00 00    	call   QWORD PTR [rip+0x4ed9]        # af58 <dcgettext@GLIBC_2.2.5>
    607f:	48 83 ec 08          	sub    rsp,0x8
    6083:	4d 89 e9             	mov    r9,r13
    6086:	41 54                	push   r12
    6088:	41 57                	push   r15
    608a:	41 56                	push   r14
    608c:	4c 8b 44 24 20       	mov    r8,QWORD PTR [rsp+0x20]
    6091:	48 89 d9             	mov    rcx,rbx
    6094:	48 89 c2             	mov    rdx,rax
    6097:	48 89 ef             	mov    rdi,rbp
    609a:	be 01 00 00 00       	mov    esi,0x1
    609f:	31 c0                	xor    eax,eax
    60a1:	ff 15 89 4d 00 00    	call   QWORD PTR [rip+0x4d89]        # ae30 <__fprintf_chk@GLIBC_2.3.4>
    60a7:	48 83 c4 20          	add    rsp,0x20
    60ab:	48 83 c4 28          	add    rsp,0x28
    60af:	5b                   	pop    rbx
    60b0:	5d                   	pop    rbp
    60b1:	41 5c                	pop    r12
    60b3:	41 5d                	pop    r13
    60b5:	41 5e                	pop    r14
    60b7:	41 5f                	pop    r15
    60b9:	c3                   	ret    
    60ba:	66 0f 1f 44 00 00    	nop    WORD PTR [rax+rax*1+0x0]
    60c0:	4c 8b 4b 10          	mov    r9,QWORD PTR [rbx+0x10]
    60c4:	4c 8b 6b 30          	mov    r13,QWORD PTR [rbx+0x30]
    60c8:	ba 05 00 00 00       	mov    edx,0x5
    60cd:	31 ff                	xor    edi,edi
    60cf:	4c 8b 63 28          	mov    r12,QWORD PTR [rbx+0x28]
    60d3:	4c 8b 7b 20          	mov    r15,QWORD PTR [rbx+0x20]
    60d7:	48 8d 35 ca 23 00 00 	lea    rsi,[rip+0x23ca]        # 84a8 <__progname@@GLIBC_2.2.5-0x2bf8>
    60de:	4c 8b 73 18          	mov    r14,QWORD PTR [rbx+0x18]
    60e2:	4c 8b 43 08          	mov    r8,QWORD PTR [rbx+0x8]
    60e6:	4c 89 4c 24 08       	mov    QWORD PTR [rsp+0x8],r9
    60eb:	48 8b 1b             	mov    rbx,QWORD PTR [rbx]
    60ee:	4c 89 04 24          	mov    QWORD PTR [rsp],r8
    60f2:	ff 15 60 4e 00 00    	call   QWORD PTR [rip+0x4e60]        # af58 <dcgettext@GLIBC_2.2.5>
    60f8:	41 55                	push   r13
    60fa:	41 54                	push   r12
    60fc:	41 57                	push   r15
    60fe:	41 56                	push   r14
    6100:	4c 8b 4c 24 28       	mov    r9,QWORD PTR [rsp+0x28]
    6105:	eb 85                	jmp    608c <__progname@@GLIBC_2.2.5-0x5014>
    6107:	66 0f 1f 84 00 00 00 	nop    WORD PTR [rax+rax*1+0x0]
    610e:	00 00 
    6110:	4c 8b 53 40          	mov    r10,QWORD PTR [rbx+0x40]
    6114:	4c 8b 4b 38          	mov    r9,QWORD PTR [rbx+0x38]
    6118:	ba 05 00 00 00       	mov    edx,0x5
    611d:	48 8d 35 1c 24 00 00 	lea    rsi,[rip+0x241c]        # 8540 <__progname@@GLIBC_2.2.5-0x2b60>
    6124:	48 8b 43 10          	mov    rax,QWORD PTR [rbx+0x10]
    6128:	4c 8b 43 08          	mov    r8,QWORD PTR [rbx+0x8]
    612c:	4c 8b 6b 30          	mov    r13,QWORD PTR [rbx+0x30]
    6130:	4c 8b 63 28          	mov    r12,QWORD PTR [rbx+0x28]
    6134:	4c 89 54 24 18       	mov    QWORD PTR [rsp+0x18],r10
    6139:	4c 8b 7b 20          	mov    r15,QWORD PTR [rbx+0x20]
    613d:	4c 8b 73 18          	mov    r14,QWORD PTR [rbx+0x18]
    6141:	4c 89 4c 24 10       	mov    QWORD PTR [rsp+0x10],r9
    6146:	48 89 04 24          	mov    QWORD PTR [rsp],rax
    614a:	48 8b 1b             	mov    rbx,QWORD PTR [rbx]
    614d:	4c 89 44 24 08       	mov    QWORD PTR [rsp+0x8],r8
    6152:	e9 7b fd ff ff       	jmp    5ed2 <__progname@@GLIBC_2.2.5-0x51ce>
    6157:	66 0f 1f 84 00 00 00 	nop    WORD PTR [rax+rax*1+0x0]
    615e:	00 00 
    6160:	45 31 c9             	xor    r9d,r9d
    6163:	49 83 38 00          	cmp    QWORD PTR [r8],0x0
    6167:	74 12                	je     617b <__progname@@GLIBC_2.2.5-0x4f25>
    6169:	0f 1f 80 00 00 00 00 	nop    DWORD PTR [rax+0x0]
    6170:	49 83 c1 01          	add    r9,0x1
    6174:	4b 83 3c c8 00       	cmp    QWORD PTR [r8+r9*8],0x0
    6179:	75 f5                	jne    6170 <__progname@@GLIBC_2.2.5-0x4f30>
    617b:	e9 b0 fb ff ff       	jmp    5d30 <__progname@@GLIBC_2.2.5-0x5370>
    6180:	48 83 ec 68          	sub    rsp,0x68
    6184:	45 31 c9             	xor    r9d,r9d
    6187:	64 48 8b 04 25 28 00 	mov    rax,QWORD PTR fs:0x28
    618e:	00 00 
    6190:	48 89 44 24 58       	mov    QWORD PTR [rsp+0x58],rax
    6195:	31 c0                	xor    eax,eax
    6197:	49 89 e3             	mov    r11,rsp
    619a:	eb 27                	jmp    61c3 <__progname@@GLIBC_2.2.5-0x4edd>
    619c:	0f 1f 40 00          	nop    DWORD PTR [rax+0x0]
    61a0:	41 89 c2             	mov    r10d,eax
    61a3:	83 c0 08             	add    eax,0x8
    61a6:	4d 03 50 10          	add    r10,QWORD PTR [r8+0x10]
    61aa:	41 89 00             	mov    DWORD PTR [r8],eax
    61ad:	49 8b 02             	mov    rax,QWORD PTR [r10]
    61b0:	4b 89 04 cb          	mov    QWORD PTR [r11+r9*8],rax
    61b4:	48 85 c0             	test   rax,rax
    61b7:	74 2f                	je     61e8 <__progname@@GLIBC_2.2.5-0x4eb8>
    61b9:	49 83 c1 01          	add    r9,0x1
    61bd:	49 83 f9 0a          	cmp    r9,0xa
    61c1:	74 25                	je     61e8 <__progname@@GLIBC_2.2.5-0x4eb8>
    61c3:	41 8b 00             	mov    eax,DWORD PTR [r8]
    61c6:	83 f8 2f             	cmp    eax,0x2f
    61c9:	76 d5                	jbe    61a0 <__progname@@GLIBC_2.2.5-0x4f00>
    61cb:	4d 8b 50 08          	mov    r10,QWORD PTR [r8+0x8]
    61cf:	49 8d 42 08          	lea    rax,[r10+0x8]
    61d3:	49 89 40 08          	mov    QWORD PTR [r8+0x8],rax
    61d7:	49 8b 02             	mov    rax,QWORD PTR [r10]
    61da:	4b 89 04 cb          	mov    QWORD PTR [r11+r9*8],rax
    61de:	48 85 c0             	test   rax,rax
    61e1:	75 d6                	jne    61b9 <__progname@@GLIBC_2.2.5-0x4ee7>
    61e3:	0f 1f 44 00 00       	nop    DWORD PTR [rax+rax*1+0x0]
    61e8:	4d 89 d8             	mov    r8,r11
    61eb:	e8 40 fb ff ff       	call   5d30 <__progname@@GLIBC_2.2.5-0x5370>
    61f0:	48 8b 44 24 58       	mov    rax,QWORD PTR [rsp+0x58]
    61f5:	64 48 33 04 25 28 00 	xor    rax,QWORD PTR fs:0x28
    61fc:	00 00 
    61fe:	75 05                	jne    6205 <__progname@@GLIBC_2.2.5-0x4e9b>
    6200:	48 83 c4 68          	add    rsp,0x68
    6204:	c3                   	ret    
    6205:	ff 15 55 4d 00 00    	call   QWORD PTR [rip+0x4d55]        # af60 <__stack_chk_fail@GLIBC_2.4>
    620b:	0f 1f 44 00 00       	nop    DWORD PTR [rax+rax*1+0x0]
    6210:	55                   	push   rbp
    6211:	41 ba 20 00 00 00    	mov    r10d,0x20
    6217:	53                   	push   rbx
    6218:	31 db                	xor    ebx,ebx
    621a:	48 81 ec b8 00 00 00 	sub    rsp,0xb8
    6221:	4c 89 84 24 a0 00 00 	mov    QWORD PTR [rsp+0xa0],r8
    6228:	00 
    6229:	4c 8d 9c 24 d0 00 00 	lea    r11,[rsp+0xd0]
    6230:	00 
    6231:	4c 8d 44 24 20       	lea    r8,[rsp+0x20]
    6236:	4c 89 8c 24 a8 00 00 	mov    QWORD PTR [rsp+0xa8],r9
    623d:	00 
    623e:	45 31 c9             	xor    r9d,r9d
    6241:	64 48 8b 04 25 28 00 	mov    rax,QWORD PTR fs:0x28
    6248:	00 00 
    624a:	48 89 44 24 78       	mov    QWORD PTR [rsp+0x78],rax
    624f:	31 c0                	xor    eax,eax
    6251:	48 8d 84 24 d0 00 00 	lea    rax,[rsp+0xd0]
    6258:	00 
    6259:	c7 44 24 08 20 00 00 	mov    DWORD PTR [rsp+0x8],0x20
    6260:	00 
    6261:	48 89 44 24 10       	mov    QWORD PTR [rsp+0x10],rax
    6266:	48 8d 84 24 80 00 00 	lea    rax,[rsp+0x80]
    626d:	00 
    626e:	48 89 44 24 18       	mov    QWORD PTR [rsp+0x18],rax
    6273:	48 89 c5             	mov    rbp,rax
    6276:	eb 2d                	jmp    62a5 <__progname@@GLIBC_2.2.5-0x4dfb>
    6278:	0f 1f 84 00 00 00 00 	nop    DWORD PTR [rax+rax*1+0x0]
    627f:	00 
    6280:	44 89 d0             	mov    eax,r10d
    6283:	bb 01 00 00 00       	mov    ebx,0x1
    6288:	41 83 c2 08          	add    r10d,0x8
    628c:	48 01 e8             	add    rax,rbp
    628f:	48 8b 00             	mov    rax,QWORD PTR [rax]
    6292:	4b 89 04 c8          	mov    QWORD PTR [r8+r9*8],rax
    6296:	48 85 c0             	test   rax,rax
    6299:	74 25                	je     62c0 <__progname@@GLIBC_2.2.5-0x4de0>
    629b:	49 83 c1 01          	add    r9,0x1
    629f:	49 83 f9 0a          	cmp    r9,0xa
    62a3:	74 1b                	je     62c0 <__progname@@GLIBC_2.2.5-0x4de0>
    62a5:	41 83 fa 2f          	cmp    r10d,0x2f
    62a9:	76 d5                	jbe    6280 <__progname@@GLIBC_2.2.5-0x4e20>
    62ab:	4c 89 d8             	mov    rax,r11
    62ae:	49 83 c3 08          	add    r11,0x8
    62b2:	48 8b 00             	mov    rax,QWORD PTR [rax]
    62b5:	4b 89 04 c8          	mov    QWORD PTR [r8+r9*8],rax
    62b9:	48 85 c0             	test   rax,rax
    62bc:	75 dd                	jne    629b <__progname@@GLIBC_2.2.5-0x4e05>
    62be:	66 90                	xchg   ax,ax
    62c0:	84 db                	test   bl,bl
    62c2:	74 05                	je     62c9 <__progname@@GLIBC_2.2.5-0x4dd7>
    62c4:	44 89 54 24 08       	mov    DWORD PTR [rsp+0x8],r10d
    62c9:	e8 62 fa ff ff       	call   5d30 <__progname@@GLIBC_2.2.5-0x5370>
    62ce:	48 8b 44 24 78       	mov    rax,QWORD PTR [rsp+0x78]
    62d3:	64 48 33 04 25 28 00 	xor    rax,QWORD PTR fs:0x28
    62da:	00 00 
    62dc:	75 0a                	jne    62e8 <__progname@@GLIBC_2.2.5-0x4db8>
    62de:	48 81 c4 b8 00 00 00 	add    rsp,0xb8
    62e5:	5b                   	pop    rbx
    62e6:	5d                   	pop    rbp
    62e7:	c3                   	ret    
    62e8:	ff 15 72 4c 00 00    	call   QWORD PTR [rip+0x4c72]        # af60 <__stack_chk_fail@GLIBC_2.4>
    62ee:	66 90                	xchg   ax,ax
    62f0:	53                   	push   rbx
    62f1:	ba 05 00 00 00       	mov    edx,0x5
    62f6:	48 8d 35 25 20 00 00 	lea    rsi,[rip+0x2025]        # 8322 <__progname@@GLIBC_2.2.5-0x2d7e>
    62fd:	31 ff                	xor    edi,edi
    62ff:	ff 15 53 4c 00 00    	call   QWORD PTR [rip+0x4c53]        # af58 <dcgettext@GLIBC_2.2.5>
    6305:	48 8d 15 2b 20 00 00 	lea    rdx,[rip+0x202b]        # 8337 <__progname@@GLIBC_2.2.5-0x2d69>
    630c:	bf 01 00 00 00       	mov    edi,0x1
    6311:	48 89 c6             	mov    rsi,rax
    6314:	31 c0                	xor    eax,eax
    6316:	ff 15 34 4b 00 00    	call   QWORD PTR [rip+0x4b34]        # ae50 <__printf_chk@GLIBC_2.3.4>
    631c:	ba 05 00 00 00       	mov    edx,0x5
    6321:	48 8d 35 25 20 00 00 	lea    rsi,[rip+0x2025]        # 834d <__progname@@GLIBC_2.2.5-0x2d53>
    6328:	31 ff                	xor    edi,edi
    632a:	ff 15 28 4c 00 00    	call   QWORD PTR [rip+0x4c28]        # af58 <dcgettext@GLIBC_2.2.5>
    6330:	48 8d 0d f9 13 00 00 	lea    rcx,[rip+0x13f9]        # 7730 <__progname@@GLIBC_2.2.5-0x3970>
    6337:	bf 01 00 00 00       	mov    edi,0x1
    633c:	48 8d 15 4f 0d 00 00 	lea    rdx,[rip+0xd4f]        # 7092 <__progname@@GLIBC_2.2.5-0x400e>
    6343:	48 89 c6             	mov    rsi,rax
    6346:	31 c0                	xor    eax,eax
    6348:	ff 15 02 4b 00 00    	call   QWORD PTR [rip+0x4b02]        # ae50 <__printf_chk@GLIBC_2.3.4>
    634e:	48 8b 1d 93 4d 00 00 	mov    rbx,QWORD PTR [rip+0x4d93]        # b0e8 <stdout@@GLIBC_2.2.5>
    6355:	31 ff                	xor    edi,edi
    6357:	48 8d 35 22 22 00 00 	lea    rsi,[rip+0x2222]        # 8580 <__progname@@GLIBC_2.2.5-0x2b20>
    635e:	ba 05 00 00 00       	mov    edx,0x5
    6363:	ff 15 ef 4b 00 00    	call   QWORD PTR [rip+0x4bef]        # af58 <dcgettext@GLIBC_2.2.5>
    6369:	48 89 de             	mov    rsi,rbx
    636c:	5b                   	pop    rbx
    636d:	48 89 c7             	mov    rdi,rax
    6370:	ff 25 62 4b 00 00    	jmp    QWORD PTR [rip+0x4b62]        # aed8 <fputs_unlocked@GLIBC_2.2.5>
    6376:	66 2e 0f 1f 84 00 00 	nop    WORD PTR cs:[rax+rax*1+0x0]
    637d:	00 00 00 
    6380:	53                   	push   rbx
    6381:	48 89 fb             	mov    rbx,rdi
    6384:	ff 15 e6 4a 00 00    	call   QWORD PTR [rip+0x4ae6]        # ae70 <malloc@GLIBC_2.2.5>
    638a:	48 85 c0             	test   rax,rax
    638d:	75 05                	jne    6394 <__progname@@GLIBC_2.2.5-0x4d0c>
    638f:	48 85 db             	test   rbx,rbx
    6392:	75 02                	jne    6396 <__progname@@GLIBC_2.2.5-0x4d0a>
    6394:	5b                   	pop    rbx
    6395:	c3                   	ret    
    6396:	67 e8 44 02 00 00    	addr32 call 65e0 <__progname@@GLIBC_2.2.5-0x4ac0>
    639c:	0f 1f 40 00          	nop    DWORD PTR [rax+0x0]
    63a0:	48 89 f8             	mov    rax,rdi
    63a3:	48 f7 e6             	mul    rsi
    63a6:	48 89 c7             	mov    rdi,rax
    63a9:	0f 90 c0             	seto   al
    63ac:	48 85 ff             	test   rdi,rdi
    63af:	78 0a                	js     63bb <__progname@@GLIBC_2.2.5-0x4ce5>
    63b1:	0f b6 c0             	movzx  eax,al
    63b4:	48 85 c0             	test   rax,rax
    63b7:	75 02                	jne    63bb <__progname@@GLIBC_2.2.5-0x4ce5>
    63b9:	eb c5                	jmp    6380 <__progname@@GLIBC_2.2.5-0x4d20>
    63bb:	50                   	push   rax
    63bc:	67 e8 1e 02 00 00    	addr32 call 65e0 <__progname@@GLIBC_2.2.5-0x4ac0>
    63c2:	66 66 2e 0f 1f 84 00 	data16 nop WORD PTR cs:[rax+rax*1+0x0]
    63c9:	00 00 00 00 
    63cd:	0f 1f 00             	nop    DWORD PTR [rax]
    63d0:	eb ae                	jmp    6380 <__progname@@GLIBC_2.2.5-0x4d20>
    63d2:	66 66 2e 0f 1f 84 00 	data16 nop WORD PTR cs:[rax+rax*1+0x0]
    63d9:	00 00 00 00 
    63dd:	0f 1f 00             	nop    DWORD PTR [rax]
    63e0:	53                   	push   rbx
    63e1:	48 89 f3             	mov    rbx,rsi
    63e4:	48 85 f6             	test   rsi,rsi
    63e7:	75 05                	jne    63ee <__progname@@GLIBC_2.2.5-0x4cb2>
    63e9:	48 85 ff             	test   rdi,rdi
    63ec:	75 1a                	jne    6408 <__progname@@GLIBC_2.2.5-0x4c98>
    63ee:	48 89 de             	mov    rsi,rbx
    63f1:	ff 15 c9 4b 00 00    	call   QWORD PTR [rip+0x4bc9]        # afc0 <realloc@GLIBC_2.2.5>
    63f7:	48 85 c0             	test   rax,rax
    63fa:	75 05                	jne    6401 <__progname@@GLIBC_2.2.5-0x4c9f>
    63fc:	48 85 db             	test   rbx,rbx
    63ff:	75 11                	jne    6412 <__progname@@GLIBC_2.2.5-0x4c8e>
    6401:	5b                   	pop    rbx
    6402:	c3                   	ret    
    6403:	0f 1f 44 00 00       	nop    DWORD PTR [rax+rax*1+0x0]
    6408:	ff 15 a2 4a 00 00    	call   QWORD PTR [rip+0x4aa2]        # aeb0 <free@GLIBC_2.2.5>
    640e:	31 c0                	xor    eax,eax
    6410:	5b                   	pop    rbx
    6411:	c3                   	ret    
    6412:	67 e8 c8 01 00 00    	addr32 call 65e0 <__progname@@GLIBC_2.2.5-0x4ac0>
    6418:	0f 1f 84 00 00 00 00 	nop    DWORD PTR [rax+rax*1+0x0]
    641f:	00 
    6420:	48 89 f0             	mov    rax,rsi
    6423:	48 f7 e2             	mul    rdx
    6426:	48 89 c6             	mov    rsi,rax
    6429:	0f 90 c0             	seto   al
    642c:	48 85 f6             	test   rsi,rsi
    642f:	78 0a                	js     643b <__progname@@GLIBC_2.2.5-0x4c65>
    6431:	0f b6 c0             	movzx  eax,al
    6434:	48 85 c0             	test   rax,rax
    6437:	75 02                	jne    643b <__progname@@GLIBC_2.2.5-0x4c65>
    6439:	eb a5                	jmp    63e0 <__progname@@GLIBC_2.2.5-0x4cc0>
    643b:	50                   	push   rax
    643c:	67 e8 9e 01 00 00    	addr32 call 65e0 <__progname@@GLIBC_2.2.5-0x4ac0>
    6442:	66 66 2e 0f 1f 84 00 	data16 nop WORD PTR cs:[rax+rax*1+0x0]
    6449:	00 00 00 00 
    644d:	0f 1f 00             	nop    DWORD PTR [rax]
    6450:	49 89 d1             	mov    r9,rdx
    6453:	48 8b 0e             	mov    rcx,QWORD PTR [rsi]
    6456:	48 85 ff             	test   rdi,rdi
    6459:	74 35                	je     6490 <__progname@@GLIBC_2.2.5-0x4c10>
    645b:	48 b8 54 55 55 55 55 	movabs rax,0x5555555555555554
    6462:	55 55 55 
    6465:	31 d2                	xor    edx,edx
    6467:	49 f7 f1             	div    r9
    646a:	48 39 c8             	cmp    rax,rcx
    646d:	76 3c                	jbe    64ab <__progname@@GLIBC_2.2.5-0x4bf5>
    646f:	48 89 c8             	mov    rax,rcx
    6472:	48 d1 e8             	shr    rax,1
    6475:	48 8d 4c 08 01       	lea    rcx,[rax+rcx*1+0x1]
    647a:	48 89 0e             	mov    QWORD PTR [rsi],rcx
    647d:	49 0f af c9          	imul   rcx,r9
    6481:	48 89 ce             	mov    rsi,rcx
    6484:	e9 57 ff ff ff       	jmp    63e0 <__progname@@GLIBC_2.2.5-0x4cc0>
    6489:	0f 1f 80 00 00 00 00 	nop    DWORD PTR [rax+0x0]
    6490:	48 85 c9             	test   rcx,rcx
    6493:	74 23                	je     64b8 <__progname@@GLIBC_2.2.5-0x4be8>
    6495:	48 89 c8             	mov    rax,rcx
    6498:	49 f7 e1             	mul    r9
    649b:	0f 90 c2             	seto   dl
    649e:	0f b6 d2             	movzx  edx,dl
    64a1:	48 85 c0             	test   rax,rax
    64a4:	78 05                	js     64ab <__progname@@GLIBC_2.2.5-0x4bf5>
    64a6:	48 85 d2             	test   rdx,rdx
    64a9:	74 cf                	je     647a <__progname@@GLIBC_2.2.5-0x4c26>
    64ab:	50                   	push   rax
    64ac:	67 e8 2e 01 00 00    	addr32 call 65e0 <__progname@@GLIBC_2.2.5-0x4ac0>
    64b2:	66 0f 1f 44 00 00    	nop    WORD PTR [rax+rax*1+0x0]
    64b8:	31 d2                	xor    edx,edx
    64ba:	b8 80 00 00 00       	mov    eax,0x80
    64bf:	45 31 c0             	xor    r8d,r8d
    64c2:	49 f7 f1             	div    r9
    64c5:	49 81 f9 80 00 00 00 	cmp    r9,0x80
    64cc:	41 0f 97 c0          	seta   r8b
    64d0:	49 8d 0c 00          	lea    rcx,[r8+rax*1]
    64d4:	eb bf                	jmp    6495 <__progname@@GLIBC_2.2.5-0x4c0b>
    64d6:	66 2e 0f 1f 84 00 00 	nop    WORD PTR cs:[rax+rax*1+0x0]
    64dd:	00 00 00 
    64e0:	48 8b 06             	mov    rax,QWORD PTR [rsi]
    64e3:	48 85 ff             	test   rdi,rdi
    64e6:	74 28                	je     6510 <__progname@@GLIBC_2.2.5-0x4b90>
    64e8:	48 ba 53 55 55 55 55 	movabs rdx,0x5555555555555553
    64ef:	55 55 55 
    64f2:	48 39 d0             	cmp    rax,rdx
    64f5:	77 33                	ja     652a <__progname@@GLIBC_2.2.5-0x4b76>
    64f7:	48 89 c2             	mov    rdx,rax
    64fa:	48 d1 ea             	shr    rdx,1
    64fd:	48 8d 44 02 01       	lea    rax,[rdx+rax*1+0x1]
    6502:	48 89 06             	mov    QWORD PTR [rsi],rax
    6505:	48 89 c6             	mov    rsi,rax
    6508:	e9 d3 fe ff ff       	jmp    63e0 <__progname@@GLIBC_2.2.5-0x4cc0>
    650d:	0f 1f 00             	nop    DWORD PTR [rax]
    6510:	48 85 c0             	test   rax,rax
    6513:	75 13                	jne    6528 <__progname@@GLIBC_2.2.5-0x4b78>
    6515:	b8 80 00 00 00       	mov    eax,0x80
    651a:	48 89 06             	mov    QWORD PTR [rsi],rax
    651d:	48 89 c6             	mov    rsi,rax
    6520:	e9 bb fe ff ff       	jmp    63e0 <__progname@@GLIBC_2.2.5-0x4cc0>
    6525:	0f 1f 00             	nop    DWORD PTR [rax]
    6528:	79 d8                	jns    6502 <__progname@@GLIBC_2.2.5-0x4b9e>
    652a:	50                   	push   rax
    652b:	67 e8 af 00 00 00    	addr32 call 65e0 <__progname@@GLIBC_2.2.5-0x4ac0>
    6531:	66 66 2e 0f 1f 84 00 	data16 nop WORD PTR cs:[rax+rax*1+0x0]
    6538:	00 00 00 00 
    653c:	0f 1f 40 00          	nop    DWORD PTR [rax+0x0]
    6540:	53                   	push   rbx
    6541:	48 89 fb             	mov    rbx,rdi
    6544:	e8 37 fe ff ff       	call   6380 <__progname@@GLIBC_2.2.5-0x4d20>
    6549:	48 89 da             	mov    rdx,rbx
    654c:	31 f6                	xor    esi,esi
    654e:	5b                   	pop    rbx
    654f:	48 89 c7             	mov    rdi,rax
    6552:	ff 25 a8 48 00 00    	jmp    QWORD PTR [rip+0x48a8]        # ae00 <memset@GLIBC_2.2.5>
    6558:	0f 1f 84 00 00 00 00 	nop    DWORD PTR [rax+rax*1+0x0]
    655f:	00 
    6560:	48 89 f8             	mov    rax,rdi
    6563:	48 83 ec 08          	sub    rsp,0x8
    6567:	48 f7 e6             	mul    rsi
    656a:	0f 90 c2             	seto   dl
    656d:	48 85 c0             	test   rax,rax
    6570:	78 18                	js     658a <__progname@@GLIBC_2.2.5-0x4b16>
    6572:	0f b6 d2             	movzx  edx,dl
    6575:	48 85 d2             	test   rdx,rdx
    6578:	75 10                	jne    658a <__progname@@GLIBC_2.2.5-0x4b16>
    657a:	ff 15 08 4a 00 00    	call   QWORD PTR [rip+0x4a08]        # af88 <calloc@GLIBC_2.2.5>
    6580:	48 85 c0             	test   rax,rax
    6583:	74 05                	je     658a <__progname@@GLIBC_2.2.5-0x4b16>
    6585:	48 83 c4 08          	add    rsp,0x8
    6589:	c3                   	ret    
    658a:	67 e8 50 00 00 00    	addr32 call 65e0 <__progname@@GLIBC_2.2.5-0x4ac0>
    6590:	55                   	push   rbp
    6591:	48 89 fd             	mov    rbp,rdi
    6594:	48 89 f7             	mov    rdi,rsi
    6597:	53                   	push   rbx
    6598:	48 89 f3             	mov    rbx,rsi
    659b:	48 83 ec 08          	sub    rsp,0x8
    659f:	e8 dc fd ff ff       	call   6380 <__progname@@GLIBC_2.2.5-0x4d20>
    65a4:	48 83 c4 08          	add    rsp,0x8
    65a8:	48 89 da             	mov    rdx,rbx
    65ab:	48 89 ee             	mov    rsi,rbp
    65ae:	5b                   	pop    rbx
    65af:	48 89 c7             	mov    rdi,rax
    65b2:	5d                   	pop    rbp
    65b3:	ff 25 1f 4a 00 00    	jmp    QWORD PTR [rip+0x4a1f]        # afd8 <memcpy@GLIBC_2.14>
    65b9:	0f 1f 80 00 00 00 00 	nop    DWORD PTR [rax+0x0]
    65c0:	53                   	push   rbx
    65c1:	48 89 fb             	mov    rbx,rdi
    65c4:	ff 15 f6 48 00 00    	call   QWORD PTR [rip+0x48f6]        # aec0 <strlen@GLIBC_2.2.5>
    65ca:	48 89 df             	mov    rdi,rbx
    65cd:	5b                   	pop    rbx
    65ce:	48 8d 70 01          	lea    rsi,[rax+0x1]
    65d2:	eb bc                	jmp    6590 <__progname@@GLIBC_2.2.5-0x4b10>
    65d4:	66 2e 0f 1f 84 00 00 	nop    WORD PTR cs:[rax+rax*1+0x0]
    65db:	00 00 00 
    65de:	66 90                	xchg   ax,ax
    65e0:	48 83 ec 08          	sub    rsp,0x8
    65e4:	ba 05 00 00 00       	mov    edx,0x5
    65e9:	48 8d 35 3f 20 00 00 	lea    rsi,[rip+0x203f]        # 862f <__progname@@GLIBC_2.2.5-0x2a71>
    65f0:	31 ff                	xor    edi,edi
    65f2:	ff 15 60 49 00 00    	call   QWORD PTR [rip+0x4960]        # af58 <dcgettext@GLIBC_2.2.5>
    65f8:	8b 3d 22 4a 00 00    	mov    edi,DWORD PTR [rip+0x4a22]        # b020 <__progname@@GLIBC_2.2.5-0x80>
    65fe:	48 8d 15 c0 15 00 00 	lea    rdx,[rip+0x15c0]        # 7bc5 <__progname@@GLIBC_2.2.5-0x34db>
    6605:	31 f6                	xor    esi,esi
    6607:	48 89 c1             	mov    rcx,rax
    660a:	31 c0                	xor    eax,eax
    660c:	ff 15 be 49 00 00    	call   QWORD PTR [rip+0x49be]        # afd0 <error@GLIBC_2.2.5>
    6612:	ff 15 08 48 00 00    	call   QWORD PTR [rip+0x4808]        # ae20 <abort@GLIBC_2.2.5>
    6618:	0f 1f 84 00 00 00 00 	nop    DWORD PTR [rax+rax*1+0x0]
    661f:	00 
    6620:	41 54                	push   r12
    6622:	55                   	push   rbp
    6623:	53                   	push   rbx
    6624:	48 89 fb             	mov    rbx,rdi
    6627:	ff 15 c3 47 00 00    	call   QWORD PTR [rip+0x47c3]        # adf0 <fileno@GLIBC_2.2.5>
    662d:	48 89 df             	mov    rdi,rbx
    6630:	85 c0                	test   eax,eax
    6632:	78 5d                	js     6691 <__progname@@GLIBC_2.2.5-0x4a0f>
    6634:	ff 15 a6 48 00 00    	call   QWORD PTR [rip+0x48a6]        # aee0 <__freading@GLIBC_2.2.5>
    663a:	85 c0                	test   eax,eax
    663c:	75 32                	jne    6670 <__progname@@GLIBC_2.2.5-0x4a30>
    663e:	48 89 df             	mov    rdi,rbx
    6641:	67 e8 e9 02 00 00    	addr32 call 6930 <__progname@@GLIBC_2.2.5-0x4770>
    6647:	85 c0                	test   eax,eax
    6649:	74 43                	je     668e <__progname@@GLIBC_2.2.5-0x4a12>
    664b:	ff 15 ff 48 00 00    	call   QWORD PTR [rip+0x48ff]        # af50 <__errno_location@GLIBC_2.2.5>
    6651:	48 89 df             	mov    rdi,rbx
    6654:	44 8b 20             	mov    r12d,DWORD PTR [rax]
    6657:	48 89 c5             	mov    rbp,rax
    665a:	ff 15 30 49 00 00    	call   QWORD PTR [rip+0x4930]        # af90 <fclose@GLIBC_2.2.5>
    6660:	45 85 e4             	test   r12d,r12d
    6663:	75 3b                	jne    66a0 <__progname@@GLIBC_2.2.5-0x4a00>
    6665:	5b                   	pop    rbx
    6666:	5d                   	pop    rbp
    6667:	41 5c                	pop    r12
    6669:	c3                   	ret    
    666a:	66 0f 1f 44 00 00    	nop    WORD PTR [rax+rax*1+0x0]
    6670:	48 89 df             	mov    rdi,rbx
    6673:	ff 15 77 47 00 00    	call   QWORD PTR [rip+0x4777]        # adf0 <fileno@GLIBC_2.2.5>
    6679:	31 f6                	xor    esi,esi
    667b:	ba 01 00 00 00       	mov    edx,0x1
    6680:	89 c7                	mov    edi,eax
    6682:	ff 15 a8 48 00 00    	call   QWORD PTR [rip+0x48a8]        # af30 <lseek@GLIBC_2.2.5>
    6688:	48 83 f8 ff          	cmp    rax,0xffffffffffffffff
    668c:	75 b0                	jne    663e <__progname@@GLIBC_2.2.5-0x4a62>
    668e:	48 89 df             	mov    rdi,rbx
    6691:	5b                   	pop    rbx
    6692:	5d                   	pop    rbp
    6693:	41 5c                	pop    r12
    6695:	ff 25 f5 48 00 00    	jmp    QWORD PTR [rip+0x48f5]        # af90 <fclose@GLIBC_2.2.5>
    669b:	0f 1f 44 00 00       	nop    DWORD PTR [rax+rax*1+0x0]
    66a0:	44 89 65 00          	mov    DWORD PTR [rbp+0x0],r12d
    66a4:	b8 ff ff ff ff       	mov    eax,0xffffffff
    66a9:	eb ba                	jmp    6665 <__progname@@GLIBC_2.2.5-0x4a3b>
    66ab:	0f 1f 44 00 00       	nop    DWORD PTR [rax+rax*1+0x0]
    66b0:	41 54                	push   r12
    66b2:	55                   	push   rbp
    66b3:	89 fd                	mov    ebp,edi
    66b5:	53                   	push   rbx
    66b6:	48 83 ec 50          	sub    rsp,0x50
    66ba:	48 89 54 24 30       	mov    QWORD PTR [rsp+0x30],rdx
    66bf:	48 89 4c 24 38       	mov    QWORD PTR [rsp+0x38],rcx
    66c4:	4c 89 44 24 40       	mov    QWORD PTR [rsp+0x40],r8
    66c9:	4c 89 4c 24 48       	mov    QWORD PTR [rsp+0x48],r9
    66ce:	64 48 8b 04 25 28 00 	mov    rax,QWORD PTR fs:0x28
    66d5:	00 00 
    66d7:	48 89 44 24 18       	mov    QWORD PTR [rsp+0x18],rax
    66dc:	31 c0                	xor    eax,eax
    66de:	48 8d 44 24 70       	lea    rax,[rsp+0x70]
    66e3:	c7 04 24 10 00 00 00 	mov    DWORD PTR [rsp],0x10
    66ea:	48 89 44 24 08       	mov    QWORD PTR [rsp+0x8],rax
    66ef:	48 8d 44 24 20       	lea    rax,[rsp+0x20]
    66f4:	48 89 44 24 10       	mov    QWORD PTR [rsp+0x10],rax
    66f9:	85 f6                	test   esi,esi
    66fb:	0f 84 e7 00 00 00    	je     67e8 <__progname@@GLIBC_2.2.5-0x48b8>
    6701:	81 fe 06 04 00 00    	cmp    esi,0x406
    6707:	0f 84 13 01 00 00    	je     6820 <__progname@@GLIBC_2.2.5-0x4880>
    670d:	83 fe 0b             	cmp    esi,0xb
    6710:	74 69                	je     677b <__progname@@GLIBC_2.2.5-0x4925>
    6712:	7e 54                	jle    6768 <__progname@@GLIBC_2.2.5-0x4938>
    6714:	81 fe 07 04 00 00    	cmp    esi,0x407
    671a:	0f 8f a0 00 00 00    	jg     67c0 <__progname@@GLIBC_2.2.5-0x48e0>
    6720:	81 fe 06 04 00 00    	cmp    esi,0x406
    6726:	7d 74                	jge    679c <__progname@@GLIBC_2.2.5-0x4904>
    6728:	81 fe 01 04 00 00    	cmp    esi,0x401
    672e:	74 4b                	je     677b <__progname@@GLIBC_2.2.5-0x4925>
    6730:	81 fe 02 04 00 00    	cmp    esi,0x402
    6736:	74 64                	je     679c <__progname@@GLIBC_2.2.5-0x4904>
    6738:	81 fe 00 04 00 00    	cmp    esi,0x400
    673e:	74 5c                	je     679c <__progname@@GLIBC_2.2.5-0x4904>
    6740:	8b 04 24             	mov    eax,DWORD PTR [rsp]
    6743:	83 f8 2f             	cmp    eax,0x2f
    6746:	0f 87 84 01 00 00    	ja     68d0 <__progname@@GLIBC_2.2.5-0x47d0>
    674c:	48 03 44 24 10       	add    rax,QWORD PTR [rsp+0x10]
    6751:	48 8b 10             	mov    rdx,QWORD PTR [rax]
    6754:	89 ef                	mov    edi,ebp
    6756:	31 c0                	xor    eax,eax
    6758:	ff 15 82 48 00 00    	call   QWORD PTR [rip+0x4882]        # afe0 <fcntl@GLIBC_2.2.5>
    675e:	89 c3                	mov    ebx,eax
    6760:	e9 97 00 00 00       	jmp    67fc <__progname@@GLIBC_2.2.5-0x48a4>
    6765:	0f 1f 00             	nop    DWORD PTR [rax]
    6768:	83 fe 04             	cmp    esi,0x4
    676b:	74 2f                	je     679c <__progname@@GLIBC_2.2.5-0x4904>
    676d:	7f 21                	jg     6790 <__progname@@GLIBC_2.2.5-0x4910>
    676f:	83 fe 02             	cmp    esi,0x2
    6772:	74 28                	je     679c <__progname@@GLIBC_2.2.5-0x4904>
    6774:	7f 05                	jg     677b <__progname@@GLIBC_2.2.5-0x4925>
    6776:	83 fe 01             	cmp    esi,0x1
    6779:	75 c5                	jne    6740 <__progname@@GLIBC_2.2.5-0x4960>
    677b:	89 ef                	mov    edi,ebp
    677d:	31 c0                	xor    eax,eax
    677f:	ff 15 5b 48 00 00    	call   QWORD PTR [rip+0x485b]        # afe0 <fcntl@GLIBC_2.2.5>
    6785:	89 c3                	mov    ebx,eax
    6787:	eb 73                	jmp    67fc <__progname@@GLIBC_2.2.5-0x48a4>
    6789:	0f 1f 80 00 00 00 00 	nop    DWORD PTR [rax+0x0]
    6790:	83 fe 09             	cmp    esi,0x9
    6793:	74 e6                	je     677b <__progname@@GLIBC_2.2.5-0x4925>
    6795:	7f 05                	jg     679c <__progname@@GLIBC_2.2.5-0x4904>
    6797:	83 fe 08             	cmp    esi,0x8
    679a:	75 a4                	jne    6740 <__progname@@GLIBC_2.2.5-0x4960>
    679c:	8b 04 24             	mov    eax,DWORD PTR [rsp]
    679f:	83 f8 2f             	cmp    eax,0x2f
    67a2:	0f 87 78 01 00 00    	ja     6920 <__progname@@GLIBC_2.2.5-0x4780>
    67a8:	48 03 44 24 10       	add    rax,QWORD PTR [rsp+0x10]
    67ad:	8b 10                	mov    edx,DWORD PTR [rax]
    67af:	89 ef                	mov    edi,ebp
    67b1:	31 c0                	xor    eax,eax
    67b3:	ff 15 27 48 00 00    	call   QWORD PTR [rip+0x4827]        # afe0 <fcntl@GLIBC_2.2.5>
    67b9:	89 c3                	mov    ebx,eax
    67bb:	eb 3f                	jmp    67fc <__progname@@GLIBC_2.2.5-0x48a4>
    67bd:	0f 1f 00             	nop    DWORD PTR [rax]
    67c0:	81 fe 09 04 00 00    	cmp    esi,0x409
    67c6:	74 d4                	je     679c <__progname@@GLIBC_2.2.5-0x4904>
    67c8:	7c b1                	jl     677b <__progname@@GLIBC_2.2.5-0x4925>
    67ca:	81 fe 0a 04 00 00    	cmp    esi,0x40a
    67d0:	0f 85 6a ff ff ff    	jne    6740 <__progname@@GLIBC_2.2.5-0x4960>
    67d6:	89 ef                	mov    edi,ebp
    67d8:	31 c0                	xor    eax,eax
    67da:	ff 15 00 48 00 00    	call   QWORD PTR [rip+0x4800]        # afe0 <fcntl@GLIBC_2.2.5>
    67e0:	89 c3                	mov    ebx,eax
    67e2:	eb 18                	jmp    67fc <__progname@@GLIBC_2.2.5-0x48a4>
    67e4:	0f 1f 40 00          	nop    DWORD PTR [rax+0x0]
    67e8:	48 8b 44 24 10       	mov    rax,QWORD PTR [rsp+0x10]
    67ed:	31 f6                	xor    esi,esi
    67ef:	8b 50 10             	mov    edx,DWORD PTR [rax+0x10]
    67f2:	31 c0                	xor    eax,eax
    67f4:	ff 15 e6 47 00 00    	call   QWORD PTR [rip+0x47e6]        # afe0 <fcntl@GLIBC_2.2.5>
    67fa:	89 c3                	mov    ebx,eax
    67fc:	48 8b 4c 24 18       	mov    rcx,QWORD PTR [rsp+0x18]
    6801:	64 48 33 0c 25 28 00 	xor    rcx,QWORD PTR fs:0x28
    6808:	00 00 
    680a:	89 d8                	mov    eax,ebx
    680c:	0f 85 18 01 00 00    	jne    692a <__progname@@GLIBC_2.2.5-0x4776>
    6812:	48 83 c4 50          	add    rsp,0x50
    6816:	5b                   	pop    rbx
    6817:	5d                   	pop    rbp
    6818:	41 5c                	pop    r12
    681a:	c3                   	ret    
    681b:	0f 1f 44 00 00       	nop    DWORD PTR [rax+rax*1+0x0]
    6820:	48 8b 44 24 10       	mov    rax,QWORD PTR [rsp+0x10]
    6825:	c7 04 24 18 00 00 00 	mov    DWORD PTR [rsp],0x18
    682c:	44 8b 60 10          	mov    r12d,DWORD PTR [rax+0x10]
    6830:	8b 05 42 4a 00 00    	mov    eax,DWORD PTR [rip+0x4a42]        # b278 <stdout@@GLIBC_2.2.5+0x190>
    6836:	44 89 e2             	mov    edx,r12d
    6839:	85 c0                	test   eax,eax
    683b:	78 23                	js     6860 <__progname@@GLIBC_2.2.5-0x4840>
    683d:	be 06 04 00 00       	mov    esi,0x406
    6842:	31 c0                	xor    eax,eax
    6844:	ff 15 96 47 00 00    	call   QWORD PTR [rip+0x4796]        # afe0 <fcntl@GLIBC_2.2.5>
    684a:	89 c3                	mov    ebx,eax
    684c:	85 c0                	test   eax,eax
    684e:	0f 88 8c 00 00 00    	js     68e0 <__progname@@GLIBC_2.2.5-0x47c0>
    6854:	c7 05 1a 4a 00 00 01 	mov    DWORD PTR [rip+0x4a1a],0x1        # b278 <stdout@@GLIBC_2.2.5+0x190>
    685b:	00 00 00 
    685e:	eb 9c                	jmp    67fc <__progname@@GLIBC_2.2.5-0x48a4>
    6860:	31 f6                	xor    esi,esi
    6862:	31 c0                	xor    eax,eax
    6864:	ff 15 76 47 00 00    	call   QWORD PTR [rip+0x4776]        # afe0 <fcntl@GLIBC_2.2.5>
    686a:	89 c3                	mov    ebx,eax
    686c:	85 c0                	test   eax,eax
    686e:	78 8c                	js     67fc <__progname@@GLIBC_2.2.5-0x48a4>
    6870:	83 3d 01 4a 00 00 ff 	cmp    DWORD PTR [rip+0x4a01],0xffffffff        # b278 <stdout@@GLIBC_2.2.5+0x190>
    6877:	75 83                	jne    67fc <__progname@@GLIBC_2.2.5-0x48a4>
    6879:	31 c0                	xor    eax,eax
    687b:	be 01 00 00 00       	mov    esi,0x1
    6880:	89 df                	mov    edi,ebx
    6882:	ff 15 58 47 00 00    	call   QWORD PTR [rip+0x4758]        # afe0 <fcntl@GLIBC_2.2.5>
    6888:	85 c0                	test   eax,eax
    688a:	78 1d                	js     68a9 <__progname@@GLIBC_2.2.5-0x47f7>
    688c:	83 c8 01             	or     eax,0x1
    688f:	be 02 00 00 00       	mov    esi,0x2
    6894:	89 df                	mov    edi,ebx
    6896:	89 c2                	mov    edx,eax
    6898:	31 c0                	xor    eax,eax
    689a:	ff 15 40 47 00 00    	call   QWORD PTR [rip+0x4740]        # afe0 <fcntl@GLIBC_2.2.5>
    68a0:	83 f8 ff             	cmp    eax,0xffffffff
    68a3:	0f 85 53 ff ff ff    	jne    67fc <__progname@@GLIBC_2.2.5-0x48a4>
    68a9:	ff 15 a1 46 00 00    	call   QWORD PTR [rip+0x46a1]        # af50 <__errno_location@GLIBC_2.2.5>
    68af:	89 df                	mov    edi,ebx
    68b1:	83 cb ff             	or     ebx,0xffffffff
    68b4:	44 8b 20             	mov    r12d,DWORD PTR [rax]
    68b7:	48 89 c5             	mov    rbp,rax
    68ba:	ff 15 58 45 00 00    	call   QWORD PTR [rip+0x4558]        # ae18 <close@GLIBC_2.2.5>
    68c0:	44 89 65 00          	mov    DWORD PTR [rbp+0x0],r12d
    68c4:	e9 33 ff ff ff       	jmp    67fc <__progname@@GLIBC_2.2.5-0x48a4>
    68c9:	0f 1f 80 00 00 00 00 	nop    DWORD PTR [rax+0x0]
    68d0:	48 8b 44 24 08       	mov    rax,QWORD PTR [rsp+0x8]
    68d5:	e9 77 fe ff ff       	jmp    6751 <__progname@@GLIBC_2.2.5-0x494f>
    68da:	66 0f 1f 44 00 00    	nop    WORD PTR [rax+rax*1+0x0]
    68e0:	ff 15 6a 46 00 00    	call   QWORD PTR [rip+0x466a]        # af50 <__errno_location@GLIBC_2.2.5>
    68e6:	83 38 16             	cmp    DWORD PTR [rax],0x16
    68e9:	0f 85 65 ff ff ff    	jne    6854 <__progname@@GLIBC_2.2.5-0x484c>
    68ef:	44 89 e2             	mov    edx,r12d
    68f2:	31 f6                	xor    esi,esi
    68f4:	89 ef                	mov    edi,ebp
    68f6:	31 c0                	xor    eax,eax
    68f8:	ff 15 e2 46 00 00    	call   QWORD PTR [rip+0x46e2]        # afe0 <fcntl@GLIBC_2.2.5>
    68fe:	89 c3                	mov    ebx,eax
    6900:	85 c0                	test   eax,eax
    6902:	0f 88 f4 fe ff ff    	js     67fc <__progname@@GLIBC_2.2.5-0x48a4>
    6908:	c7 05 66 49 00 00 ff 	mov    DWORD PTR [rip+0x4966],0xffffffff        # b278 <stdout@@GLIBC_2.2.5+0x190>
    690f:	ff ff ff 
    6912:	e9 62 ff ff ff       	jmp    6879 <__progname@@GLIBC_2.2.5-0x4827>
    6917:	66 0f 1f 84 00 00 00 	nop    WORD PTR [rax+rax*1+0x0]
    691e:	00 00 
    6920:	48 8b 44 24 08       	mov    rax,QWORD PTR [rsp+0x8]
    6925:	e9 83 fe ff ff       	jmp    67ad <__progname@@GLIBC_2.2.5-0x48f3>
    692a:	ff 15 30 46 00 00    	call   QWORD PTR [rip+0x4630]        # af60 <__stack_chk_fail@GLIBC_2.4>
    6930:	53                   	push   rbx
    6931:	48 89 fb             	mov    rbx,rdi
    6934:	48 85 ff             	test   rdi,rdi
    6937:	74 12                	je     694b <__progname@@GLIBC_2.2.5-0x4755>
    6939:	ff 15 a1 45 00 00    	call   QWORD PTR [rip+0x45a1]        # aee0 <__freading@GLIBC_2.2.5>
    693f:	85 c0                	test   eax,eax
    6941:	74 08                	je     694b <__progname@@GLIBC_2.2.5-0x4755>
    6943:	f7 03 00 01 00 00    	test   DWORD PTR [rbx],0x100
    6949:	75 0d                	jne    6958 <__progname@@GLIBC_2.2.5-0x4748>
    694b:	48 89 df             	mov    rdi,rbx
    694e:	5b                   	pop    rbx
    694f:	ff 25 9b 46 00 00    	jmp    QWORD PTR [rip+0x469b]        # aff0 <fflush@GLIBC_2.2.5>
    6955:	0f 1f 00             	nop    DWORD PTR [rax]
    6958:	48 89 df             	mov    rdi,rbx
    695b:	ba 01 00 00 00       	mov    edx,0x1
    6960:	31 f6                	xor    esi,esi
    6962:	67 e8 18 00 00 00    	addr32 call 6980 <__progname@@GLIBC_2.2.5-0x4720>
    6968:	48 89 df             	mov    rdi,rbx
    696b:	5b                   	pop    rbx
    696c:	ff 25 7e 46 00 00    	jmp    QWORD PTR [rip+0x467e]        # aff0 <fflush@GLIBC_2.2.5>
    6972:	66 2e 0f 1f 84 00 00 	nop    WORD PTR cs:[rax+rax*1+0x0]
    6979:	00 00 00 
    697c:	0f 1f 40 00          	nop    DWORD PTR [rax+0x0]
    6980:	48 8b 47 08          	mov    rax,QWORD PTR [rdi+0x8]
    6984:	48 39 47 10          	cmp    QWORD PTR [rdi+0x10],rax
    6988:	74 06                	je     6990 <__progname@@GLIBC_2.2.5-0x4710>
    698a:	ff 25 08 46 00 00    	jmp    QWORD PTR [rip+0x4608]        # af98 <fseeko@GLIBC_2.2.5>
    6990:	48 8b 47 20          	mov    rax,QWORD PTR [rdi+0x20]
    6994:	48 39 47 28          	cmp    QWORD PTR [rdi+0x28],rax
    6998:	75 f0                	jne    698a <__progname@@GLIBC_2.2.5-0x4716>
    699a:	48 83 7f 48 00       	cmp    QWORD PTR [rdi+0x48],0x0
    699f:	75 e9                	jne    698a <__progname@@GLIBC_2.2.5-0x4716>
    69a1:	41 54                	push   r12
    69a3:	41 89 d4             	mov    r12d,edx
    69a6:	55                   	push   rbp
    69a7:	48 89 f5             	mov    rbp,rsi
    69aa:	53                   	push   rbx
    69ab:	48 89 fb             	mov    rbx,rdi
    69ae:	ff 15 3c 44 00 00    	call   QWORD PTR [rip+0x443c]        # adf0 <fileno@GLIBC_2.2.5>
    69b4:	44 89 e2             	mov    edx,r12d
    69b7:	48 89 ee             	mov    rsi,rbp
    69ba:	89 c7                	mov    edi,eax
    69bc:	ff 15 6e 45 00 00    	call   QWORD PTR [rip+0x456e]        # af30 <lseek@GLIBC_2.2.5>
    69c2:	48 83 f8 ff          	cmp    rax,0xffffffffffffffff
    69c6:	74 0c                	je     69d4 <__progname@@GLIBC_2.2.5-0x46cc>
    69c8:	83 23 ef             	and    DWORD PTR [rbx],0xffffffef
    69cb:	48 89 83 90 00 00 00 	mov    QWORD PTR [rbx+0x90],rax
    69d2:	31 c0                	xor    eax,eax
    69d4:	5b                   	pop    rbx
    69d5:	5d                   	pop    rbp
    69d6:	41 5c                	pop    r12
    69d8:	c3                   	ret    
    69d9:	0f 1f 80 00 00 00 00 	nop    DWORD PTR [rax+0x0]
    69e0:	41 55                	push   r13
    69e2:	49 89 f5             	mov    r13,rsi
    69e5:	41 54                	push   r12
    69e7:	49 89 d4             	mov    r12,rdx
    69ea:	55                   	push   rbp
    69eb:	53                   	push   rbx
    69ec:	48 89 fb             	mov    rbx,rdi
    69ef:	48 83 ec 18          	sub    rsp,0x18
    69f3:	64 48 8b 04 25 28 00 	mov    rax,QWORD PTR fs:0x28
    69fa:	00 00 
    69fc:	48 89 44 24 08       	mov    QWORD PTR [rsp+0x8],rax
    6a01:	31 c0                	xor    eax,eax
    6a03:	48 85 ff             	test   rdi,rdi
    6a06:	48 8d 44 24 04       	lea    rax,[rsp+0x4]
    6a0b:	48 0f 44 d8          	cmove  rbx,rax
    6a0f:	48 89 df             	mov    rdi,rbx
    6a12:	ff 15 f0 43 00 00    	call   QWORD PTR [rip+0x43f0]        # ae08 <mbrtowc@GLIBC_2.2.5>
    6a18:	48 89 c5             	mov    rbp,rax
    6a1b:	48 83 f8 fd          	cmp    rax,0xfffffffffffffffd
    6a1f:	76 05                	jbe    6a26 <__progname@@GLIBC_2.2.5-0x467a>
    6a21:	4d 85 e4             	test   r12,r12
    6a24:	75 22                	jne    6a48 <__progname@@GLIBC_2.2.5-0x4658>
    6a26:	48 8b 54 24 08       	mov    rdx,QWORD PTR [rsp+0x8]
    6a2b:	64 48 33 14 25 28 00 	xor    rdx,QWORD PTR fs:0x28
    6a32:	00 00 
    6a34:	48 89 e8             	mov    rax,rbp
    6a37:	75 29                	jne    6a62 <__progname@@GLIBC_2.2.5-0x463e>
    6a39:	48 83 c4 18          	add    rsp,0x18
    6a3d:	5b                   	pop    rbx
    6a3e:	5d                   	pop    rbp
    6a3f:	41 5c                	pop    r12
    6a41:	41 5d                	pop    r13
    6a43:	c3                   	ret    
    6a44:	0f 1f 40 00          	nop    DWORD PTR [rax+0x0]
    6a48:	31 ff                	xor    edi,edi
    6a4a:	67 e8 90 00 00 00    	addr32 call 6ae0 <__progname@@GLIBC_2.2.5-0x45c0>
    6a50:	84 c0                	test   al,al
    6a52:	75 d2                	jne    6a26 <__progname@@GLIBC_2.2.5-0x467a>
    6a54:	41 0f b6 45 00       	movzx  eax,BYTE PTR [r13+0x0]
    6a59:	bd 01 00 00 00       	mov    ebp,0x1
    6a5e:	89 03                	mov    DWORD PTR [rbx],eax
    6a60:	eb c4                	jmp    6a26 <__progname@@GLIBC_2.2.5-0x467a>
    6a62:	ff 15 f8 44 00 00    	call   QWORD PTR [rip+0x44f8]        # af60 <__stack_chk_fail@GLIBC_2.4>
    6a68:	0f 1f 84 00 00 00 00 	nop    DWORD PTR [rax+rax*1+0x0]
    6a6f:	00 
    6a70:	41 54                	push   r12
    6a72:	55                   	push   rbp
    6a73:	48 89 fd             	mov    rbp,rdi
    6a76:	53                   	push   rbx
    6a77:	ff 15 a3 44 00 00    	call   QWORD PTR [rip+0x44a3]        # af20 <__fpending@GLIBC_2.2.5>
    6a7d:	8b 5d 00             	mov    ebx,DWORD PTR [rbp+0x0]
    6a80:	48 89 ef             	mov    rdi,rbp
    6a83:	49 89 c4             	mov    r12,rax
    6a86:	83 e3 20             	and    ebx,0x20
    6a89:	67 e8 91 fb ff ff    	addr32 call 6620 <__progname@@GLIBC_2.2.5-0x4a80>
    6a8f:	85 db                	test   ebx,ebx
    6a91:	75 25                	jne    6ab8 <__progname@@GLIBC_2.2.5-0x45e8>
    6a93:	85 c0                	test   eax,eax
    6a95:	74 16                	je     6aad <__progname@@GLIBC_2.2.5-0x45f3>
    6a97:	4d 85 e4             	test   r12,r12
    6a9a:	75 33                	jne    6acf <__progname@@GLIBC_2.2.5-0x45d1>
    6a9c:	ff 15 ae 44 00 00    	call   QWORD PTR [rip+0x44ae]        # af50 <__errno_location@GLIBC_2.2.5>
    6aa2:	83 38 09             	cmp    DWORD PTR [rax],0x9
    6aa5:	0f 95 c0             	setne  al
    6aa8:	0f b6 c0             	movzx  eax,al
    6aab:	f7 d8                	neg    eax
    6aad:	5b                   	pop    rbx
    6aae:	5d                   	pop    rbp
    6aaf:	41 5c                	pop    r12
    6ab1:	c3                   	ret    
    6ab2:	66 0f 1f 44 00 00    	nop    WORD PTR [rax+rax*1+0x0]
    6ab8:	85 c0                	test   eax,eax
    6aba:	75 13                	jne    6acf <__progname@@GLIBC_2.2.5-0x45d1>
    6abc:	ff 15 8e 44 00 00    	call   QWORD PTR [rip+0x448e]        # af50 <__errno_location@GLIBC_2.2.5>
    6ac2:	c7 00 00 00 00 00    	mov    DWORD PTR [rax],0x0
    6ac8:	b8 ff ff ff ff       	mov    eax,0xffffffff
    6acd:	eb de                	jmp    6aad <__progname@@GLIBC_2.2.5-0x45f3>
    6acf:	b8 ff ff ff ff       	mov    eax,0xffffffff
    6ad4:	eb d7                	jmp    6aad <__progname@@GLIBC_2.2.5-0x45f3>
    6ad6:	66 2e 0f 1f 84 00 00 	nop    WORD PTR cs:[rax+rax*1+0x0]
    6add:	00 00 00 
    6ae0:	48 83 ec 08          	sub    rsp,0x8
    6ae4:	31 f6                	xor    esi,esi
    6ae6:	ff 15 dc 44 00 00    	call   QWORD PTR [rip+0x44dc]        # afc8 <setlocale@GLIBC_2.2.5>
    6aec:	48 89 c2             	mov    rdx,rax
    6aef:	b8 01 00 00 00       	mov    eax,0x1
    6af4:	48 85 d2             	test   rdx,rdx
    6af7:	74 1d                	je     6b16 <__progname@@GLIBC_2.2.5-0x458a>
    6af9:	b9 02 00 00 00       	mov    ecx,0x2
    6afe:	48 8d 3d 3b 1b 00 00 	lea    rdi,[rip+0x1b3b]        # 8640 <__progname@@GLIBC_2.2.5-0x2a60>
    6b05:	48 89 d6             	mov    rsi,rdx
    6b08:	f3 a6                	repz cmps BYTE PTR ds:[rsi],BYTE PTR es:[rdi]
    6b0a:	0f 97 c1             	seta   cl
    6b0d:	80 d9 00             	sbb    cl,0x0
    6b10:	31 c0                	xor    eax,eax
    6b12:	84 c9                	test   cl,cl
    6b14:	75 0a                	jne    6b20 <__progname@@GLIBC_2.2.5-0x4580>
    6b16:	48 83 c4 08          	add    rsp,0x8
    6b1a:	c3                   	ret    
    6b1b:	0f 1f 44 00 00       	nop    DWORD PTR [rax+rax*1+0x0]
    6b20:	b9 06 00 00 00       	mov    ecx,0x6
    6b25:	48 8d 3d 16 1b 00 00 	lea    rdi,[rip+0x1b16]        # 8642 <__progname@@GLIBC_2.2.5-0x2a5e>
    6b2c:	48 89 d6             	mov    rsi,rdx
    6b2f:	f3 a6                	repz cmps BYTE PTR ds:[rsi],BYTE PTR es:[rdi]
    6b31:	0f 97 c0             	seta   al
    6b34:	1c 00                	sbb    al,0x0
    6b36:	84 c0                	test   al,al
    6b38:	0f 95 c0             	setne  al
    6b3b:	48 83 c4 08          	add    rsp,0x8
    6b3f:	c3                   	ret    
    6b40:	48 83 ec 08          	sub    rsp,0x8
    6b44:	bf 0e 00 00 00       	mov    edi,0xe
    6b49:	ff 15 d9 42 00 00    	call   QWORD PTR [rip+0x42d9]        # ae28 <nl_langinfo@GLIBC_2.2.5>
    6b4f:	48 85 c0             	test   rax,rax
    6b52:	74 1c                	je     6b70 <__progname@@GLIBC_2.2.5-0x4530>
    6b54:	80 38 00             	cmp    BYTE PTR [rax],0x0
    6b57:	48 8d 15 ea 1a 00 00 	lea    rdx,[rip+0x1aea]        # 8648 <__progname@@GLIBC_2.2.5-0x2a58>
    6b5e:	48 0f 44 c2          	cmove  rax,rdx
    6b62:	48 83 c4 08          	add    rsp,0x8
    6b66:	c3                   	ret    
    6b67:	66 0f 1f 84 00 00 00 	nop    WORD PTR [rax+rax*1+0x0]
    6b6e:	00 00 
    6b70:	48 8d 05 d1 1a 00 00 	lea    rax,[rip+0x1ad1]        # 8648 <__progname@@GLIBC_2.2.5-0x2a58>
    6b77:	48 83 c4 08          	add    rsp,0x8
    6b7b:	c3                   	ret    
    6b7c:	0f 1f 40 00          	nop    DWORD PTR [rax+0x0]
    6b80:	f3 0f 1e fa          	endbr64 
    6b84:	41 57                	push   r15
    6b86:	49 89 d7             	mov    r15,rdx
    6b89:	41 56                	push   r14
    6b8b:	49 89 f6             	mov    r14,rsi
    6b8e:	41 55                	push   r13
    6b90:	41 89 fd             	mov    r13d,edi
    6b93:	41 54                	push   r12
    6b95:	4c 8d 25 74 3e 00 00 	lea    r12,[rip+0x3e74]        # aa10 <__progname@@GLIBC_2.2.5-0x690>
    6b9c:	55                   	push   rbp
    6b9d:	48 8d 2d 74 3e 00 00 	lea    rbp,[rip+0x3e74]        # aa18 <__progname@@GLIBC_2.2.5-0x688>
    6ba4:	53                   	push   rbx
    6ba5:	4c 29 e5             	sub    rbp,r12
    6ba8:	48 83 ec 08          	sub    rsp,0x8
    6bac:	67 e8 4e b4 ff ff    	addr32 call 2000 <__progname@@GLIBC_2.2.5-0x90a0>
    6bb2:	48 c1 fd 03          	sar    rbp,0x3
    6bb6:	74 1e                	je     6bd6 <__progname@@GLIBC_2.2.5-0x44ca>
    6bb8:	31 db                	xor    ebx,ebx
    6bba:	66 0f 1f 44 00 00    	nop    WORD PTR [rax+rax*1+0x0]
    6bc0:	4c 89 fa             	mov    rdx,r15
    6bc3:	4c 89 f6             	mov    rsi,r14
    6bc6:	44 89 ef             	mov    edi,r13d
    6bc9:	41 ff 14 dc          	call   QWORD PTR [r12+rbx*8]
    6bcd:	48 83 c3 01          	add    rbx,0x1
    6bd1:	48 39 dd             	cmp    rbp,rbx
    6bd4:	75 ea                	jne    6bc0 <__progname@@GLIBC_2.2.5-0x44e0>
    6bd6:	48 83 c4 08          	add    rsp,0x8
    6bda:	5b                   	pop    rbx
    6bdb:	5d                   	pop    rbp
    6bdc:	41 5c                	pop    r12
    6bde:	41 5d                	pop    r13
    6be0:	41 5e                	pop    r14
    6be2:	41 5f                	pop    r15
    6be4:	c3                   	ret    
    6be5:	66 66 2e 0f 1f 84 00 	data16 nop WORD PTR cs:[rax+rax*1+0x0]
    6bec:	00 00 00 00 
    6bf0:	f3 0f 1e fa          	endbr64 
    6bf4:	c3                   	ret    
    6bf5:	66 2e 0f 1f 84 00 00 	nop    WORD PTR cs:[rax+rax*1+0x0]
    6bfc:	00 00 00 
    6bff:	90                   	nop
    6c00:	f3 0f 1e fa          	endbr64 
    6c04:	48 8b 15 fd 43 00 00 	mov    rdx,QWORD PTR [rip+0x43fd]        # b008 <__progname@@GLIBC_2.2.5-0x98>
    6c0b:	31 f6                	xor    esi,esi
    6c0d:	ff 25 8d 42 00 00    	jmp    QWORD PTR [rip+0x428d]        # aea0 <__cxa_atexit@GLIBC_2.2.5>

Disassembly of section .fini:

0000000000006c14 <.fini>:
    6c14:	f3 0f 1e fa          	endbr64 
    6c18:	48 83 ec 08          	sub    rsp,0x8
    6c1c:	48 83 c4 08          	add    rsp,0x8
    6c20:	c3                   	ret    
